Component: ARM Compiler 5.06 update 2 (build 183) Tool: armlink [4d35b7]

==============================================================================

Section Cross References

    my_asm.o(.text) refers to nrk.o(i._nrk_timer_tick) for _nrk_timer_tick
    my_asm.o(.text) refers to nrk.o(.data) for nrk_high_ready_TCB
    hal_wait.o(.ARM.exidx) refers to hal_wait.o(i._Z7halWaitt) for i._Z7halWaitt
    nrk_eeprom.o(.ARM.exidx) refers to nrk_eeprom.o(i._Z20nrk_eeprom_read_bytet) for i._Z20nrk_eeprom_read_bytet
    nrk_eeprom.o(.ARM.exidx) refers to nrk_eeprom.o(i._Z21nrk_eeprom_write_byteth) for i._Z21nrk_eeprom_write_byteth
    nrk_eeprom.o(.ARM.exidx) refers to nrk_eeprom.o(i._Z23read_eeprom_mac_addressPj) for i._Z23read_eeprom_mac_addressPj
    nrk_eeprom.o(.ARM.exidx) refers to nrk_eeprom.o(i._Z19read_eeprom_channelPh) for i._Z19read_eeprom_channelPh
    nrk_eeprom.o(.ARM.exidx) refers to nrk_eeprom.o(i._Z27write_eeprom_load_img_pagesPh) for i._Z27write_eeprom_load_img_pagesPh
    nrk_eeprom.o(.ARM.exidx) refers to nrk_eeprom.o(i._Z26read_eeprom_load_img_pagesPh) for i._Z26read_eeprom_load_img_pagesPh
    nrk_eeprom.o(.ARM.exidx) refers to nrk_eeprom.o(i._Z19read_eeprom_aes_keyPh) for i._Z19read_eeprom_aes_keyPh
    nrk_eeprom.o(.ARM.exidx) refers to nrk_eeprom.o(i._Z20write_eeprom_aes_keyPh) for i._Z20write_eeprom_aes_keyPh
    nrk_eeprom.o(.ARM.exidx) refers to nrk_eeprom.o(i._Z34read_eeprom_current_image_checksumPh) for i._Z34read_eeprom_current_image_checksumPh
    nrk_eeprom.o(.ARM.exidx) refers to nrk_eeprom.o(i._Z35write_eeprom_current_image_checksumPh) for i._Z35write_eeprom_current_image_checksumPh
    ulib.o(i._Z11GPIO_SetDirhjh) refers to ulib.o(i._Z15GPIO_GetPointerh) for GPIO_GetPointer(unsigned char)
    ulib.o(i._Z11GPIO_Togglehj) refers to ulib.o(i._Z15GPIO_GetPointerh) for GPIO_GetPointer(unsigned char)
    ulib.o(i._Z11nrk_led_clri) refers to ulib.o(i._Z12nrk_gpio_clrj) for nrk_gpio_clr(unsigned)
    ulib.o(i._Z11nrk_led_seti) refers to ulib.o(i._Z12nrk_gpio_setj) for nrk_gpio_set(unsigned)
    ulib.o(i._Z11setup_uart2t) refers to ulib.o(i._Z21UART_ConfigStructInitP13UART_CFG_Type) for UART_ConfigStructInit(UART_CFG_Type*)
    ulib.o(i._Z11setup_uart2t) refers to ulib.o(i._Z9UART_InitP16LPC_UART_TypeDefP13UART_CFG_Type) for UART_Init(LPC_UART_TypeDef*, UART_CFG_Type*)
    ulib.o(i._Z11setup_uart3j) refers to ulib.o(i._Z21UART_ConfigStructInitP13UART_CFG_Type) for UART_ConfigStructInit(UART_CFG_Type*)
    ulib.o(i._Z11setup_uart3j) refers to ulib.o(i._Z9UART_InitP16LPC_UART_TypeDefP13UART_CFG_Type) for UART_Init(LPC_UART_TypeDef*, UART_CFG_Type*)
    ulib.o(i._Z12nrk_gpio_clrj) refers to ulib.o(i._Z15GPIO_ClearValuehj) for GPIO_ClearValue(unsigned char, unsigned)
    ulib.o(i._Z12nrk_gpio_geth) refers to ulib.o(i._Z14GPIO_ReadValueh) for GPIO_ReadValue(unsigned char)
    ulib.o(i._Z12nrk_gpio_setj) refers to ulib.o(i._Z13GPIO_SetValuehj) for GPIO_SetValue(unsigned char, unsigned)
    ulib.o(i._Z12setupSPIPinsv) refers to ulib.o(i._Z16PINSEL_ConfigPinP15PINSEL_CFG_Type) for PINSEL_ConfigPin(PINSEL_CFG_Type*)
    ulib.o(i._Z13GPIO_SetValuehj) refers to ulib.o(i._Z15GPIO_GetPointerh) for GPIO_GetPointer(unsigned char)
    ulib.o(i._Z14CLKPWR_GetPCLKj) refers to ulib.o(i._Z17CLKPWR_GetPCLKSELj) for CLKPWR_GetPCLKSEL(unsigned)
    ulib.o(i._Z14CLKPWR_GetPCLKj) refers to system_LPC17xx.o(.data) for SystemCoreClock
    ulib.o(i._Z14GPIO_ReadValueh) refers to ulib.o(i._Z15GPIO_GetPointerh) for GPIO_GetPointer(unsigned char)
    ulib.o(i._Z14nrk_led_togglei) refers to ulib.o(i._Z15nrk_gpio_togglej) for nrk_gpio_toggle(unsigned)
    ulib.o(i._Z14nrk_setup_uartj) refers to ulib.o(i._Z11setup_uart3j) for setup_uart3(unsigned)
    ulib.o(i._Z14setup_uartPinsv) refers to ulib.o(i._Z16PINSEL_ConfigPinP15PINSEL_CFG_Type) for PINSEL_ConfigPin(PINSEL_CFG_Type*)
    ulib.o(i._Z15GPIO_ClearValuehj) refers to ulib.o(i._Z15GPIO_GetPointerh) for GPIO_GetPointer(unsigned char)
    ulib.o(i._Z15nrk_gpio_togglej) refers to ulib.o(i._Z11GPIO_Togglehj) for GPIO_Toggle(unsigned char, unsigned)
    ulib.o(i._Z15nrk_setup_portsv) refers to ulib.o(i._Z9PORT_INITv) for PORT_INIT()
    ulib.o(i._Z16PINSEL_ConfigPinP15PINSEL_CFG_Type) refers to ulib.o(i._Z11set_PinFunchhh) for set_PinFunc(unsigned char, unsigned char, unsigned char)
    ulib.o(i._Z16PINSEL_ConfigPinP15PINSEL_CFG_Type) refers to ulib.o(i._Z16set_ResistorModehhh) for set_ResistorMode(unsigned char, unsigned char, unsigned char)
    ulib.o(i._Z16PINSEL_ConfigPinP15PINSEL_CFG_Type) refers to ulib.o(i._Z17set_OpenDrainModehhh) for set_OpenDrainMode(unsigned char, unsigned char, unsigned char)
    ulib.o(i._Z17uart_set_divisorsP16LPC_UART_TypeDefj) refers to ulib.o(i._Z14CLKPWR_GetPCLKj) for CLKPWR_GetPCLK(unsigned)
    ulib.o(i._Z17uart_set_divisorsP16LPC_UART_TypeDefj) refers to lludivv7m.o(.text) for __aeabi_uldivmod
    ulib.o(i._Z18nrk_gpio_directionjh) refers to ulib.o(i._Z11GPIO_SetDirhjh) for GPIO_SetDir(unsigned char, unsigned, unsigned char)
    ulib.o(i._Z7initLEDv) refers to ulib.o(i._Z16PINSEL_ConfigPinP15PINSEL_CFG_Type) for PINSEL_ConfigPin(PINSEL_CFG_Type*)
    ulib.o(i._Z7initLEDv) refers to ulib.o(i._Z11GPIO_SetDirhjh) for GPIO_SetDir(unsigned char, unsigned, unsigned char)
    ulib.o(i._Z7initLEDv) refers to ulib.o(i._Z15GPIO_ClearValuehj) for GPIO_ClearValue(unsigned char, unsigned)
    ulib.o(i._Z9PORT_INITv) refers to ulib.o(i._Z7initLEDv) for initLED()
    ulib.o(i._Z9PORT_INITv) refers to ulib.o(i._Z9initDEBUGv) for initDEBUG()
    ulib.o(i._Z9PORT_INITv) refers to ulib.o(i._Z12setupSPIPinsv) for setupSPIPins()
    ulib.o(i._Z9PORT_INITv) refers to ulib.o(i._Z14setup_uartPinsv) for setup_uartPins()
    ulib.o(i._Z9UART_InitP16LPC_UART_TypeDefP13UART_CFG_Type) refers to ulib.o(i._Z17uart_set_divisorsP16LPC_UART_TypeDefj) for uart_set_divisors(LPC_UART_TypeDef*, unsigned)
    ulib.o(i._Z9initDEBUGv) refers to ulib.o(i._Z16PINSEL_ConfigPinP15PINSEL_CFG_Type) for PINSEL_ConfigPin(PINSEL_CFG_Type*)
    ulib.o(i._Z9initDEBUGv) refers to ulib.o(i._Z11GPIO_SetDirhjh) for GPIO_SetDir(unsigned char, unsigned, unsigned char)
    ulib.o(i._Z9initDEBUGv) refers to ulib.o(i._Z15GPIO_ClearValuehj) for GPIO_ClearValue(unsigned char, unsigned)
    ulib.o(.ARM.exidx) refers to ulib.o(i._Z22nrk_uart_rx_signal_getv) for i._Z22nrk_uart_rx_signal_getv
    ulib.o(.ARM.exidx) refers to ulib.o(i._Z19nrk_uart_data_readyh) for i._Z19nrk_uart_data_readyh
    ulib.o(.ARM.exidx) refers to ulib.o(i._Z5getc3v) for i._Z5getc3v
    ulib.o(.ARM.exidx) refers to ulib.o(i._Z11nrk_kprintfPKc) for i._Z11nrk_kprintfPKc
    ulib.o(.ARM.exidx) refers to ulib.o(i._Z17set_OpenDrainModehhh) for i._Z17set_OpenDrainModehhh
    ulib.o(.ARM.exidx) refers to ulib.o(i._Z16set_ResistorModehhh) for i._Z16set_ResistorModehhh
    ulib.o(.ARM.exidx) refers to ulib.o(i._Z11set_PinFunchhh) for i._Z11set_PinFunchhh
    ulib.o(.ARM.exidx) refers to ulib.o(i._Z16PINSEL_ConfigPinP15PINSEL_CFG_Type) for i._Z16PINSEL_ConfigPinP15PINSEL_CFG_Type
    ulib.o(.ARM.exidx) refers to ulib.o(i._Z14setup_uartPinsv) for i._Z14setup_uartPinsv
    ulib.o(.ARM.exidx) refers to ulib.o(i._Z12setupSPIPinsv) for i._Z12setupSPIPinsv
    ulib.o(.ARM.exidx) refers to ulib.o(i._Z15GPIO_GetPointerh) for i._Z15GPIO_GetPointerh
    ulib.o(.ARM.exidx) refers to ulib.o(i._Z15GPIO_ClearValuehj) for i._Z15GPIO_ClearValuehj
    ulib.o(.ARM.exidx) refers to ulib.o(i._Z11GPIO_SetDirhjh) for i._Z11GPIO_SetDirhjh
    ulib.o(.ARM.exidx) refers to ulib.o(i._Z9initDEBUGv) for i._Z9initDEBUGv
    ulib.o(.ARM.exidx) refers to ulib.o(i._Z7initLEDv) for i._Z7initLEDv
    ulib.o(.ARM.exidx) refers to ulib.o(i._Z9PORT_INITv) for i._Z9PORT_INITv
    ulib.o(.ARM.exidx) refers to ulib.o(i._Z15nrk_setup_portsv) for i._Z15nrk_setup_portsv
    ulib.o(.ARM.exidx) refers to ulib.o(i._Z13GPIO_SetValuehj) for i._Z13GPIO_SetValuehj
    ulib.o(.ARM.exidx) refers to ulib.o(i._Z14GPIO_ReadValueh) for i._Z14GPIO_ReadValueh
    ulib.o(.ARM.exidx) refers to ulib.o(i._Z11GPIO_Togglehj) for i._Z11GPIO_Togglehj
    ulib.o(.ARM.exidx) refers to ulib.o(i._Z12nrk_gpio_setj) for i._Z12nrk_gpio_setj
    ulib.o(.ARM.exidx) refers to ulib.o(i._Z12nrk_gpio_clrj) for i._Z12nrk_gpio_clrj
    ulib.o(.ARM.exidx) refers to ulib.o(i._Z12nrk_gpio_geth) for i._Z12nrk_gpio_geth
    ulib.o(.ARM.exidx) refers to ulib.o(i._Z15nrk_gpio_togglej) for i._Z15nrk_gpio_togglej
    ulib.o(.ARM.exidx) refers to ulib.o(i._Z18nrk_gpio_directionjh) for i._Z18nrk_gpio_directionjh
    ulib.o(.ARM.exidx) refers to ulib.o(i._Z14nrk_get_buttonh) for i._Z14nrk_get_buttonh
    ulib.o(.ARM.exidx) refers to ulib.o(i._Z14nrk_led_togglei) for i._Z14nrk_led_togglei
    ulib.o(.ARM.exidx) refers to ulib.o(i._Z11nrk_led_seti) for i._Z11nrk_led_seti
    ulib.o(.ARM.exidx) refers to ulib.o(i._Z11nrk_led_clri) for i._Z11nrk_led_clri
    ulib.o(.ARM.exidx) refers to ulib.o(i._Z16nrk_gpio_pullupsh) for i._Z16nrk_gpio_pullupsh
    ulib.o(.ARM.exidx) refers to ulib.o(i._Z5putc2c) for i._Z5putc2c
    ulib.o(.ARM.exidx) refers to ulib.o(i._Z5putc3c) for i._Z5putc3c
    ulib.o(.ARM.exidx) refers to ulib.o(i._Z17CLKPWR_GetPCLKSELj) for i._Z17CLKPWR_GetPCLKSELj
    ulib.o(.ARM.exidx) refers to ulib.o(i._Z14CLKPWR_GetPCLKj) for i._Z14CLKPWR_GetPCLKj
    ulib.o(.ARM.exidx) refers to ulib.o(i._Z17uart_set_divisorsP16LPC_UART_TypeDefj) for i._Z17uart_set_divisorsP16LPC_UART_TypeDefj
    ulib.o(.ARM.exidx) refers to ulib.o(i._Z9UART_InitP16LPC_UART_TypeDefP13UART_CFG_Type) for i._Z9UART_InitP16LPC_UART_TypeDefP13UART_CFG_Type
    ulib.o(.ARM.exidx) refers to ulib.o(i._Z21UART_ConfigStructInitP13UART_CFG_Type) for i._Z21UART_ConfigStructInitP13UART_CFG_Type
    ulib.o(.ARM.exidx) refers to ulib.o(i._Z11setup_uart3j) for i._Z11setup_uart3j
    ulib.o(.ARM.exidx) refers to ulib.o(i._Z11setup_uart2t) for i._Z11setup_uart2t
    ulib.o(.ARM.exidx) refers to ulib.o(i._Z14nrk_setup_uartj) for i._Z14nrk_setup_uartj
    ulib.o(.ARM.exidx) refers to ulib.o(i._Z5getc2v) for i._Z5getc2v
    nrk_cpu.o(i._Z16nrk_target_startv) refers to nrk_timer.o(i._Z16_nrk_setup_timerv) for _nrk_setup_timer()
    nrk_cpu.o(i._Z16nrk_task_set_stkP9task_typePjt) refers to nrk_error.o(i._Z13nrk_error_addh) for nrk_error_add(unsigned char)
    nrk_cpu.o(i._Z22nrk_stack_pointer_initv) refers to nrk.o(.bss) for nrk_kernel_stk
    nrk_cpu.o(i._Z22nrk_stack_pointer_initv) refers to nrk.o(.data) for nrk_kernel_stk_ptr
    nrk_cpu.o(i._Z22nrk_stack_pointer_initv) refers to nrk.o(i._nrk_timer_tick) for _nrk_timer_tick
    nrk_cpu.o(i._Z25nrk_stack_pointer_restorev) refers to nrk.o(.bss) for nrk_kernel_stk
    nrk_cpu.o(i._Z25nrk_stack_pointer_restorev) refers to nrk.o(i._nrk_timer_tick) for _nrk_timer_tick
    nrk_cpu.o(i._Z25nrk_stack_pointer_restorev) refers to nrk.o(.data) for nrk_kernel_stk_ptr
    nrk_cpu.o(.ARM.exidx) refers to nrk_cpu.o(i._Z16nrk_battery_savev) for i._Z16nrk_battery_savev
    nrk_cpu.o(.ARM.exidx) refers to nrk_cpu.o(i._Z9nrk_sleepv) for i._Z9nrk_sleepv
    nrk_cpu.o(.ARM.exidx) refers to nrk_cpu.o(i._Z8nrk_idlev) for i._Z8nrk_idlev
    nrk_cpu.o(.ARM.exidx) refers to nrk_cpu.o(i._Z27nrk_task_set_entry_functionP9task_typePFvvE) for i._Z27nrk_task_set_entry_functionP9task_typePFvvE
    nrk_cpu.o(.ARM.exidx) refers to nrk_cpu.o(i._Z16nrk_task_set_stkP9task_typePjt) for i._Z16nrk_task_set_stkP9task_typePjt
    nrk_cpu.o(.ARM.exidx) refers to nrk_cpu.o(i._Z17nrk_task_stk_initPFvvEPjS1_) for i._Z17nrk_task_stk_initPFvvEPjS1_
    nrk_cpu.o(.ARM.exidx) refers to nrk_cpu.o(i._Z22nrk_stack_pointer_initv) for i._Z22nrk_stack_pointer_initv
    nrk_cpu.o(.ARM.exidx) refers to nrk_cpu.o(i._Z25nrk_stack_pointer_restorev) for i._Z25nrk_stack_pointer_restorev
    nrk_cpu.o(.ARM.exidx) refers to nrk_cpu.o(i._Z16nrk_target_startv) for i._Z16nrk_target_startv
    nrk_ext_int.o(.ARM.exidx) refers to nrk_ext_int.o(i._Z18nrk_ext_int_enableh) for i._Z18nrk_ext_int_enableh
    nrk_ext_int.o(.ARM.exidx) refers to nrk_ext_int.o(i._Z19nrk_ext_int_disableh) for i._Z19nrk_ext_int_disableh
    nrk_ext_int.o(.ARM.exidx) refers to nrk_ext_int.o(i._Z21nrk_ext_int_configurehhPv) for i._Z21nrk_ext_int_configurehhPv
    nrk_status.o(.ARM.exidx) refers to nrk_status.o(i._Z18_nrk_startup_errorv) for i._Z18_nrk_startup_errorv
    nrk_timer.o(i.TIMER0_IRQHandler) refers to my_asm.o(.text) for _swap
    nrk_timer.o(i._Z16_nrk_setup_timerv) refers to nrk_timer.o(i._Z14NVIC_EnableIRQ4IRQn) for NVIC_EnableIRQ(IRQn)
    nrk_timer.o(i._Z16_nrk_setup_timerv) refers to nrk_timer.o(i._Z19_nrk_os_timer_resetv) for _nrk_os_timer_reset()
    nrk_timer.o(i._Z16_nrk_setup_timerv) refers to nrk_timer.o(i._Z19_nrk_os_timer_startv) for _nrk_os_timer_start()
    nrk_timer.o(i._Z16_nrk_setup_timerv) refers to nrk_timer.o(.data) for .data
    nrk_timer.o(i._Z16nrk_spin_wait_usj) refers to wait_api.c.lpc1768.arm.o(i.wait_us) for wait_us
    nrk_timer.o(i._Z19_nrk_os_timer_resetv) refers to nrk_timer.o(.data) for .data
    nrk_timer.o(i._Z25nrk_high_speed_timer_waittt) refers to nrk_timer.o(i._Z25_nrk_high_speed_timer_getv) for _nrk_high_speed_timer_get()
    nrk_timer.o(.ARM.exidx) refers to nrk_timer.o(i._Z16nrk_spin_wait_usj) for i._Z16nrk_spin_wait_usj
    nrk_timer.o(.ARM.exidx) refers to nrk_timer.o(i._Z19_nrk_os_timer_startv) for i._Z19_nrk_os_timer_startv
    nrk_timer.o(.ARM.exidx) refers to nrk_timer.o(i._Z19_nrk_os_timer_resetv) for i._Z19_nrk_os_timer_resetv
    nrk_timer.o(.ARM.exidx) refers to nrk_timer.o(i._Z16_nrk_setup_timerv) for i._Z16_nrk_setup_timerv
    nrk_timer.o(.ARM.exidx) refers to nrk_timer.o(i._Z26_nrk_high_speed_timer_stopv) for i._Z26_nrk_high_speed_timer_stopv
    nrk_timer.o(.ARM.exidx) refers to nrk_timer.o(i._Z27_nrk_high_speed_timer_startv) for i._Z27_nrk_high_speed_timer_startv
    nrk_timer.o(.ARM.exidx) refers to nrk_timer.o(i._Z27_nrk_high_speed_timer_resetv) for i._Z27_nrk_high_speed_timer_resetv
    nrk_timer.o(.ARM.exidx) refers to nrk_timer.o(i._Z25_nrk_high_speed_timer_getv) for i._Z25_nrk_high_speed_timer_getv
    nrk_timer.o(.ARM.exidx) refers to nrk_timer.o(i._Z25nrk_high_speed_timer_waittt) for i._Z25nrk_high_speed_timer_waittt
    nrk_timer.o(.ARM.exidx) refers to nrk_timer.o(i._Z18_nrk_os_timer_stopv) for i._Z18_nrk_os_timer_stopv
    nrk_timer.o(.ARM.exidx) refers to nrk_timer.o(i._Z17_nrk_os_timer_seth) for i._Z17_nrk_os_timer_seth
    nrk_timer.o(.ARM.exidx) refers to nrk_timer.o(i._Z20_nrk_get_next_wakeupv) for i._Z20_nrk_get_next_wakeupv
    nrk_timer.o(.ARM.exidx) refers to nrk_timer.o(i._Z20_nrk_set_next_wakeuph) for i._Z20_nrk_set_next_wakeuph
    nrk_timer.o(.ARM.exidx) refers to nrk_timer.o(i._Z18nrk_timer_int_stoph) for i._Z18nrk_timer_int_stoph
    nrk_timer.o(.ARM.exidx) refers to nrk_timer.o(i._Z19nrk_timer_int_reseth) for i._Z19nrk_timer_int_reseth
    nrk_timer.o(.ARM.exidx) refers to nrk_timer.o(i._Z18nrk_timer_int_readh) for i._Z18nrk_timer_int_readh
    nrk_timer.o(.ARM.exidx) refers to nrk_timer.o(i._Z19nrk_timer_int_starth) for i._Z19nrk_timer_int_starth
    nrk_timer.o(.ARM.exidx) refers to nrk_timer.o(i._Z23nrk_timer_int_configurehttPv) for i._Z23nrk_timer_int_configurehttPv
    nrk_timer.o(.ARM.exidx) refers to nrk_timer.o(i._Z17_nrk_os_timer_getv) for i._Z17_nrk_os_timer_getv
    nrk_timer.o(.ARM.exidx) refers to nrk_timer.o(i.TIMER0_IRQHandler) for i.TIMER0_IRQHandler
    nrk_timer.o(.ARM.exidx) refers to nrk_timer.o(i.TIMER1_IRQHandler) for i.TIMER1_IRQHandler
    nrk_timer.o(.ARM.exidx) refers to nrk_timer.o(i._Z14NVIC_EnableIRQ4IRQn) for i._Z14NVIC_EnableIRQ4IRQn
    nrk_watchdog.o(i._Z19nrk_watchdog_enablev) refers to fflt_clz.o(x$fpl$ffltu) for __aeabi_ui2f
    nrk_watchdog.o(i._Z19nrk_watchdog_enablev) refers to fmul.o(x$fpl$fmul) for __aeabi_fmul
    nrk_watchdog.o(i._Z19nrk_watchdog_enablev) refers to ffixu.o(x$fpl$ffixu) for __aeabi_f2uiz
    nrk_watchdog.o(i._Z19nrk_watchdog_enablev) refers to system_LPC17xx.o(.data) for SystemCoreClock
    nrk_watchdog.o(.ARM.exidx) refers to nrk_watchdog.o(i._Z20nrk_watchdog_disablev) for i._Z20nrk_watchdog_disablev
    nrk_watchdog.o(.ARM.exidx) refers to nrk_watchdog.o(i._Z19nrk_watchdog_enablev) for i._Z19nrk_watchdog_enablev
    nrk_watchdog.o(.ARM.exidx) refers to nrk_watchdog.o(i._Z18nrk_watchdog_checkv) for i._Z18nrk_watchdog_checkv
    nrk.o(i._Z12nrk_TCB_initP9task_typePjS1_tPvt) refers to nrk_error.o(i._Z20nrk_kernel_error_addhh) for nrk_kernel_error_add(unsigned char, unsigned char)
    nrk.o(i._Z12nrk_TCB_initP9task_typePjS1_tPvt) refers to nrk_time.o(i._Z18_nrk_time_to_ticksP10nrk_time_t) for _nrk_time_to_ticks(nrk_time_t*)
    nrk.o(i._Z12nrk_TCB_initP9task_typePjS1_tPvt) refers to nrk.o(.data) for .data
    nrk.o(i._Z12nrk_TCB_initP9task_typePjS1_tPvt) refers to nrk.o(.bss) for .bss
    nrk.o(i._Z8nrk_initv) refers to nrk_cpu.o(i._Z27nrk_task_set_entry_functionP9task_typePFvvE) for nrk_task_set_entry_function(task_type*, void(*)())
    nrk.o(i._Z8nrk_initv) refers to nrk_cpu.o(i._Z16nrk_task_set_stkP9task_typePjt) for nrk_task_set_stk(task_type*, unsigned*, unsigned short)
    nrk.o(i._Z8nrk_initv) refers to nrk_task.o(i._Z17nrk_activate_taskP9task_type) for nrk_activate_task(task_type*)
    nrk.o(i._Z8nrk_initv) refers to nrk.o(.data) for .data
    nrk.o(i._Z8nrk_initv) refers to nrk.o(.bss) for .bss
    nrk.o(i._Z8nrk_initv) refers to nrk_idle_task.o(i._Z13nrk_idle_taskv) for nrk_idle_task()
    nrk.o(i._Z9nrk_startv) refers to nrk_error.o(i._Z20nrk_kernel_error_addhh) for nrk_kernel_error_add(unsigned char, unsigned char)
    nrk.o(i._Z9nrk_startv) refers to nrk_task.o(i._Z26nrk_get_high_ready_task_IDv) for nrk_get_high_ready_task_ID()
    nrk.o(i._Z9nrk_startv) refers to nrk_cpu.o(i._Z16nrk_target_startv) for nrk_target_start()
    nrk.o(i._Z9nrk_startv) refers to nrk_cpu.o(i._Z22nrk_stack_pointer_initv) for nrk_stack_pointer_init()
    nrk.o(i._Z9nrk_startv) refers to my_asm.o(.text) for nrk_start_high_ready_task
    nrk.o(i._Z9nrk_startv) refers to nrk.o(.bss) for .bss
    nrk.o(i._Z9nrk_startv) refers to nrk.o(.data) for .data
    nrk.o(i._Z9nrk_startv) refers to nrk_scheduler.o(.data) for task_addr
    nrk.o(i._nrk_timer_tick) refers to nrk_scheduler.o(i._Z14_nrk_schedulerv) for _nrk_scheduler()
    nrk.o(.ARM.exidx) refers to nrk.o(i._Z15nrk_int_disablev) for i._Z15nrk_int_disablev
    nrk.o(.ARM.exidx) refers to nrk.o(i._Z14nrk_int_enablev) for i._Z14nrk_int_enablev
    nrk.o(.ARM.exidx) refers to nrk.o(i._Z8nrk_haltv) for i._Z8nrk_haltv
    nrk.o(.ARM.exidx) refers to nrk.o(i._Z8nrk_initv) for i._Z8nrk_initv
    nrk.o(.ARM.exidx) refers to nrk.o(i._Z9nrk_startv) for i._Z9nrk_startv
    nrk.o(.ARM.exidx) refers to nrk.o(i._Z12nrk_TCB_initP9task_typePjS1_tPvt) for i._Z12nrk_TCB_initP9task_typePjS1_tPvt
    nrk.o(.ARM.exidx) refers to nrk.o(i._nrk_timer_tick) for i._nrk_timer_tick
    nrk.o(.ARM.exidx) refers to nrk.o(i._Z11nrk_versionv) for i._Z11nrk_versionv
    nrk_driver.o(i._Z14nrk_get_statushh) refers to nrk_error.o(i._Z14_nrk_errno_seth) for _nrk_errno_set(unsigned char)
    nrk_driver.o(i._Z14nrk_get_statushh) refers to nrk_driver.o(.data) for .data
    nrk_driver.o(i._Z14nrk_set_statushhh) refers to nrk_error.o(i._Z14_nrk_errno_seth) for _nrk_errno_set(unsigned char)
    nrk_driver.o(i._Z14nrk_set_statushhh) refers to nrk_driver.o(.data) for .data
    nrk_driver.o(i._Z19nrk_register_driverPFhhhPhhEh) refers to nrk_driver.o(.data) for .data
    nrk_driver.o(i._Z8nrk_openhh) refers to nrk_driver.o(.data) for .data
    nrk_driver.o(i._Z8nrk_readhPhh) refers to nrk_error.o(i._Z14_nrk_errno_seth) for _nrk_errno_set(unsigned char)
    nrk_driver.o(i._Z8nrk_readhPhh) refers to nrk_driver.o(.data) for .data
    nrk_driver.o(i._Z9nrk_closeh) refers to nrk_error.o(i._Z14_nrk_errno_seth) for _nrk_errno_set(unsigned char)
    nrk_driver.o(i._Z9nrk_closeh) refers to nrk_driver.o(.data) for .data
    nrk_driver.o(i._Z9nrk_writehPhh) refers to nrk_error.o(i._Z14_nrk_errno_seth) for _nrk_errno_set(unsigned char)
    nrk_driver.o(i._Z9nrk_writehPhh) refers to nrk_driver.o(.data) for .data
    nrk_driver.o(.ARM.exidx) refers to nrk_driver.o(i._Z19nrk_register_driverPFhhhPhhEh) for i._Z19nrk_register_driverPFhhhPhhEh
    nrk_driver.o(.ARM.exidx) refers to nrk_driver.o(i._Z8nrk_openhh) for i._Z8nrk_openhh
    nrk_driver.o(.ARM.exidx) refers to nrk_driver.o(i._Z9nrk_closeh) for i._Z9nrk_closeh
    nrk_driver.o(.ARM.exidx) refers to nrk_driver.o(i._Z9nrk_writehPhh) for i._Z9nrk_writehPhh
    nrk_driver.o(.ARM.exidx) refers to nrk_driver.o(i._Z8nrk_readhPhh) for i._Z8nrk_readhPhh
    nrk_driver.o(.ARM.exidx) refers to nrk_driver.o(i._Z14nrk_set_statushhh) for i._Z14nrk_set_statushhh
    nrk_driver.o(.ARM.exidx) refers to nrk_driver.o(i._Z14nrk_get_statushh) for i._Z14nrk_get_statushh
    nrk_error.o(i._Z10blink_dashv) refers to ulib.o(i._Z11nrk_led_seti) for nrk_led_set(int)
    nrk_error.o(i._Z10blink_dashv) refers to nrk_error.o(i._Z5pausev) for pause()
    nrk_error.o(i._Z10blink_dashv) refers to ulib.o(i._Z11nrk_led_clri) for nrk_led_clr(int)
    nrk_error.o(i._Z13nrk_errno_getv) refers to nrk.o(.data) for nrk_cur_task_TCB
    nrk_error.o(i._Z13nrk_error_addh) refers to nrk_error.o(.data) for .data
    nrk_error.o(i._Z13nrk_error_addh) refers to nrk.o(.data) for nrk_cur_task_TCB
    nrk_error.o(i._Z13nrk_error_getPhS_) refers to nrk_error.o(.data) for .data
    nrk_error.o(i._Z14_nrk_errno_seth) refers to nrk.o(.data) for nrk_cur_task_TCB
    nrk_error.o(i._Z15nrk_error_printv) refers to _printf_percent.o(.ARM.Collect$$_printf_percent$$00000000) for _printf_percent
    nrk_error.o(i._Z15nrk_error_printv) refers to _printf_d.o(.ARM.Collect$$_printf_percent$$00000009) for _printf_d
    nrk_error.o(i._Z15nrk_error_printv) refers to _printf_dec.o(.text) for _printf_int_dec
    nrk_error.o(i._Z15nrk_error_printv) refers to nrk.o(i._Z15nrk_int_disablev) for nrk_int_disable()
    nrk_error.o(i._Z15nrk_error_printv) refers to ulib.o(i._Z11nrk_kprintfPKc) for nrk_kprintf(const char*)
    nrk_error.o(i._Z15nrk_error_printv) refers to __2printf.o(.text) for __2printf
    nrk_error.o(i._Z15nrk_error_printv) refers to putc.o(.text) for putc
    nrk_error.o(i._Z15nrk_error_printv) refers to nrk_error.o(.data) for .data
    nrk_error.o(i._Z15nrk_error_printv) refers to stdio_streams.o(.bss) for __stdout
    nrk_error.o(i._Z20nrk_kernel_error_addhh) refers to nrk_error.o(.data) for .data
    nrk_error.o(i._Z22blink_morse_code_errorh) refers to _printf_percent.o(.ARM.Collect$$_printf_percent$$00000000) for _printf_percent
    nrk_error.o(i._Z22blink_morse_code_errorh) refers to _printf_d.o(.ARM.Collect$$_printf_percent$$00000009) for _printf_d
    nrk_error.o(i._Z22blink_morse_code_errorh) refers to _printf_dec.o(.text) for _printf_int_dec
    nrk_error.o(i._Z22blink_morse_code_errorh) refers to __2sprintf.o(.text) for __2sprintf
    nrk_error.o(i._Z22blink_morse_code_errorh) refers to nrk_error.o(i._Z10blink_dashv) for blink_dash()
    nrk_error.o(i._Z22blink_morse_code_errorh) refers to nrk_error.o(i._Z9blink_dotv) for blink_dot()
    nrk_error.o(i._Z22blink_morse_code_errorh) refers to nrk_error.o(i._Z5pausev) for pause()
    nrk_error.o(i._Z22blink_morse_code_errorh) refers to strlen.o(.text) for strlen
    nrk_error.o(i._Z5pausev) refers to nrk_timer.o(i._Z16nrk_spin_wait_usj) for nrk_spin_wait_us(unsigned)
    nrk_error.o(i._Z9blink_dotv) refers to ulib.o(i._Z11nrk_led_seti) for nrk_led_set(int)
    nrk_error.o(i._Z9blink_dotv) refers to nrk_error.o(i._Z5pausev) for pause()
    nrk_error.o(i._Z9blink_dotv) refers to ulib.o(i._Z11nrk_led_clri) for nrk_led_clr(int)
    nrk_error.o(.ARM.exidx) refers to nrk_error.o(i._Z14_nrk_errno_seth) for i._Z14_nrk_errno_seth
    nrk_error.o(.ARM.exidx) refers to nrk_error.o(i._Z13nrk_errno_getv) for i._Z13nrk_errno_getv
    nrk_error.o(.ARM.exidx) refers to nrk_error.o(i._Z13nrk_error_addh) for i._Z13nrk_error_addh
    nrk_error.o(.ARM.exidx) refers to nrk_error.o(i._Z20nrk_kernel_error_addhh) for i._Z20nrk_kernel_error_addhh
    nrk_error.o(.ARM.exidx) refers to nrk_error.o(i._Z13nrk_error_getPhS_) for i._Z13nrk_error_getPhS_
    nrk_error.o(.ARM.exidx) refers to nrk_error.o(i._Z15nrk_error_printv) for i._Z15nrk_error_printv
    nrk_error.o(.ARM.exidx) refers to nrk_error.o(i._Z5pausev) for i._Z5pausev
    nrk_error.o(.ARM.exidx) refers to nrk_error.o(i._Z10blink_dashv) for i._Z10blink_dashv
    nrk_error.o(.ARM.exidx) refers to nrk_error.o(i._Z9blink_dotv) for i._Z9blink_dotv
    nrk_error.o(.ARM.exidx) refers to nrk_error.o(i._Z22blink_morse_code_errorh) for i._Z22blink_morse_code_errorh
    nrk_events.o(i._Z12nrk_sem_pendP14semaphore_type) refers to nrk_events.o(i._Z22nrk_get_resource_indexP14semaphore_type) for nrk_get_resource_index(semaphore_type*)
    nrk_events.o(i._Z12nrk_sem_pendP14semaphore_type) refers to nrk.o(i._Z15nrk_int_disablev) for nrk_int_disable()
    nrk_events.o(i._Z12nrk_sem_pendP14semaphore_type) refers to nrk_error.o(i._Z14_nrk_errno_seth) for _nrk_errno_set(unsigned char)
    nrk_events.o(i._Z12nrk_sem_pendP14semaphore_type) refers to nrk.o(i._Z14nrk_int_enablev) for nrk_int_enable()
    nrk_events.o(i._Z12nrk_sem_pendP14semaphore_type) refers to nrk_task.o(i._Z20nrk_wait_until_tickst) for nrk_wait_until_ticks(unsigned short)
    nrk_events.o(i._Z12nrk_sem_pendP14semaphore_type) refers to nrk.o(.data) for nrk_sem_list
    nrk_events.o(i._Z12nrk_sem_pendP14semaphore_type) refers to nrk.o(.data) for nrk_cur_task_TCB
    nrk_events.o(i._Z12nrk_sem_postP14semaphore_type) refers to nrk_events.o(i._Z22nrk_get_resource_indexP14semaphore_type) for nrk_get_resource_index(semaphore_type*)
    nrk_events.o(i._Z12nrk_sem_postP14semaphore_type) refers to nrk.o(i._Z15nrk_int_disablev) for nrk_int_disable()
    nrk_events.o(i._Z12nrk_sem_postP14semaphore_type) refers to nrk_error.o(i._Z14_nrk_errno_seth) for _nrk_errno_set(unsigned char)
    nrk_events.o(i._Z12nrk_sem_postP14semaphore_type) refers to nrk.o(i._Z14nrk_int_enablev) for nrk_int_enable()
    nrk_events.o(i._Z12nrk_sem_postP14semaphore_type) refers to nrk.o(.data) for nrk_sem_list
    nrk_events.o(i._Z12nrk_sem_postP14semaphore_type) refers to nrk.o(.data) for nrk_cur_task_TCB
    nrk_events.o(i._Z12nrk_sem_postP14semaphore_type) refers to nrk.o(.bss) for nrk_task_TCB
    nrk_events.o(i._Z13nrk_sem_queryP14semaphore_type) refers to nrk_events.o(i._Z22nrk_get_resource_indexP14semaphore_type) for nrk_get_resource_index(semaphore_type*)
    nrk_events.o(i._Z13nrk_sem_queryP14semaphore_type) refers to nrk_error.o(i._Z14_nrk_errno_seth) for _nrk_errno_set(unsigned char)
    nrk_events.o(i._Z13nrk_sem_queryP14semaphore_type) refers to nrk.o(.data) for nrk_sem_list
    nrk_events.o(i._Z14nrk_event_waitj) refers to nrk_task.o(i._Z17nrk_wait_until_nwv) for nrk_wait_until_nw()
    nrk_events.o(i._Z14nrk_event_waitj) refers to nrk_task.o(i._Z20nrk_wait_until_tickst) for nrk_wait_until_ticks(unsigned short)
    nrk_events.o(i._Z14nrk_event_waitj) refers to nrk.o(.data) for nrk_cur_task_TCB
    nrk_events.o(i._Z14nrk_event_waitj) refers to nrk.o(.data) for nrk_wakeup_signal
    nrk_events.o(i._Z14nrk_sem_createhh) refers to nrk.o(.data) for _nrk_resource_cnt
    nrk_events.o(i._Z14nrk_sem_createhh) refers to nrk.o(.data) for nrk_sem_list
    nrk_events.o(i._Z14nrk_sem_deleteP14semaphore_type) refers to nrk_events.o(i._Z22nrk_get_resource_indexP14semaphore_type) for nrk_get_resource_index(semaphore_type*)
    nrk_events.o(i._Z14nrk_sem_deleteP14semaphore_type) refers to nrk_error.o(i._Z14_nrk_errno_seth) for _nrk_errno_set(unsigned char)
    nrk_events.o(i._Z14nrk_sem_deleteP14semaphore_type) refers to nrk.o(.data) for nrk_sem_list
    nrk_events.o(i._Z14nrk_sem_deleteP14semaphore_type) refers to nrk.o(.data) for _nrk_resource_cnt
    nrk_events.o(i._Z16nrk_event_signala) refers to nrk.o(i._Z15nrk_int_disablev) for nrk_int_disable()
    nrk_events.o(i._Z16nrk_event_signala) refers to nrk.o(i._Z14nrk_int_enablev) for nrk_int_enable()
    nrk_events.o(i._Z16nrk_event_signala) refers to nrk_error.o(i._Z14_nrk_errno_seth) for _nrk_errno_set(unsigned char)
    nrk_events.o(i._Z16nrk_event_signala) refers to nrk_events.o(.data) for .data
    nrk_events.o(i._Z16nrk_event_signala) refers to nrk.o(.bss) for nrk_task_TCB
    nrk_events.o(i._Z17nrk_signal_createv) refers to nrk_events.o(.data) for .data
    nrk_events.o(i._Z17nrk_signal_deletea) refers to nrk.o(i._Z15nrk_int_disablev) for nrk_int_disable()
    nrk_events.o(i._Z17nrk_signal_deletea) refers to nrk.o(i._Z14nrk_int_enablev) for nrk_int_enable()
    nrk_events.o(i._Z17nrk_signal_deletea) refers to nrk_events.o(.data) for .data
    nrk_events.o(i._Z17nrk_signal_deletea) refers to nrk.o(.bss) for nrk_task_TCB
    nrk_events.o(i._Z19nrk_signal_registera) refers to nrk_events.o(.data) for .data
    nrk_events.o(i._Z19nrk_signal_registera) refers to nrk.o(.data) for nrk_cur_task_TCB
    nrk_events.o(i._Z21nrk_signal_unregistera) refers to nrk.o(.data) for nrk_cur_task_TCB
    nrk_events.o(i._Z22nrk_get_resource_indexP14semaphore_type) refers to nrk.o(.data) for nrk_sem_list
    nrk_events.o(i._Z30nrk_signal_get_registered_maskv) refers to nrk.o(.data) for nrk_cur_task_TCB
    nrk_events.o(.ARM.exidx) refers to nrk_events.o(i._Z17nrk_signal_createv) for i._Z17nrk_signal_createv
    nrk_events.o(.ARM.exidx) refers to nrk_events.o(i._Z30nrk_signal_get_registered_maskv) for i._Z30nrk_signal_get_registered_maskv
    nrk_events.o(.ARM.exidx) refers to nrk_events.o(i._Z17nrk_signal_deletea) for i._Z17nrk_signal_deletea
    nrk_events.o(.ARM.exidx) refers to nrk_events.o(i._Z21nrk_signal_unregistera) for i._Z21nrk_signal_unregistera
    nrk_events.o(.ARM.exidx) refers to nrk_events.o(i._Z19nrk_signal_registera) for i._Z19nrk_signal_registera
    nrk_events.o(.ARM.exidx) refers to nrk_events.o(i._Z16nrk_event_signala) for i._Z16nrk_event_signala
    nrk_events.o(.ARM.exidx) refers to nrk_events.o(i._Z14nrk_event_waitj) for i._Z14nrk_event_waitj
    nrk_events.o(.ARM.exidx) refers to nrk_events.o(i._Z22nrk_get_resource_indexP14semaphore_type) for i._Z22nrk_get_resource_indexP14semaphore_type
    nrk_events.o(.ARM.exidx) refers to nrk_events.o(i._Z13nrk_sem_queryP14semaphore_type) for i._Z13nrk_sem_queryP14semaphore_type
    nrk_events.o(.ARM.exidx) refers to nrk_events.o(i._Z12nrk_sem_pendP14semaphore_type) for i._Z12nrk_sem_pendP14semaphore_type
    nrk_events.o(.ARM.exidx) refers to nrk_events.o(i._Z12nrk_sem_postP14semaphore_type) for i._Z12nrk_sem_postP14semaphore_type
    nrk_events.o(.ARM.exidx) refers to nrk_events.o(i._Z14nrk_sem_deleteP14semaphore_type) for i._Z14nrk_sem_deleteP14semaphore_type
    nrk_events.o(.ARM.exidx) refers to nrk_events.o(i._Z14nrk_sem_createhh) for i._Z14nrk_sem_createhh
    nrk_idle_task.o(i._Z13nrk_idle_taskv) refers to nrk_timer.o(i._Z20_nrk_get_next_wakeupv) for _nrk_get_next_wakeup()
    nrk_idle_task.o(i._Z13nrk_idle_taskv) refers to nrk_scheduler.o(.data) for _nrk_cpu_state
    nrk_idle_task.o(.ARM.exidx) refers to nrk_idle_task.o(i._Z13nrk_idle_taskv) for i._Z13nrk_idle_taskv
    nrk_scheduler.o(i._Z14_nrk_schedulerv) refers to nrk.o(i._Z15nrk_int_disablev) for nrk_int_disable()
    nrk_scheduler.o(i._Z14_nrk_schedulerv) refers to nrk_timer.o(i._Z27_nrk_high_speed_timer_resetv) for _nrk_high_speed_timer_reset()
    nrk_scheduler.o(i._Z14_nrk_schedulerv) refers to nrk_timer.o(i._Z25_nrk_high_speed_timer_getv) for _nrk_high_speed_timer_get()
    nrk_scheduler.o(i._Z14_nrk_schedulerv) refers to nrk_timer.o(i._Z20_nrk_set_next_wakeuph) for _nrk_set_next_wakeup(unsigned char)
    nrk_scheduler.o(i._Z14_nrk_schedulerv) refers to nrk_task.o(i._Z19nrk_rem_from_readyQa) for nrk_rem_from_readyQ(signed char)
    nrk_scheduler.o(i._Z14_nrk_schedulerv) refers to nrk_error.o(i._Z20nrk_kernel_error_addhh) for nrk_kernel_error_add(unsigned char, unsigned char)
    nrk_scheduler.o(i._Z14_nrk_schedulerv) refers to nrk_task.o(i._Z17nrk_add_to_readyQa) for nrk_add_to_readyQ(signed char)
    nrk_scheduler.o(i._Z14_nrk_schedulerv) refers to nrk_task.o(i._Z26nrk_get_high_ready_task_IDv) for nrk_get_high_ready_task_ID()
    nrk_scheduler.o(i._Z14_nrk_schedulerv) refers to nrk_timer.o(i._Z17_nrk_os_timer_getv) for _nrk_os_timer_get()
    nrk_scheduler.o(i._Z14_nrk_schedulerv) refers to nrk_timer.o(i._Z25nrk_high_speed_timer_waittt) for nrk_high_speed_timer_wait(unsigned short, unsigned short)
    nrk_scheduler.o(i._Z14_nrk_schedulerv) refers to nrk_cpu.o(i._Z25nrk_stack_pointer_restorev) for nrk_stack_pointer_restore()
    nrk_scheduler.o(i._Z14_nrk_schedulerv) refers to my_asm.o(.text) for Switch
    nrk_scheduler.o(i._Z14_nrk_schedulerv) refers to nrk.o(.data) for nrk_system_time
    nrk_scheduler.o(i._Z14_nrk_schedulerv) refers to nrk_timer.o(.data) for _nrk_prev_timer_val
    nrk_scheduler.o(i._Z14_nrk_schedulerv) refers to nrk.o(.data) for nrk_cur_task_TCB
    nrk_scheduler.o(i._Z14_nrk_schedulerv) refers to nrk.o(.bss) for nrk_task_TCB
    nrk_scheduler.o(i._Z14_nrk_schedulerv) refers to nrk.o(.data) for nrk_wakeup_signal
    nrk_scheduler.o(i._Z14_nrk_schedulerv) refers to nrk_scheduler.o(.data) for .data
    nrk_scheduler.o(.ARM.exidx) refers to nrk_scheduler.o(i._Z14_nrk_schedulerv) for i._Z14_nrk_schedulerv
    nrk_stack_check.o(i._Z15dump_stack_infov) refers to _printf_percent.o(.ARM.Collect$$_printf_percent$$00000000) for _printf_percent
    nrk_stack_check.o(i._Z15dump_stack_infov) refers to _printf_d.o(.ARM.Collect$$_printf_percent$$00000009) for _printf_d
    nrk_stack_check.o(i._Z15dump_stack_infov) refers to _printf_dec.o(.text) for _printf_int_dec
    nrk_stack_check.o(i._Z15dump_stack_infov) refers to _printf_x.o(.ARM.Collect$$_printf_percent$$0000000C) for _printf_x
    nrk_stack_check.o(i._Z15dump_stack_infov) refers to _printf_hex_int_ll_ptr.o(.text) for _printf_longlong_hex
    nrk_stack_check.o(i._Z15dump_stack_infov) refers to ulib.o(i._Z11nrk_kprintfPKc) for nrk_kprintf(const char*)
    nrk_stack_check.o(i._Z15dump_stack_infov) refers to __2printf.o(.text) for __2printf
    nrk_stack_check.o(i._Z15dump_stack_infov) refers to nrk.o(.data) for nrk_cur_task_TCB
    nrk_stack_check.o(i._Z15dump_stack_infov) refers to nrk.o(.bss) for nrk_task_TCB
    nrk_stack_check.o(.ARM.exidx) refers to nrk_stack_check.o(i._Z15dump_stack_infov) for i._Z15dump_stack_infov
    nrk_stack_check.o(.ARM.exidx) refers to nrk_stack_check.o(i._Z15nrk_stack_checkv) for i._Z15nrk_stack_checkv
    nrk_stack_check.o(.ARM.exidx) refers to nrk_stack_check.o(i._Z19nrk_stack_check_pida) for i._Z19nrk_stack_check_pida
    nrk_task.o(i._Z11nrk_get_pidv) refers to nrk.o(.data) for nrk_cur_task_TCB
    nrk_task.o(i._Z14nrk_wait_tickst) refers to nrk.o(i._Z15nrk_int_disablev) for nrk_int_disable()
    nrk_task.o(i._Z14nrk_wait_tickst) refers to nrk_timer.o(i._Z17_nrk_os_timer_getv) for _nrk_os_timer_get()
    nrk_task.o(i._Z14nrk_wait_tickst) refers to nrk_timer.o(i._Z20_nrk_get_next_wakeupv) for _nrk_get_next_wakeup()
    nrk_task.o(i._Z14nrk_wait_tickst) refers to nrk_timer.o(i._Z20_nrk_set_next_wakeuph) for _nrk_set_next_wakeup(unsigned char)
    nrk_task.o(i._Z14nrk_wait_tickst) refers to nrk.o(i._Z14nrk_int_enablev) for nrk_int_enable()
    nrk_task.o(i._Z14nrk_wait_tickst) refers to nrk_task.o(i._Z23_nrk_wait_for_schedulerv) for _nrk_wait_for_scheduler()
    nrk_task.o(i._Z14nrk_wait_tickst) refers to nrk.o(.data) for nrk_cur_task_TCB
    nrk_task.o(i._Z14nrk_wait_tickst) refers to nrk_timer.o(.data) for _nrk_prev_timer_val
    nrk_task.o(i._Z14nrk_wait_until10nrk_time_t) refers to nrk_time.o(i._Z12nrk_time_getP10nrk_time_t) for nrk_time_get(nrk_time_t*)
    nrk_task.o(i._Z14nrk_wait_until10nrk_time_t) refers to nrk_time.o(i._Z12nrk_time_subP10nrk_time_tS_S_) for nrk_time_sub(nrk_time_t*, nrk_time_t, nrk_time_t)
    nrk_task.o(i._Z14nrk_wait_until10nrk_time_t) refers to nrk_task.o(i._Z8nrk_wait10nrk_time_t) for nrk_wait(nrk_time_t)
    nrk_task.o(i._Z16nrk_print_readyQv) refers to nrk.o(.data) for _head_node
    nrk_task.o(i._Z17nrk_activate_taskP9task_type) refers to nrk_cpu.o(i._Z17nrk_task_stk_initPFvvEPjS1_) for nrk_task_stk_init(void(*)(), unsigned*, unsigned*)
    nrk_task.o(i._Z17nrk_activate_taskP9task_type) refers to nrk.o(i._Z12nrk_TCB_initP9task_typePjS1_tPvt) for nrk_TCB_init(task_type*, unsigned*, unsigned*, unsigned short, void*, unsigned short)
    nrk_task.o(i._Z17nrk_activate_taskP9task_type) refers to nrk_task.o(i._Z17nrk_add_to_readyQa) for nrk_add_to_readyQ(signed char)
    nrk_task.o(i._Z17nrk_activate_taskP9task_type) refers to nrk.o(.bss) for nrk_task_TCB
    nrk_task.o(i._Z17nrk_add_to_readyQa) refers to nrk.o(.data) for _free_node
    nrk_task.o(i._Z17nrk_add_to_readyQa) refers to nrk.o(.bss) for nrk_task_TCB
    nrk_task.o(i._Z17nrk_wait_until_nwv) refers to nrk.o(i._Z15nrk_int_disablev) for nrk_int_disable()
    nrk_task.o(i._Z17nrk_wait_until_nwv) refers to nrk_timer.o(i._Z17_nrk_os_timer_getv) for _nrk_os_timer_get()
    nrk_task.o(i._Z17nrk_wait_until_nwv) refers to nrk_timer.o(i._Z20_nrk_get_next_wakeupv) for _nrk_get_next_wakeup()
    nrk_task.o(i._Z17nrk_wait_until_nwv) refers to nrk_timer.o(i._Z20_nrk_set_next_wakeuph) for _nrk_set_next_wakeup(unsigned char)
    nrk_task.o(i._Z17nrk_wait_until_nwv) refers to nrk.o(i._Z14nrk_int_enablev) for nrk_int_enable()
    nrk_task.o(i._Z17nrk_wait_until_nwv) refers to nrk_task.o(i._Z23_nrk_wait_for_schedulerv) for _nrk_wait_for_scheduler()
    nrk_task.o(i._Z17nrk_wait_until_nwv) refers to nrk.o(.data) for nrk_cur_task_TCB
    nrk_task.o(i._Z17nrk_wait_until_nwv) refers to nrk_timer.o(.data) for _nrk_prev_timer_val
    nrk_task.o(i._Z18nrk_terminate_taskv) refers to nrk_task.o(i._Z19nrk_rem_from_readyQa) for nrk_rem_from_readyQ(signed char)
    nrk_task.o(i._Z18nrk_terminate_taskv) refers to nrk_task.o(i._Z26nrk_wait_until_next_periodv) for nrk_wait_until_next_period()
    nrk_task.o(i._Z18nrk_terminate_taskv) refers to nrk.o(.data) for nrk_cur_task_TCB
    nrk_task.o(i._Z19nrk_rem_from_readyQa) refers to nrk.o(.data) for _head_node
    nrk_task.o(i._Z19nrk_set_next_wakeup10nrk_time_t) refers to nrk.o(i._Z15nrk_int_disablev) for nrk_int_disable()
    nrk_task.o(i._Z19nrk_set_next_wakeup10nrk_time_t) refers to nrk_timer.o(i._Z17_nrk_os_timer_getv) for _nrk_os_timer_get()
    nrk_task.o(i._Z19nrk_set_next_wakeup10nrk_time_t) refers to nrk_time.o(i._Z18_nrk_time_to_ticksP10nrk_time_t) for _nrk_time_to_ticks(nrk_time_t*)
    nrk_task.o(i._Z19nrk_set_next_wakeup10nrk_time_t) refers to nrk.o(i._Z14nrk_int_enablev) for nrk_int_enable()
    nrk_task.o(i._Z19nrk_set_next_wakeup10nrk_time_t) refers to nrk.o(.data) for nrk_cur_task_TCB
    nrk_task.o(i._Z20nrk_wait_until_tickst) refers to nrk.o(i._Z15nrk_int_disablev) for nrk_int_disable()
    nrk_task.o(i._Z20nrk_wait_until_tickst) refers to nrk_timer.o(i._Z17_nrk_os_timer_getv) for _nrk_os_timer_get()
    nrk_task.o(i._Z20nrk_wait_until_tickst) refers to nrk_timer.o(i._Z20_nrk_get_next_wakeupv) for _nrk_get_next_wakeup()
    nrk_task.o(i._Z20nrk_wait_until_tickst) refers to nrk_timer.o(i._Z20_nrk_set_next_wakeuph) for _nrk_set_next_wakeup(unsigned char)
    nrk_task.o(i._Z20nrk_wait_until_tickst) refers to nrk.o(i._Z14nrk_int_enablev) for nrk_int_enable()
    nrk_task.o(i._Z20nrk_wait_until_tickst) refers to nrk_task.o(i._Z23_nrk_wait_for_schedulerv) for _nrk_wait_for_scheduler()
    nrk_task.o(i._Z20nrk_wait_until_tickst) refers to nrk.o(.data) for nrk_cur_task_TCB
    nrk_task.o(i._Z20nrk_wait_until_tickst) refers to nrk_timer.o(.data) for _nrk_prev_timer_val
    nrk_task.o(i._Z26nrk_get_high_ready_task_IDv) refers to nrk.o(.data) for _head_node
    nrk_task.o(i._Z26nrk_wait_until_next_periodv) refers to nrk.o(i._Z15nrk_int_disablev) for nrk_int_disable()
    nrk_task.o(i._Z26nrk_wait_until_next_periodv) refers to nrk_timer.o(i._Z17_nrk_os_timer_getv) for _nrk_os_timer_get()
    nrk_task.o(i._Z26nrk_wait_until_next_periodv) refers to nrk_timer.o(i._Z20_nrk_get_next_wakeupv) for _nrk_get_next_wakeup()
    nrk_task.o(i._Z26nrk_wait_until_next_periodv) refers to nrk_timer.o(i._Z20_nrk_set_next_wakeuph) for _nrk_set_next_wakeup(unsigned char)
    nrk_task.o(i._Z26nrk_wait_until_next_periodv) refers to nrk.o(i._Z14nrk_int_enablev) for nrk_int_enable()
    nrk_task.o(i._Z26nrk_wait_until_next_periodv) refers to nrk_task.o(i._Z23_nrk_wait_for_schedulerv) for _nrk_wait_for_scheduler()
    nrk_task.o(i._Z26nrk_wait_until_next_periodv) refers to nrk.o(.data) for nrk_cur_task_TCB
    nrk_task.o(i._Z26nrk_wait_until_next_periodv) refers to nrk_timer.o(.data) for _nrk_prev_timer_val
    nrk_task.o(i._Z29nrk_wait_until_next_n_periodst) refers to nrk_stack_check.o(i._Z15nrk_stack_checkv) for nrk_stack_check()
    nrk_task.o(i._Z29nrk_wait_until_next_n_periodst) refers to nrk.o(i._Z15nrk_int_disablev) for nrk_int_disable()
    nrk_task.o(i._Z29nrk_wait_until_next_n_periodst) refers to nrk_timer.o(i._Z17_nrk_os_timer_getv) for _nrk_os_timer_get()
    nrk_task.o(i._Z29nrk_wait_until_next_n_periodst) refers to nrk_timer.o(i._Z20_nrk_get_next_wakeupv) for _nrk_get_next_wakeup()
    nrk_task.o(i._Z29nrk_wait_until_next_n_periodst) refers to nrk_timer.o(i._Z20_nrk_set_next_wakeuph) for _nrk_set_next_wakeup(unsigned char)
    nrk_task.o(i._Z29nrk_wait_until_next_n_periodst) refers to nrk.o(i._Z14nrk_int_enablev) for nrk_int_enable()
    nrk_task.o(i._Z29nrk_wait_until_next_n_periodst) refers to nrk_task.o(i._Z23_nrk_wait_for_schedulerv) for _nrk_wait_for_scheduler()
    nrk_task.o(i._Z29nrk_wait_until_next_n_periodst) refers to nrk.o(.data) for nrk_cur_task_TCB
    nrk_task.o(i._Z29nrk_wait_until_next_n_periodst) refers to nrk_timer.o(.data) for _nrk_prev_timer_val
    nrk_task.o(i._Z8nrk_wait10nrk_time_t) refers to nrk_stack_check.o(i._Z15nrk_stack_checkv) for nrk_stack_check()
    nrk_task.o(i._Z8nrk_wait10nrk_time_t) refers to nrk.o(i._Z15nrk_int_disablev) for nrk_int_disable()
    nrk_task.o(i._Z8nrk_wait10nrk_time_t) refers to nrk_timer.o(i._Z17_nrk_os_timer_getv) for _nrk_os_timer_get()
    nrk_task.o(i._Z8nrk_wait10nrk_time_t) refers to nrk_time.o(i._Z18_nrk_time_to_ticksP10nrk_time_t) for _nrk_time_to_ticks(nrk_time_t*)
    nrk_task.o(i._Z8nrk_wait10nrk_time_t) refers to nrk_timer.o(i._Z20_nrk_get_next_wakeupv) for _nrk_get_next_wakeup()
    nrk_task.o(i._Z8nrk_wait10nrk_time_t) refers to nrk_timer.o(i._Z20_nrk_set_next_wakeuph) for _nrk_set_next_wakeup(unsigned char)
    nrk_task.o(i._Z8nrk_wait10nrk_time_t) refers to nrk.o(i._Z14nrk_int_enablev) for nrk_int_enable()
    nrk_task.o(i._Z8nrk_wait10nrk_time_t) refers to nrk_task.o(i._Z23_nrk_wait_for_schedulerv) for _nrk_wait_for_scheduler()
    nrk_task.o(i._Z8nrk_wait10nrk_time_t) refers to nrk.o(.data) for nrk_cur_task_TCB
    nrk_task.o(i._Z8nrk_wait10nrk_time_t) refers to nrk_timer.o(.data) for _nrk_prev_timer_val
    nrk_task.o(.ARM.exidx) refers to nrk_task.o(i._Z26nrk_get_high_ready_task_IDv) for i._Z26nrk_get_high_ready_task_IDv
    nrk_task.o(.ARM.exidx) refers to nrk_task.o(i._Z16nrk_print_readyQv) for i._Z16nrk_print_readyQv
    nrk_task.o(.ARM.exidx) refers to nrk_task.o(i._Z17nrk_add_to_readyQa) for i._Z17nrk_add_to_readyQa
    nrk_task.o(.ARM.exidx) refers to nrk_task.o(i._Z19nrk_rem_from_readyQa) for i._Z19nrk_rem_from_readyQa
    nrk_task.o(.ARM.exidx) refers to nrk_task.o(i._Z17nrk_activate_taskP9task_type) for i._Z17nrk_activate_taskP9task_type
    nrk_task.o(.ARM.exidx) refers to nrk_task.o(i._Z26nrk_wait_until_next_periodv) for i._Z26nrk_wait_until_next_periodv
    nrk_task.o(.ARM.exidx) refers to nrk_task.o(i._Z18nrk_terminate_taskv) for i._Z18nrk_terminate_taskv
    nrk_task.o(.ARM.exidx) refers to nrk_task.o(i._Z29nrk_wait_until_next_n_periodst) for i._Z29nrk_wait_until_next_n_periodst
    nrk_task.o(.ARM.exidx) refers to nrk_task.o(i._Z14nrk_wait_tickst) for i._Z14nrk_wait_tickst
    nrk_task.o(.ARM.exidx) refers to nrk_task.o(i._Z20nrk_wait_until_tickst) for i._Z20nrk_wait_until_tickst
    nrk_task.o(.ARM.exidx) refers to nrk_task.o(i._Z19nrk_set_next_wakeup10nrk_time_t) for i._Z19nrk_set_next_wakeup10nrk_time_t
    nrk_task.o(.ARM.exidx) refers to nrk_task.o(i._Z17nrk_wait_until_nwv) for i._Z17nrk_wait_until_nwv
    nrk_task.o(.ARM.exidx) refers to nrk_task.o(i._Z8nrk_wait10nrk_time_t) for i._Z8nrk_wait10nrk_time_t
    nrk_task.o(.ARM.exidx) refers to nrk_task.o(i._Z14nrk_wait_until10nrk_time_t) for i._Z14nrk_wait_until10nrk_time_t
    nrk_task.o(.ARM.exidx) refers to nrk_task.o(i._Z11nrk_get_pidv) for i._Z11nrk_get_pidv
    nrk_time.o(i._Z12nrk_time_addP10nrk_time_tS_S_) refers to nrk_time.o(i._Z22nrk_time_compact_nanosP10nrk_time_t) for nrk_time_compact_nanos(nrk_time_t*)
    nrk_time.o(i._Z12nrk_time_getP10nrk_time_t) refers to nrk_timer.o(i._Z17_nrk_os_timer_getv) for _nrk_os_timer_get()
    nrk_time.o(i._Z12nrk_time_getP10nrk_time_t) refers to nrk.o(.data) for nrk_system_time
    nrk_time.o(i._Z12nrk_time_setjj) refers to nrk.o(.data) for nrk_system_time
    nrk_time.o(i._Z18_nrk_time_to_ticksP10nrk_time_t) refers to lludivv7m.o(.text) for __aeabi_uldivmod
    nrk_time.o(i._Z23_nrk_time_to_ticks_longP10nrk_time_t) refers to lludivv7m.o(.text) for __aeabi_uldivmod
    nrk_time.o(.ARM.exidx) refers to nrk_time.o(i._Z12nrk_time_getP10nrk_time_t) for i._Z12nrk_time_getP10nrk_time_t
    nrk_time.o(.ARM.exidx) refers to nrk_time.o(i._Z12nrk_time_subP10nrk_time_tS_S_) for i._Z12nrk_time_subP10nrk_time_tS_S_
    nrk_time.o(.ARM.exidx) refers to nrk_time.o(i._Z22nrk_time_compact_nanosP10nrk_time_t) for i._Z22nrk_time_compact_nanosP10nrk_time_t
    nrk_time.o(.ARM.exidx) refers to nrk_time.o(i._Z12nrk_time_addP10nrk_time_tS_S_) for i._Z12nrk_time_addP10nrk_time_tS_S_
    nrk_time.o(.ARM.exidx) refers to nrk_time.o(i._Z12nrk_time_setjj) for i._Z12nrk_time_setjj
    nrk_time.o(.ARM.exidx) refers to nrk_time.o(i._Z18_nrk_time_to_ticksP10nrk_time_t) for i._Z18_nrk_time_to_ticksP10nrk_time_t
    nrk_time.o(.ARM.exidx) refers to nrk_time.o(i._Z18_nrk_ticks_to_timej) for i._Z18_nrk_ticks_to_timej
    nrk_time.o(.ARM.exidx) refers to nrk_time.o(i._Z23_nrk_time_to_ticks_longP10nrk_time_t) for i._Z23_nrk_time_to_ticks_longP10nrk_time_t
    adc_driver.o(i._Z11get_adc_valv) refers to adc_driver.o(.data) for .data
    adc_driver.o(i._Z12set_adc_chanh) refers to adc_driver.o(.data) for .data
    adc_driver.o(i._Z15dev_manager_adchhPhh) refers to adc_driver.o(i._Z8init_adcv) for init_adc()
    adc_driver.o(i._Z15dev_manager_adchhPhh) refers to adc_driver.o(i._Z11get_adc_valv) for get_adc_val()
    adc_driver.o(i._Z15dev_manager_adchhPhh) refers to adc_driver.o(i._Z12set_adc_chanh) for set_adc_chan(unsigned char)
    adc_driver.o(i._Z15dev_manager_adchhPhh) refers to nrk_error.o(i._Z20nrk_kernel_error_addhh) for nrk_kernel_error_add(unsigned char, unsigned char)
    adc_driver.o(i._Z15dev_manager_adchhPhh) refers to adc_driver.o(.data) for .data
    adc_driver.o(i._Z8init_adcv) refers to nrk_timer.o(i._Z16nrk_spin_wait_usj) for nrk_spin_wait_us(unsigned)
    adc_driver.o(.ARM.exidx) refers to adc_driver.o(i._Z12set_adc_chanh) for i._Z12set_adc_chanh
    adc_driver.o(.ARM.exidx) refers to adc_driver.o(i._Z11get_adc_valv) for i._Z11get_adc_valv
    adc_driver.o(.ARM.exidx) refers to adc_driver.o(i._Z8init_adcv) for i._Z8init_adcv
    adc_driver.o(.ARM.exidx) refers to adc_driver.o(i._Z15dev_manager_adchhPhh) for i._Z15dev_manager_adchhPhh
    adc_driver.o(.ARM.exidx) refers to adc_driver.o(i._Z5delayv) for i._Z5delayv
    ff_basic_sensor.o(i._Z22dev_manager_ff_sensorshhPhh) refers to adc_driver.o(i._Z8init_adcv) for init_adc()
    ff_basic_sensor.o(i._Z22dev_manager_ff_sensorshhPhh) refers to adc_driver.o(i._Z11get_adc_valv) for get_adc_val()
    ff_basic_sensor.o(i._Z22dev_manager_ff_sensorshhPhh) refers to nrk_timer.o(i._Z16nrk_spin_wait_usj) for nrk_spin_wait_us(unsigned)
    ff_basic_sensor.o(i._Z22dev_manager_ff_sensorshhPhh) refers to nrk_error.o(i._Z14_nrk_errno_seth) for _nrk_errno_set(unsigned char)
    ff_basic_sensor.o(i._Z22dev_manager_ff_sensorshhPhh) refers to adc_driver.o(i._Z12set_adc_chanh) for set_adc_chan(unsigned char)
    ff_basic_sensor.o(i._Z22dev_manager_ff_sensorshhPhh) refers to nrk_error.o(i._Z20nrk_kernel_error_addhh) for nrk_kernel_error_add(unsigned char, unsigned char)
    ff_basic_sensor.o(i._Z22dev_manager_ff_sensorshhPhh) refers to ff_basic_sensor.o(.data) for .data
    ff_basic_sensor.o(.ARM.exidx) refers to ff_basic_sensor.o(i._Z22dev_manager_ff_sensorshhPhh) for i._Z22dev_manager_ff_sensorshhPhh
    mrf24j40.o(i._Z12mrf_set_addrt) refers to mrf24j40.o(i._Z15mrf_write_shorthh) for mrf_write_short(unsigned char, unsigned char)
    mrf24j40.o(i._Z12mrf_set_addrt) refers to mrf24j40.o(.data) for .data
    mrf24j40.o(i._Z13mrf_data_modev) refers to mrf24j40.o(i._Z14mrf_write_longth) for mrf_write_long(unsigned short, unsigned char)
    mrf24j40.o(i._Z13mrf_data_modev) refers to nrk_timer.o(i._Z16nrk_spin_wait_usj) for nrk_spin_wait_us(unsigned)
    mrf24j40.o(i._Z13mrf_data_modev) refers to mrf24j40.o(i._Z15mrf_write_shorthh) for mrf_write_short(unsigned char, unsigned char)
    mrf24j40.o(i._Z13mrf_read_longt) refers to nrk.o(i._Z15nrk_int_disablev) for nrk_int_disable()
    mrf24j40.o(i._Z13mrf_read_longt) refers to mrf24j40.o(i._Z10mrf_cs_seth) for mrf_cs_set(unsigned char)
    mrf24j40.o(i._Z13mrf_read_longt) refers to nrk_timer.o(i._Z16nrk_spin_wait_usj) for nrk_spin_wait_us(unsigned)
    mrf24j40.o(i._Z13mrf_read_longt) refers to mrf24j40.o(i._Z13mrf_spi_writet) for mrf_spi_write(unsigned short)
    mrf24j40.o(i._Z13mrf_read_longt) refers to nrk.o(i._Z14nrk_int_enablev) for nrk_int_enable()
    mrf24j40.o(i._Z13mrf_set_panidt) refers to mrf24j40.o(i._Z15mrf_write_shorthh) for mrf_write_short(unsigned char, unsigned char)
    mrf24j40.o(i._Z13mrf_set_panidt) refers to mrf24j40.o(.data) for .data
    mrf24j40.o(i._Z13mrf_test_modev) refers to mrf24j40.o(i._Z14mrf_write_longth) for mrf_write_long(unsigned short, unsigned char)
    mrf24j40.o(i._Z13mrf_test_modev) refers to nrk_timer.o(i._Z16nrk_spin_wait_usj) for nrk_spin_wait_us(unsigned)
    mrf24j40.o(i._Z13mrf_test_modev) refers to mrf24j40.o(i._Z15mrf_write_shorthh) for mrf_write_short(unsigned char, unsigned char)
    mrf24j40.o(i._Z14mrf_read_shorth) refers to nrk.o(i._Z15nrk_int_disablev) for nrk_int_disable()
    mrf24j40.o(i._Z14mrf_read_shorth) refers to mrf24j40.o(i._Z10mrf_cs_seth) for mrf_cs_set(unsigned char)
    mrf24j40.o(i._Z14mrf_read_shorth) refers to nrk_timer.o(i._Z16nrk_spin_wait_usj) for nrk_spin_wait_us(unsigned)
    mrf24j40.o(i._Z14mrf_read_shorth) refers to mrf24j40.o(i._Z13mrf_spi_writet) for mrf_spi_write(unsigned short)
    mrf24j40.o(i._Z14mrf_read_shorth) refers to nrk.o(i._Z14nrk_int_enablev) for nrk_int_enable()
    mrf24j40.o(i._Z14mrf_write_longth) refers to nrk.o(i._Z15nrk_int_disablev) for nrk_int_disable()
    mrf24j40.o(i._Z14mrf_write_longth) refers to mrf24j40.o(i._Z10mrf_cs_seth) for mrf_cs_set(unsigned char)
    mrf24j40.o(i._Z14mrf_write_longth) refers to nrk_timer.o(i._Z16nrk_spin_wait_usj) for nrk_spin_wait_us(unsigned)
    mrf24j40.o(i._Z14mrf_write_longth) refers to mrf24j40.o(i._Z13mrf_spi_writet) for mrf_spi_write(unsigned short)
    mrf24j40.o(i._Z14mrf_write_longth) refers to nrk.o(i._Z14nrk_int_enablev) for nrk_int_enable()
    mrf24j40.o(i._Z15mrf_write_shorthh) refers to nrk.o(i._Z15nrk_int_disablev) for nrk_int_disable()
    mrf24j40.o(i._Z15mrf_write_shorthh) refers to mrf24j40.o(i._Z10mrf_cs_seth) for mrf_cs_set(unsigned char)
    mrf24j40.o(i._Z15mrf_write_shorthh) refers to nrk_timer.o(i._Z16nrk_spin_wait_usj) for nrk_spin_wait_us(unsigned)
    mrf24j40.o(i._Z15mrf_write_shorthh) refers to mrf24j40.o(i._Z13mrf_spi_writet) for mrf_spi_write(unsigned short)
    mrf24j40.o(i._Z15mrf_write_shorthh) refers to nrk.o(i._Z14nrk_int_enablev) for nrk_int_enable()
    mrf24j40.o(i._Z8mrf_inith) refers to mrf24j40.o(i._Z13mrf_gpio_initv) for mrf_gpio_init()
    mrf24j40.o(i._Z8mrf_inith) refers to mrf24j40.o(i._Z12mrf_spi_inithhi) for mrf_spi_init(unsigned char, unsigned char, int)
    mrf24j40.o(i._Z8mrf_inith) refers to mrf24j40.o(i._Z9mrf_reseth) for mrf_reset(unsigned char)
    mrf24j40.o(i._Z8mrf_inith) refers to mrf24j40.o(i._Z15mrf_write_shorthh) for mrf_write_short(unsigned char, unsigned char)
    mrf24j40.o(i._Z8mrf_inith) refers to mrf24j40.o(i._Z16mrf_gpioint_initv) for mrf_gpioint_init()
    mrf24j40.o(i._Z8mrf_rssiv) refers to mrf24j40.o(i._Z15mrf_write_shorthh) for mrf_write_short(unsigned char, unsigned char)
    mrf24j40.o(i._Z8mrf_rssiv) refers to mrf24j40.o(i._Z14mrf_read_shorth) for mrf_read_short(unsigned char)
    mrf24j40.o(i._Z8mrf_rssiv) refers to mrf24j40.o(i._Z13mrf_read_longt) for mrf_read_long(unsigned short)
    mrf24j40.o(i._Z8mrf_wakev) refers to mrf24j40.o(i._Z15mrf_write_shorthh) for mrf_write_short(unsigned char, unsigned char)
    mrf24j40.o(i._Z8mrf_wakev) refers to nrk_timer.o(i._Z16nrk_spin_wait_usj) for nrk_spin_wait_us(unsigned)
    mrf24j40.o(i._Z9mrf_reseth) refers to mrf24j40.o(i._Z13mrf_reset_seth) for mrf_reset_set(unsigned char)
    mrf24j40.o(i._Z9mrf_reseth) refers to mrf24j40.o(i._Z15mrf_write_shorthh) for mrf_write_short(unsigned char, unsigned char)
    mrf24j40.o(i._Z9mrf_reseth) refers to mrf24j40.o(i._Z14mrf_write_longth) for mrf_write_long(unsigned short, unsigned char)
    mrf24j40.o(i._Z9mrf_reseth) refers to nrk_timer.o(i._Z16nrk_spin_wait_usj) for nrk_spin_wait_us(unsigned)
    mrf24j40.o(i._Z9mrf_sleepv) refers to mrf24j40.o(i._Z15mrf_write_shorthh) for mrf_write_short(unsigned char, unsigned char)
    mrf24j40.o(.ARM.exidx) refers to mrf24j40.o(i._Z12mrf_spi_inithhi) for i._Z12mrf_spi_inithhi
    mrf24j40.o(.ARM.exidx) refers to mrf24j40.o(i._Z13mrf_spi_writet) for i._Z13mrf_spi_writet
    mrf24j40.o(.ARM.exidx) refers to mrf24j40.o(i._Z16mrf_gpioint_initv) for i._Z16mrf_gpioint_initv
    mrf24j40.o(.ARM.exidx) refers to mrf24j40.o(i._Z13mrf_gpio_initv) for i._Z13mrf_gpio_initv
    mrf24j40.o(.ARM.exidx) refers to mrf24j40.o(i._Z10mrf_cs_seth) for i._Z10mrf_cs_seth
    mrf24j40.o(.ARM.exidx) refers to mrf24j40.o(i._Z13mrf_reset_seth) for i._Z13mrf_reset_seth
    mrf24j40.o(.ARM.exidx) refers to mrf24j40.o(i._Z15mrf_write_shorthh) for i._Z15mrf_write_shorthh
    mrf24j40.o(.ARM.exidx) refers to mrf24j40.o(i._Z14mrf_read_shorth) for i._Z14mrf_read_shorth
    mrf24j40.o(.ARM.exidx) refers to mrf24j40.o(i._Z14mrf_write_longth) for i._Z14mrf_write_longth
    mrf24j40.o(.ARM.exidx) refers to mrf24j40.o(i._Z13mrf_read_longt) for i._Z13mrf_read_longt
    mrf24j40.o(.ARM.exidx) refers to mrf24j40.o(i._Z9mrf_reseth) for i._Z9mrf_reseth
    mrf24j40.o(.ARM.exidx) refers to mrf24j40.o(i._Z8mrf_inith) for i._Z8mrf_inith
    mrf24j40.o(.ARM.exidx) refers to mrf24j40.o(i._Z12mrf_set_addrt) for i._Z12mrf_set_addrt
    mrf24j40.o(.ARM.exidx) refers to mrf24j40.o(i._Z13mrf_set_panidt) for i._Z13mrf_set_panidt
    mrf24j40.o(.ARM.exidx) refers to mrf24j40.o(i._Z13mrf_test_modev) for i._Z13mrf_test_modev
    mrf24j40.o(.ARM.exidx) refers to mrf24j40.o(i._Z13mrf_data_modev) for i._Z13mrf_data_modev
    mrf24j40.o(.ARM.exidx) refers to mrf24j40.o(i._Z8mrf_rssiv) for i._Z8mrf_rssiv
    mrf24j40.o(.ARM.exidx) refers to mrf24j40.o(i._Z9mrf_sleepv) for i._Z9mrf_sleepv
    mrf24j40.o(.ARM.exidx) refers to mrf24j40.o(i._Z8mrf_wakev) for i._Z8mrf_wakev
    basic_rf.o(i.EINT3_IRQHandler) refers to mrf24j40.o(i._Z14mrf_read_shorth) for mrf_read_short(unsigned char)
    basic_rf.o(i.EINT3_IRQHandler) refers to basic_rf.o(i._Z18rf_parse_rx_packetv) for rf_parse_rx_packet()
    basic_rf.o(i.EINT3_IRQHandler) refers to main.o(i._Z14mrfIsrCallbackv) for mrfIsrCallback()
    basic_rf.o(i.EINT3_IRQHandler) refers to mrf24j40.o(i._Z15mrf_write_shorthh) for mrf_write_short(unsigned char, unsigned char)
    basic_rf.o(i.EINT3_IRQHandler) refers to basic_rf.o(.data) for .data
    basic_rf.o(i.EINT3_IRQHandler) refers to basic_rf.o(.bss) for .bss
    basic_rf.o(i._Z11rf_power_upv) refers to mrf24j40.o(i._Z15mrf_write_shorthh) for mrf_write_short(unsigned char, unsigned char)
    basic_rf.o(i._Z11rf_power_upv) refers to nrk_timer.o(i._Z16nrk_spin_wait_usj) for nrk_spin_wait_us(unsigned)
    basic_rf.o(i._Z11rf_tx_powerh) refers to mrf24j40.o(i._Z14mrf_write_longth) for mrf_write_long(unsigned short, unsigned char)
    basic_rf.o(i._Z12rf_data_modev) refers to mrf24j40.o(i._Z14mrf_write_longth) for mrf_write_long(unsigned short, unsigned char)
    basic_rf.o(i._Z12rf_rx_packetv) refers to basic_rf.o(.data) for .data
    basic_rf.o(i._Z12rf_test_modev) refers to mrf24j40.o(i._Z14mrf_write_longth) for mrf_write_long(unsigned short, unsigned char)
    basic_rf.o(i._Z12rf_tx_packetP10RF_TX_INFO) refers to mrf24j40.o(i._Z14mrf_write_longth) for mrf_write_long(unsigned short, unsigned char)
    basic_rf.o(i._Z12rf_tx_packetP10RF_TX_INFO) refers to basic_rf.o(i._Z8rf_rx_onv) for rf_rx_on()
    basic_rf.o(i._Z12rf_tx_packetP10RF_TX_INFO) refers to nrk_timer.o(i._Z16nrk_spin_wait_usj) for nrk_spin_wait_us(unsigned)
    basic_rf.o(i._Z12rf_tx_packetP10RF_TX_INFO) refers to basic_rf.o(i._Z15rf_rx_check_ccav) for rf_rx_check_cca()
    basic_rf.o(i._Z12rf_tx_packetP10RF_TX_INFO) refers to mrf24j40.o(i._Z15mrf_write_shorthh) for mrf_write_short(unsigned char, unsigned char)
    basic_rf.o(i._Z12rf_tx_packetP10RF_TX_INFO) refers to basic_rf.o(i._Z7rf_initP10RF_RX_INFOhtt) for rf_init(RF_RX_INFO*, unsigned char, unsigned short, unsigned short)
    basic_rf.o(i._Z12rf_tx_packetP10RF_TX_INFO) refers to basic_rf.o(i._Z18rf_auto_ack_enablev) for rf_auto_ack_enable()
    basic_rf.o(i._Z12rf_tx_packetP10RF_TX_INFO) refers to basic_rf.o(i._Z19rf_auto_ack_disablev) for rf_auto_ack_disable()
    basic_rf.o(i._Z12rf_tx_packetP10RF_TX_INFO) refers to ulib.o(i._Z14nrk_led_togglei) for nrk_led_toggle(int)
    basic_rf.o(i._Z12rf_tx_packetP10RF_TX_INFO) refers to mrf24j40.o(i._Z14mrf_read_shorth) for mrf_read_short(unsigned char)
    basic_rf.o(i._Z12rf_tx_packetP10RF_TX_INFO) refers to basic_rf.o(.data) for .data
    basic_rf.o(i._Z12rf_tx_packetP10RF_TX_INFO) refers to basic_rf.o(.bss) for .bss
    basic_rf.o(i._Z12rf_tx_packetP10RF_TX_INFO) refers to bmac.o(.bss) for bmac_rfRxInfo
    basic_rf.o(i._Z13rf_carrier_onv) refers to mrf24j40.o(i._Z15mrf_write_shorthh) for mrf_write_short(unsigned char, unsigned char)
    basic_rf.o(i._Z13rf_carrier_onv) refers to nrk_timer.o(i._Z16nrk_spin_wait_usj) for nrk_spin_wait_us(unsigned)
    basic_rf.o(i._Z13rf_power_downv) refers to mrf24j40.o(i._Z15mrf_write_shorthh) for mrf_write_short(unsigned char, unsigned char)
    basic_rf.o(i._Z14rf_carrier_offv) refers to mrf24j40.o(i._Z15mrf_write_shorthh) for mrf_write_short(unsigned char, unsigned char)
    basic_rf.o(i._Z14rf_carrier_offv) refers to nrk_timer.o(i._Z16nrk_spin_wait_usj) for nrk_spin_wait_us(unsigned)
    basic_rf.o(i._Z14rf_rx_callbackP10RF_RX_INFO) refers to main.o(i._Z14mrfIsrCallbackv) for mrfIsrCallback()
    basic_rf.o(i._Z14rf_set_channelh) refers to mrf24j40.o(i._Z14mrf_write_longth) for mrf_write_long(unsigned short, unsigned char)
    basic_rf.o(i._Z14rf_set_channelh) refers to mrf24j40.o(i._Z15mrf_write_shorthh) for mrf_write_short(unsigned char, unsigned char)
    basic_rf.o(i._Z14rf_set_channelh) refers to nrk_timer.o(i._Z16nrk_spin_wait_usj) for nrk_spin_wait_us(unsigned)
    basic_rf.o(i._Z14rf_set_rx_modeh) refers to mrf24j40.o(i._Z14mrf_read_shorth) for mrf_read_short(unsigned char)
    basic_rf.o(i._Z14rf_set_rx_modeh) refers to mrf24j40.o(i._Z15mrf_write_shorthh) for mrf_write_short(unsigned char, unsigned char)
    basic_rf.o(i._Z15rf_rx_check_ccav) refers to mrf24j40.o(i._Z8mrf_rssiv) for mrf_rssi()
    basic_rf.o(i._Z15rf_rx_check_ccav) refers to basic_rf.o(.data) for .data
    basic_rf.o(i._Z15rf_set_cca_modeh) refers to mrf24j40.o(i._Z14mrf_read_shorth) for mrf_read_short(unsigned char)
    basic_rf.o(i._Z15rf_set_cca_modeh) refers to mrf24j40.o(i._Z15mrf_write_shorthh) for mrf_write_short(unsigned char, unsigned char)
    basic_rf.o(i._Z16rf_flush_rx_fifov) refers to mrf24j40.o(i._Z13mrf_read_longt) for mrf_read_long(unsigned short)
    basic_rf.o(i._Z16rf_polling_rx_onv) refers to mrf24j40.o(i._Z15mrf_write_shorthh) for mrf_write_short(unsigned char, unsigned char)
    basic_rf.o(i._Z16rf_polling_rx_onv) refers to mrf24j40.o(i._Z13mrf_read_longt) for mrf_read_long(unsigned short)
    basic_rf.o(i._Z16rf_polling_rx_onv) refers to basic_rf.o(.bss) for .bss
    basic_rf.o(i._Z16rf_polling_rx_onv) refers to basic_rf.o(.data) for .data
    basic_rf.o(i._Z17rf_rx_check_fifopv) refers to basic_rf.o(.data) for .data
    basic_rf.o(i._Z17rf_set_cca_thresha) refers to basic_rf.o(.data) for .data
    basic_rf.o(i._Z18rf_auto_ack_enablev) refers to mrf24j40.o(i._Z14mrf_read_shorth) for mrf_read_short(unsigned char)
    basic_rf.o(i._Z18rf_auto_ack_enablev) refers to mrf24j40.o(i._Z15mrf_write_shorthh) for mrf_write_short(unsigned char, unsigned char)
    basic_rf.o(i._Z18rf_auto_ack_enablev) refers to basic_rf.o(.data) for .data
    basic_rf.o(i._Z18rf_parse_rx_packetv) refers to basic_rf.o(i._Z9rf_rx_offv) for rf_rx_off()
    basic_rf.o(i._Z18rf_parse_rx_packetv) refers to mrf24j40.o(i._Z13mrf_read_longt) for mrf_read_long(unsigned short)
    basic_rf.o(i._Z18rf_parse_rx_packetv) refers to basic_rf.o(i._Z8rf_rx_onv) for rf_rx_on()
    basic_rf.o(i._Z18rf_parse_rx_packetv) refers to basic_rf.o(.bss) for .bss
    basic_rf.o(i._Z18rf_parse_rx_packetv) refers to basic_rf.o(.data) for .data
    basic_rf.o(i._Z19rf_auto_ack_disablev) refers to mrf24j40.o(i._Z14mrf_read_shorth) for mrf_read_short(unsigned char)
    basic_rf.o(i._Z19rf_auto_ack_disablev) refers to mrf24j40.o(i._Z15mrf_write_shorthh) for mrf_write_short(unsigned char, unsigned char)
    basic_rf.o(i._Z19rf_auto_ack_disablev) refers to basic_rf.o(.data) for .data
    basic_rf.o(i._Z20rf_polling_rx_packetv) refers to basic_rf.o(i._Z12rf_rx_packetv) for rf_rx_packet()
    basic_rf.o(i._Z21rf_addr_decode_enablev) refers to mrf24j40.o(i._Z14mrf_read_shorth) for mrf_read_short(unsigned char)
    basic_rf.o(i._Z21rf_addr_decode_enablev) refers to mrf24j40.o(i._Z15mrf_write_shorthh) for mrf_write_short(unsigned char, unsigned char)
    basic_rf.o(i._Z22rf_addr_decode_disablev) refers to mrf24j40.o(i._Z14mrf_read_shorth) for mrf_read_short(unsigned char)
    basic_rf.o(i._Z22rf_addr_decode_disablev) refers to mrf24j40.o(i._Z15mrf_write_shorthh) for mrf_write_short(unsigned char, unsigned char)
    basic_rf.o(i._Z25rf_addr_decode_set_my_mact) refers to mrf24j40.o(i._Z15mrf_write_shorthh) for mrf_write_short(unsigned char, unsigned char)
    basic_rf.o(i._Z25rf_addr_decode_set_my_mact) refers to basic_rf.o(.bss) for .bss
    basic_rf.o(i._Z7rf_initP10RF_RX_INFOhtt) refers to mrf24j40.o(i._Z8mrf_inith) for mrf_init(unsigned char)
    basic_rf.o(i._Z7rf_initP10RF_RX_INFOhtt) refers to mrf24j40.o(i._Z12mrf_set_addrt) for mrf_set_addr(unsigned short)
    basic_rf.o(i._Z7rf_initP10RF_RX_INFOhtt) refers to mrf24j40.o(i._Z13mrf_set_panidt) for mrf_set_panid(unsigned short)
    basic_rf.o(i._Z7rf_initP10RF_RX_INFOhtt) refers to basic_rf.o(i._Z14rf_set_rx_modeh) for rf_set_rx_mode(unsigned char)
    basic_rf.o(i._Z7rf_initP10RF_RX_INFOhtt) refers to mrf24j40.o(i._Z13mrf_read_longt) for mrf_read_long(unsigned short)
    basic_rf.o(i._Z7rf_initP10RF_RX_INFOhtt) refers to mrf24j40.o(i._Z14mrf_read_shorth) for mrf_read_short(unsigned char)
    basic_rf.o(i._Z7rf_initP10RF_RX_INFOhtt) refers to basic_rf.o(.bss) for .bss
    basic_rf.o(i._Z7rf_initP10RF_RX_INFOhtt) refers to basic_rf.o(.data) for .data
    basic_rf.o(i._Z8rf_rx_onv) refers to mrf24j40.o(i._Z15mrf_write_shorthh) for mrf_write_short(unsigned char, unsigned char)
    basic_rf.o(i._Z8rf_rx_onv) refers to basic_rf.o(.bss) for .bss
    basic_rf.o(i._Z8rf_rx_onv) refers to basic_rf.o(.data) for .data
    basic_rf.o(i._Z9rf_rx_offv) refers to mrf24j40.o(i._Z15mrf_write_shorthh) for mrf_write_short(unsigned char, unsigned char)
    basic_rf.o(i._Z9rf_rx_offv) refers to basic_rf.o(.bss) for .bss
    basic_rf.o(i._Z9rf_rx_offv) refers to basic_rf.o(.data) for .data
    basic_rf.o(i._Z9rf_set_rxP10RF_RX_INFOh) refers to mrf24j40.o(i._Z13mrf_read_longt) for mrf_read_long(unsigned short)
    basic_rf.o(i._Z9rf_set_rxP10RF_RX_INFOh) refers to basic_rf.o(i._Z14rf_set_channelh) for rf_set_channel(unsigned char)
    basic_rf.o(i._Z9rf_set_rxP10RF_RX_INFOh) refers to mrf24j40.o(i._Z15mrf_write_shorthh) for mrf_write_short(unsigned char, unsigned char)
    basic_rf.o(i._Z9rf_set_rxP10RF_RX_INFOh) refers to nrk_timer.o(i._Z16nrk_spin_wait_usj) for nrk_spin_wait_us(unsigned)
    basic_rf.o(i._Z9rf_set_rxP10RF_RX_INFOh) refers to basic_rf.o(.bss) for .bss
    basic_rf.o(.ARM.exidx) refers to basic_rf.o(i._Z14rf_rx_callbackP10RF_RX_INFO) for i._Z14rf_rx_callbackP10RF_RX_INFO
    basic_rf.o(.ARM.exidx) refers to basic_rf.o(i._Z13rf_power_downv) for i._Z13rf_power_downv
    basic_rf.o(.ARM.exidx) refers to basic_rf.o(i._Z11rf_power_upv) for i._Z11rf_power_upv
    basic_rf.o(.ARM.exidx) refers to basic_rf.o(i._Z11rf_tx_powerh) for i._Z11rf_tx_powerh
    basic_rf.o(.ARM.exidx) refers to basic_rf.o(i._Z27rf_security_last_pkt_statusv) for i._Z27rf_security_last_pkt_statusv
    basic_rf.o(.ARM.exidx) refers to basic_rf.o(i._Z27rf_security_set_ctr_counterPh) for i._Z27rf_security_set_ctr_counterPh
    basic_rf.o(.ARM.exidx) refers to basic_rf.o(i._Z19rf_security_set_keyPh) for i._Z19rf_security_set_keyPh
    basic_rf.o(.ARM.exidx) refers to basic_rf.o(i._Z18rf_security_enablev) for i._Z18rf_security_enablev
    basic_rf.o(.ARM.exidx) refers to basic_rf.o(i._Z19rf_security_disablev) for i._Z19rf_security_disablev
    basic_rf.o(.ARM.exidx) refers to basic_rf.o(i._Z14rf_set_channelh) for i._Z14rf_set_channelh
    basic_rf.o(.ARM.exidx) refers to basic_rf.o(i._Z21rf_addr_decode_enablev) for i._Z21rf_addr_decode_enablev
    basic_rf.o(.ARM.exidx) refers to basic_rf.o(i._Z22rf_addr_decode_disablev) for i._Z22rf_addr_decode_disablev
    basic_rf.o(.ARM.exidx) refers to basic_rf.o(i._Z18rf_auto_ack_enablev) for i._Z18rf_auto_ack_enablev
    basic_rf.o(.ARM.exidx) refers to basic_rf.o(i._Z19rf_auto_ack_disablev) for i._Z19rf_auto_ack_disablev
    basic_rf.o(.ARM.exidx) refers to basic_rf.o(i._Z25rf_addr_decode_set_my_mact) for i._Z25rf_addr_decode_set_my_mact
    basic_rf.o(.ARM.exidx) refers to basic_rf.o(i._Z14rf_set_rx_modeh) for i._Z14rf_set_rx_modeh
    basic_rf.o(.ARM.exidx) refers to basic_rf.o(i._Z16rf_flush_rx_fifov) for i._Z16rf_flush_rx_fifov
    basic_rf.o(.ARM.exidx) refers to basic_rf.o(i._Z9rf_set_rxP10RF_RX_INFOh) for i._Z9rf_set_rxP10RF_RX_INFOh
    basic_rf.o(.ARM.exidx) refers to basic_rf.o(i._Z7rf_initP10RF_RX_INFOhtt) for i._Z7rf_initP10RF_RX_INFOhtt
    basic_rf.o(.ARM.exidx) refers to basic_rf.o(i._Z8rf_rx_onv) for i._Z8rf_rx_onv
    basic_rf.o(.ARM.exidx) refers to basic_rf.o(i._Z16rf_polling_rx_onv) for i._Z16rf_polling_rx_onv
    basic_rf.o(.ARM.exidx) refers to basic_rf.o(i._Z9rf_rx_offv) for i._Z9rf_rx_offv
    basic_rf.o(.ARM.exidx) refers to basic_rf.o(i._Z12rf_test_modev) for i._Z12rf_test_modev
    basic_rf.o(.ARM.exidx) refers to basic_rf.o(i._Z12rf_data_modev) for i._Z12rf_data_modev
    basic_rf.o(.ARM.exidx) refers to basic_rf.o(i._Z16rf_rx_set_serialv) for i._Z16rf_rx_set_serialv
    basic_rf.o(.ARM.exidx) refers to basic_rf.o(i._Z16rf_tx_set_serialv) for i._Z16rf_tx_set_serialv
    basic_rf.o(.ARM.exidx) refers to basic_rf.o(i._Z22rf_set_preamble_lengthh) for i._Z22rf_set_preamble_lengthh
    basic_rf.o(.ARM.exidx) refers to basic_rf.o(i._Z13rf_carrier_onv) for i._Z13rf_carrier_onv
    basic_rf.o(.ARM.exidx) refers to basic_rf.o(i._Z14rf_carrier_offv) for i._Z14rf_carrier_offv
    basic_rf.o(.ARM.exidx) refers to basic_rf.o(i._Z17rf_rx_check_fifopv) for i._Z17rf_rx_check_fifopv
    basic_rf.o(.ARM.exidx) refers to basic_rf.o(i._Z17rf_set_cca_thresha) for i._Z17rf_set_cca_thresha
    basic_rf.o(.ARM.exidx) refers to basic_rf.o(i._Z15rf_set_cca_modeh) for i._Z15rf_set_cca_modeh
    basic_rf.o(.ARM.exidx) refers to basic_rf.o(i._Z15rf_rx_check_ccav) for i._Z15rf_rx_check_ccav
    basic_rf.o(.ARM.exidx) refers to basic_rf.o(i._Z12rf_rx_packetv) for i._Z12rf_rx_packetv
    basic_rf.o(.ARM.exidx) refers to basic_rf.o(i._Z20rf_polling_rx_packetv) for i._Z20rf_polling_rx_packetv
    basic_rf.o(.ARM.exidx) refers to basic_rf.o(i._Z17rf_tx_tdma_packetP10RF_TX_INFOtt) for i._Z17rf_tx_tdma_packetP10RF_TX_INFOtt
    basic_rf.o(.ARM.exidx) refers to basic_rf.o(i._Z12rf_tx_packetP10RF_TX_INFO) for i._Z12rf_tx_packetP10RF_TX_INFO
    basic_rf.o(.ARM.exidx) refers to basic_rf.o(i._Z18rf_parse_rx_packetv) for i._Z18rf_parse_rx_packetv
    basic_rf.o(.ARM.exidx) refers to basic_rf.o(i.EINT3_IRQHandler) for i.EINT3_IRQHandler
    bmac.o(i._Z11bmac_enablev) refers to basic_rf.o(i._Z11rf_power_upv) for rf_power_up()
    bmac.o(i._Z11bmac_enablev) refers to nrk_events.o(i._Z16nrk_event_signala) for nrk_event_signal(signed char)
    bmac.o(i._Z11bmac_enablev) refers to bmac.o(.data) for .data
    bmac.o(i._Z11bmac_tx_pktPch) refers to nrk_events.o(i._Z19nrk_signal_registera) for nrk_signal_register(signed char)
    bmac.o(i._Z11bmac_tx_pktPch) refers to nrk_events.o(i._Z14nrk_event_waitj) for nrk_event_wait(unsigned)
    bmac.o(i._Z11bmac_tx_pktPch) refers to bmac.o(.data) for .data
    bmac.o(i._Z11bmac_tx_pktPch) refers to bmac.o(.bss) for .bss
    bmac.o(i._Z12bmac_disablev) refers to basic_rf.o(i._Z13rf_power_downv) for rf_power_down()
    bmac.o(i._Z12bmac_disablev) refers to bmac.o(.data) for .data
    bmac.o(i._Z12bmac_nw_taskv) refers to nrk_task.o(i._Z26nrk_wait_until_next_periodv) for nrk_wait_until_next_period()
    bmac.o(i._Z12bmac_nw_taskv) refers to nrk_events.o(i._Z16nrk_event_signala) for nrk_event_signal(signed char)
    bmac.o(i._Z12bmac_nw_taskv) refers to bmac.o(i._Z19_bmac_channel_checkv) for _bmac_channel_check()
    bmac.o(i._Z12bmac_nw_taskv) refers to bmac.o(i._Z8_bmac_rxv) for _bmac_rx()
    bmac.o(i._Z12bmac_nw_taskv) refers to basic_rf.o(i._Z9rf_rx_offv) for rf_rx_off()
    bmac.o(i._Z12bmac_nw_taskv) refers to bmac.o(i._Z8_bmac_txv) for _bmac_tx()
    bmac.o(i._Z12bmac_nw_taskv) refers to nrk_task.o(i._Z8nrk_wait10nrk_time_t) for nrk_wait(nrk_time_t)
    bmac.o(i._Z12bmac_nw_taskv) refers to nrk_events.o(i._Z19nrk_signal_registera) for nrk_signal_register(signed char)
    bmac.o(i._Z12bmac_nw_taskv) refers to nrk_events.o(i._Z14nrk_event_waitj) for nrk_event_wait(unsigned)
    bmac.o(i._Z12bmac_nw_taskv) refers to bmac.o(.data) for .data
    bmac.o(i._Z12bmac_startedv) refers to bmac.o(.data) for .data
    bmac.o(i._Z15bmac_rx_pkt_getPhS_) refers to bmac.o(.data) for .data
    bmac.o(i._Z15bmac_rx_pkt_getPhS_) refers to bmac.o(.bss) for .bss
    bmac.o(i._Z16bmac_set_channelh) refers to basic_rf.o(i._Z7rf_initP10RF_RX_INFOhtt) for rf_init(RF_RX_INFO*, unsigned char, unsigned short, unsigned short)
    bmac.o(i._Z16bmac_set_channelh) refers to bmac.o(.data) for .data
    bmac.o(i._Z16bmac_set_channelh) refers to bmac.o(.bss) for .bss
    bmac.o(i._Z16bmac_task_configv) refers to nrk_cpu.o(i._Z27nrk_task_set_entry_functionP9task_typePFvvE) for nrk_task_set_entry_function(task_type*, void(*)())
    bmac.o(i._Z16bmac_task_configv) refers to nrk_cpu.o(i._Z16nrk_task_set_stkP9task_typePjt) for nrk_task_set_stk(task_type*, unsigned*, unsigned short)
    bmac.o(i._Z16bmac_task_configv) refers to nrk_task.o(i._Z17nrk_activate_taskP9task_type) for nrk_activate_task(task_type*)
    bmac.o(i._Z16bmac_task_configv) refers to bmac.o(i._Z12bmac_nw_taskv) for bmac_nw_task()
    bmac.o(i._Z16bmac_task_configv) refers to bmac.o(.bss) for .bss
    bmac.o(i._Z17bmac_rx_pkt_readyv) refers to bmac.o(.data) for .data
    bmac.o(i._Z17bmac_set_rf_powerh) refers to basic_rf.o(i._Z11rf_tx_powerh) for rf_tx_power(unsigned char)
    bmac.o(i._Z19_bmac_channel_checkv) refers to basic_rf.o(i._Z16rf_polling_rx_onv) for rf_polling_rx_on()
    bmac.o(i._Z19_bmac_channel_checkv) refers to nrk_timer.o(i._Z16nrk_spin_wait_usj) for nrk_spin_wait_us(unsigned)
    bmac.o(i._Z19_bmac_channel_checkv) refers to basic_rf.o(i._Z15rf_rx_check_ccav) for rf_rx_check_cca()
    bmac.o(i._Z19_bmac_channel_checkv) refers to basic_rf.o(i._Z9rf_rx_offv) for rf_rx_off()
    bmac.o(i._Z19bmac_rx_pkt_releasev) refers to bmac.o(.data) for .data
    bmac.o(i._Z19bmac_set_cca_activeh) refers to bmac.o(.data) for .data
    bmac.o(i._Z19bmac_set_cca_thresha) refers to basic_rf.o(i._Z17rf_set_cca_thresha) for rf_set_cca_thresh(signed char)
    bmac.o(i._Z20bmac_auto_ack_enablev) refers to basic_rf.o(i._Z18rf_auto_ack_enablev) for rf_auto_ack_enable()
    bmac.o(i._Z21bmac_auto_ack_disablev) refers to basic_rf.o(i._Z19rf_auto_ack_disablev) for rf_auto_ack_disable()
    bmac.o(i._Z22bmac_encryption_enablev) refers to basic_rf.o(i._Z18rf_security_enablev) for rf_security_enable()
    bmac.o(i._Z22bmac_get_rx_pkt_signalv) refers to nrk_events.o(i._Z19nrk_signal_registera) for nrk_signal_register(signed char)
    bmac.o(i._Z22bmac_get_rx_pkt_signalv) refers to bmac.o(.data) for .data
    bmac.o(i._Z22bmac_rx_pkt_set_bufferPch) refers to bmac.o(.bss) for .bss
    bmac.o(i._Z22bmac_rx_pkt_set_bufferPch) refers to bmac.o(.data) for .data
    bmac.o(i._Z22bmac_set_rx_check_rate10nrk_time_t) refers to bmac.o(.data) for .data
    bmac.o(i._Z22bmac_wait_until_rx_pktv) refers to nrk_events.o(i._Z19nrk_signal_registera) for nrk_signal_register(signed char)
    bmac.o(i._Z22bmac_wait_until_rx_pktv) refers to nrk_events.o(i._Z14nrk_event_waitj) for nrk_event_wait(unsigned)
    bmac.o(i._Z22bmac_wait_until_rx_pktv) refers to bmac.o(.data) for .data
    bmac.o(i._Z23bmac_addr_decode_enablev) refers to basic_rf.o(i._Z21rf_addr_decode_enablev) for rf_addr_decode_enable()
    bmac.o(i._Z23bmac_encryption_disablev) refers to basic_rf.o(i._Z19rf_security_disablev) for rf_security_disable()
    bmac.o(i._Z23bmac_encryption_set_keyPhh) refers to basic_rf.o(i._Z19rf_security_set_keyPh) for rf_security_set_key(unsigned char*)
    bmac.o(i._Z23bmac_get_tx_done_signalv) refers to nrk_events.o(i._Z19nrk_signal_registera) for nrk_signal_register(signed char)
    bmac.o(i._Z23bmac_get_tx_done_signalv) refers to bmac.o(.data) for .data
    bmac.o(i._Z23bmac_tx_pkt_nonblockingPch) refers to bmac.o(.data) for .data
    bmac.o(i._Z23bmac_tx_pkt_nonblockingPch) refers to bmac.o(.bss) for .bss
    bmac.o(i._Z24bmac_addr_decode_disablev) refers to basic_rf.o(i._Z22rf_addr_decode_disablev) for rf_addr_decode_disable()
    bmac.o(i._Z24bmac_rx_pkt_is_encryptedv) refers to basic_rf.o(i._Z27rf_security_last_pkt_statusv) for rf_security_last_pkt_status()
    bmac.o(i._Z25bmac_addr_decode_dest_mact) refers to bmac.o(.bss) for .bss
    bmac.o(i._Z25bmac_rx_failure_count_getv) refers to bmac.o(.data) for .data
    bmac.o(i._Z27bmac_addr_decode_set_my_mact) refers to basic_rf.o(i._Z25rf_addr_decode_set_my_mact) for rf_addr_decode_set_my_mac(unsigned short)
    bmac.o(i._Z27bmac_rx_failure_count_resetv) refers to bmac.o(.data) for .data
    bmac.o(i._Z31bmac_encryption_set_ctr_counterPhh) refers to basic_rf.o(i._Z27rf_security_set_ctr_counterPh) for rf_security_set_ctr_counter(unsigned char*)
    bmac.o(i._Z8_bmac_rxv) refers to basic_rf.o(i._Z8rf_rx_onv) for rf_rx_on()
    bmac.o(i._Z8_bmac_rxv) refers to nrk_task.o(i._Z8nrk_wait10nrk_time_t) for nrk_wait(nrk_time_t)
    bmac.o(i._Z8_bmac_rxv) refers to basic_rf.o(i._Z9rf_rx_offv) for rf_rx_off()
    bmac.o(i._Z8_bmac_rxv) refers to basic_rf.o(i._Z15rf_rx_check_ccav) for rf_rx_check_cca()
    bmac.o(i._Z8_bmac_rxv) refers to basic_rf.o(i._Z12rf_rx_packetv) for rf_rx_packet()
    bmac.o(i._Z8_bmac_rxv) refers to bmac.o(.data) for .data
    bmac.o(i._Z8_bmac_txv) refers to nrk_time.o(i._Z18_nrk_time_to_ticksP10nrk_time_t) for _nrk_time_to_ticks(nrk_time_t*)
    bmac.o(i._Z8_bmac_txv) refers to rand.o(.emb_text) for rand
    bmac.o(i._Z8_bmac_txv) refers to nrk_task.o(i._Z20nrk_wait_until_tickst) for nrk_wait_until_ticks(unsigned short)
    bmac.o(i._Z8_bmac_txv) refers to bmac.o(i._Z19_bmac_channel_checkv) for _bmac_channel_check()
    bmac.o(i._Z8_bmac_txv) refers to basic_rf.o(i._Z9rf_rx_offv) for rf_rx_off()
    bmac.o(i._Z8_bmac_txv) refers to bmac.o(i._Z6_b_powh) for _b_pow(unsigned char)
    bmac.o(i._Z8_bmac_txv) refers to nrk_task.o(i._Z29nrk_wait_until_next_n_periodst) for nrk_wait_until_next_n_periods(unsigned short)
    bmac.o(i._Z8_bmac_txv) refers to basic_rf.o(i._Z12rf_test_modev) for rf_test_mode()
    bmac.o(i._Z8_bmac_txv) refers to basic_rf.o(i._Z13rf_carrier_onv) for rf_carrier_on()
    bmac.o(i._Z8_bmac_txv) refers to nrk_task.o(i._Z8nrk_wait10nrk_time_t) for nrk_wait(nrk_time_t)
    bmac.o(i._Z8_bmac_txv) refers to basic_rf.o(i._Z14rf_carrier_offv) for rf_carrier_off()
    bmac.o(i._Z8_bmac_txv) refers to basic_rf.o(i._Z12rf_data_modev) for rf_data_mode()
    bmac.o(i._Z8_bmac_txv) refers to basic_rf.o(i._Z12rf_tx_packetP10RF_TX_INFO) for rf_tx_packet(RF_TX_INFO*)
    bmac.o(i._Z8_bmac_txv) refers to nrk_events.o(i._Z16nrk_event_signala) for nrk_event_signal(signed char)
    bmac.o(i._Z8_bmac_txv) refers to bmac.o(.data) for .data
    bmac.o(i._Z8_bmac_txv) refers to bmac.o(.bss) for .bss
    bmac.o(i._Z9bmac_inith) refers to nrk_events.o(i._Z17nrk_signal_createv) for nrk_signal_create()
    bmac.o(i._Z9bmac_inith) refers to basic_rf.o(i._Z7rf_initP10RF_RX_INFOhtt) for rf_init(RF_RX_INFO*, unsigned char, unsigned short, unsigned short)
    bmac.o(i._Z9bmac_inith) refers to basic_rf.o(i._Z17rf_set_cca_thresha) for rf_set_cca_thresh(signed char)
    bmac.o(i._Z9bmac_inith) refers to basic_rf.o(i._Z22rf_addr_decode_disablev) for rf_addr_decode_disable()
    bmac.o(i._Z9bmac_inith) refers to bmac.o(.data) for .data
    bmac.o(i._Z9bmac_inith) refers to bmac.o(.bss) for .bss
    bmac.o(.ARM.exidx) refers to bmac.o(i._Z31bmac_encryption_set_ctr_counterPhh) for i._Z31bmac_encryption_set_ctr_counterPhh
    bmac.o(.ARM.exidx) refers to bmac.o(i._Z19bmac_tx_reserve_setP10nrk_time_tt) for i._Z19bmac_tx_reserve_setP10nrk_time_tt
    bmac.o(.ARM.exidx) refers to bmac.o(i._Z19bmac_tx_reserve_getv) for i._Z19bmac_tx_reserve_getv
    bmac.o(.ARM.exidx) refers to bmac.o(i._Z21bmac_auto_ack_disablev) for i._Z21bmac_auto_ack_disablev
    bmac.o(.ARM.exidx) refers to bmac.o(i._Z20bmac_auto_ack_enablev) for i._Z20bmac_auto_ack_enablev
    bmac.o(.ARM.exidx) refers to bmac.o(i._Z24bmac_addr_decode_disablev) for i._Z24bmac_addr_decode_disablev
    bmac.o(.ARM.exidx) refers to bmac.o(i._Z23bmac_addr_decode_enablev) for i._Z23bmac_addr_decode_enablev
    bmac.o(.ARM.exidx) refers to bmac.o(i._Z27bmac_addr_decode_set_my_mact) for i._Z27bmac_addr_decode_set_my_mact
    bmac.o(.ARM.exidx) refers to bmac.o(i._Z25bmac_addr_decode_dest_mact) for i._Z25bmac_addr_decode_dest_mact
    bmac.o(.ARM.exidx) refers to bmac.o(i._Z24bmac_rx_pkt_is_encryptedv) for i._Z24bmac_rx_pkt_is_encryptedv
    bmac.o(.ARM.exidx) refers to bmac.o(i._Z23bmac_encryption_set_keyPhh) for i._Z23bmac_encryption_set_keyPhh
    bmac.o(.ARM.exidx) refers to bmac.o(i._Z22bmac_encryption_enablev) for i._Z22bmac_encryption_enablev
    bmac.o(.ARM.exidx) refers to bmac.o(i._Z23bmac_encryption_disablev) for i._Z23bmac_encryption_disablev
    bmac.o(.ARM.exidx) refers to bmac.o(i._Z17bmac_set_rf_powerh) for i._Z17bmac_set_rf_powerh
    bmac.o(.ARM.exidx) refers to bmac.o(i._Z19bmac_set_cca_activeh) for i._Z19bmac_set_cca_activeh
    bmac.o(.ARM.exidx) refers to bmac.o(i._Z19bmac_set_cca_thresha) for i._Z19bmac_set_cca_thresha
    bmac.o(.ARM.exidx) refers to bmac.o(i._Z16bmac_set_channelh) for i._Z16bmac_set_channelh
    bmac.o(.ARM.exidx) refers to bmac.o(i._Z22bmac_wait_until_rx_pktv) for i._Z22bmac_wait_until_rx_pktv
    bmac.o(.ARM.exidx) refers to bmac.o(i._Z22bmac_rx_pkt_set_bufferPch) for i._Z22bmac_rx_pkt_set_bufferPch
    bmac.o(.ARM.exidx) refers to bmac.o(i._Z9bmac_inith) for i._Z9bmac_inith
    bmac.o(.ARM.exidx) refers to bmac.o(i._Z23bmac_tx_pkt_nonblockingPch) for i._Z23bmac_tx_pkt_nonblockingPch
    bmac.o(.ARM.exidx) refers to bmac.o(i._Z22bmac_get_rx_pkt_signalv) for i._Z22bmac_get_rx_pkt_signalv
    bmac.o(.ARM.exidx) refers to bmac.o(i._Z23bmac_get_tx_done_signalv) for i._Z23bmac_get_tx_done_signalv
    bmac.o(.ARM.exidx) refers to bmac.o(i._Z11bmac_tx_pktPch) for i._Z11bmac_tx_pktPch
    bmac.o(.ARM.exidx) refers to bmac.o(i._Z15bmac_rx_pkt_getPhS_) for i._Z15bmac_rx_pkt_getPhS_
    bmac.o(.ARM.exidx) refers to bmac.o(i._Z17bmac_rx_pkt_readyv) for i._Z17bmac_rx_pkt_readyv
    bmac.o(.ARM.exidx) refers to bmac.o(i._Z19bmac_rx_pkt_releasev) for i._Z19bmac_rx_pkt_releasev
    bmac.o(.ARM.exidx) refers to bmac.o(i._Z12bmac_disablev) for i._Z12bmac_disablev
    bmac.o(.ARM.exidx) refers to bmac.o(i._Z11bmac_enablev) for i._Z11bmac_enablev
    bmac.o(.ARM.exidx) refers to bmac.o(i._Z22bmac_set_rx_check_rate10nrk_time_t) for i._Z22bmac_set_rx_check_rate10nrk_time_t
    bmac.o(.ARM.exidx) refers to bmac.o(i._Z12bmac_startedv) for i._Z12bmac_startedv
    bmac.o(.ARM.exidx) refers to bmac.o(i._Z19_bmac_channel_checkv) for i._Z19_bmac_channel_checkv
    bmac.o(.ARM.exidx) refers to bmac.o(i._Z25bmac_rx_failure_count_getv) for i._Z25bmac_rx_failure_count_getv
    bmac.o(.ARM.exidx) refers to bmac.o(i._Z27bmac_rx_failure_count_resetv) for i._Z27bmac_rx_failure_count_resetv
    bmac.o(.ARM.exidx) refers to bmac.o(i._Z6_b_powh) for i._Z6_b_powh
    bmac.o(.ARM.exidx) refers to bmac.o(i._Z8_bmac_txv) for i._Z8_bmac_txv
    bmac.o(.ARM.exidx) refers to bmac.o(i._Z8_bmac_rxv) for i._Z8_bmac_rxv
    bmac.o(.ARM.exidx) refers to bmac.o(i._Z12bmac_nw_taskv) for i._Z12bmac_nw_taskv
    bmac.o(.ARM.exidx) refers to bmac.o(i._Z16bmac_task_configv) for i._Z16bmac_task_configv
    main.o(i._Z14mrfIsrCallbackv) refers to main.o(.data) for .data
    main.o(i._Z18nrk_create_tasksetv) refers to nrk_cpu.o(i._Z16nrk_task_set_stkP9task_typePjt) for nrk_task_set_stk(task_type*, unsigned*, unsigned short)
    main.o(i._Z18nrk_create_tasksetv) refers to nrk_task.o(i._Z17nrk_activate_taskP9task_type) for nrk_activate_task(task_type*)
    main.o(i._Z18nrk_create_tasksetv) refers to main.o(i._Z7rx_taskv) for rx_task()
    main.o(i._Z18nrk_create_tasksetv) refers to main.o(.bss) for .bss
    main.o(i._Z18nrk_create_tasksetv) refers to main.o(t._Z11rprint_taskILi3EEvv) for void rprint_task<(int)3>()
    main.o(i._Z18nrk_create_tasksetv) refers to main.o(i._Z7tx_taskv) for tx_task()
    main.o(i._Z7rx_taskv) refers to bmac.o(i._Z9bmac_inith) for bmac_init(unsigned char)
    main.o(i._Z7rx_taskv) refers to bmac.o(i._Z21bmac_auto_ack_disablev) for bmac_auto_ack_disable()
    main.o(i._Z7rx_taskv) refers to bmac.o(i._Z22bmac_set_rx_check_rate10nrk_time_t) for bmac_set_rx_check_rate(nrk_time_t)
    main.o(i._Z7rx_taskv) refers to bmac.o(i._Z19bmac_set_cca_thresha) for bmac_set_cca_thresh(signed char)
    main.o(i._Z7rx_taskv) refers to bmac.o(i._Z22bmac_rx_pkt_set_bufferPch) for bmac_rx_pkt_set_buffer(char*, unsigned char)
    main.o(i._Z7rx_taskv) refers to bmac.o(i._Z22bmac_wait_until_rx_pktv) for bmac_wait_until_rx_pkt()
    main.o(i._Z7rx_taskv) refers to bmac.o(i._Z15bmac_rx_pkt_getPhS_) for bmac_rx_pkt_get(unsigned char*, unsigned char*)
    main.o(i._Z7rx_taskv) refers to strncmp.o(.text) for strncmp
    main.o(i._Z7rx_taskv) refers to strcpy.o(.text) for strcpy
    main.o(i._Z7rx_taskv) refers to bmac.o(i._Z19bmac_rx_pkt_releasev) for bmac_rx_pkt_release()
    main.o(i._Z7rx_taskv) refers to nrk_task.o(i._Z26nrk_wait_until_next_periodv) for nrk_wait_until_next_period()
    main.o(i._Z7rx_taskv) refers to main.o(.bss) for .bss
    main.o(i._Z7rx_taskv) refers to main.o(.data) for .data
    main.o(i._Z7tx_taskv) refers to nrk_task.o(i._Z26nrk_wait_until_next_periodv) for nrk_wait_until_next_period()
    main.o(i._Z7tx_taskv) refers to bmac.o(i._Z12bmac_startedv) for bmac_started()
    main.o(i._Z7tx_taskv) refers to bmac.o(i._Z22bmac_set_rx_check_rate10nrk_time_t) for bmac_set_rx_check_rate(nrk_time_t)
    main.o(i._Z7tx_taskv) refers to bmac.o(i._Z23bmac_get_tx_done_signalv) for bmac_get_tx_done_signal()
    main.o(i._Z7tx_taskv) refers to nrk_events.o(i._Z19nrk_signal_registera) for nrk_signal_register(signed char)
    main.o(i._Z7tx_taskv) refers to bmac.o(i._Z27bmac_addr_decode_set_my_mact) for bmac_addr_decode_set_my_mac(unsigned short)
    main.o(i._Z7tx_taskv) refers to bmac.o(i._Z25bmac_addr_decode_dest_mact) for bmac_addr_decode_dest_mac(unsigned short)
    main.o(i._Z7tx_taskv) refers to strlen.o(.text) for strlen
    main.o(i._Z7tx_taskv) refers to bmac.o(i._Z23bmac_addr_decode_enablev) for bmac_addr_decode_enable()
    main.o(i._Z7tx_taskv) refers to bmac.o(i._Z11bmac_tx_pktPch) for bmac_tx_pkt(char*, unsigned char)
    main.o(i._Z7tx_taskv) refers to main.o(.data) for .data
    main.o(i._Z7tx_taskv) refers to main.o(.bss) for .bss
    main.o(i.__sti___8_main_cpp_b3a1db73) refers to aeabi_atexit.o(.text) for __aeabi_atexit
    main.o(i.__sti___8_main_cpp_b3a1db73) refers to Serial.cpp.lpc1768.arm.o(i._ZN4mbed6SerialC1E7PinNameS1_PKc) for mbed::Serial::Serial(PinName, PinName, const char*)
    main.o(i.__sti___8_main_cpp_b3a1db73) refers to main.o(.bss) for .bss
    main.o(i.__sti___8_main_cpp_b3a1db73) refers to main.o(t._ZNSt6vectorI9relay_msgSaIS0_EED1Ev) for std::vector<relay_msg, std::allocator<relay_msg>>::~vector()
    main.o(i.__sti___8_main_cpp_b3a1db73) refers to Serial.cpp.lpc1768.arm.o(i._ZN4mbed6SerialD1Ev) for mbed::Serial::~Serial()
    main.o(i.main) refers to ulib.o(i._Z15nrk_setup_portsv) for nrk_setup_ports()
    main.o(i.main) refers to nrk.o(i._Z8nrk_initv) for nrk_init()
    main.o(i.main) refers to bmac.o(i._Z16bmac_task_configv) for bmac_task_config()
    main.o(i.main) refers to main.o(i._Z18nrk_create_tasksetv) for nrk_create_taskset()
    main.o(i.main) refers to nrk.o(i._Z9nrk_startv) for nrk_start()
    main.o(.ARM.exidx) refers to main.o(i._Z14mrfIsrCallbackv) for i._Z14mrfIsrCallbackv
    main.o(.ARM.exidx) refers to main.o(i._Z7tx_taskv) for i._Z7tx_taskv
    main.o(.ARM.exidx) refers to main.o(i._Z7rx_taskv) for i._Z7rx_taskv
    main.o(.ARM.exidx) refers to main.o(i._Z18nrk_create_tasksetv) for i._Z18nrk_create_tasksetv
    main.o(.ARM.exidx) refers to main.o(i.main) for i.main
    main.o(.ARM.exidx) refers to main.o(i.__sti___8_main_cpp_b3a1db73) for i.__sti___8_main_cpp_b3a1db73
    main.o(.init_array) refers to main.o(i.__sti___8_main_cpp_b3a1db73) for __sti___8_main_cpp_b3a1db73
    main.o(.init_array) refers to init_aeabi.o(.text) for __cpp_initialize__aeabi_
    startup_LPC17xx.o(RESET) refers to startup_LPC17xx.o(.text) for Reset_Handler
    startup_LPC17xx.o(RESET) refers to my_asm.o(.text) for PendSV_Handler
    startup_LPC17xx.o(RESET) refers to nrk_timer.o(i.TIMER0_IRQHandler) for TIMER0_IRQHandler
    startup_LPC17xx.o(RESET) refers to nrk_timer.o(i.TIMER1_IRQHandler) for TIMER1_IRQHandler
    startup_LPC17xx.o(RESET) refers to basic_rf.o(i.EINT3_IRQHandler) for EINT3_IRQHandler
    startup_LPC17xx.o(.text) refers to system_LPC17xx.o(i.SystemInit) for SystemInit
    startup_LPC17xx.o(.text) refers to __main.o(!!!main) for __main
    system_LPC17xx.o(i.SystemCoreClockUpdate) refers to system_LPC17xx.o(.data) for .data
    cmsis_nvic.o(i.NVIC_SetVector) refers to cmsis_nvic.o(.ARM.__AT_0x10000000) for .ARM.__AT_0x10000000
    wait_api.c.lpc1768.arm.o(i.wait) refers to f2d.o(x$fpl$f2d) for __aeabi_f2d
    wait_api.c.lpc1768.arm.o(i.wait) refers to dmul.o(x$fpl$dmul) for __aeabi_dmul
    wait_api.c.lpc1768.arm.o(i.wait) refers to dfix.o(x$fpl$dfix) for __aeabi_d2iz
    wait_api.c.lpc1768.arm.o(i.wait) refers to us_ticker_api.c.lpc1768.arm.o(i.us_ticker_read) for us_ticker_read
    wait_api.c.lpc1768.arm.o(i.wait_ms) refers to us_ticker_api.c.lpc1768.arm.o(i.us_ticker_read) for us_ticker_read
    wait_api.c.lpc1768.arm.o(i.wait_us) refers to us_ticker_api.c.lpc1768.arm.o(i.us_ticker_read) for us_ticker_read
    Serial.cpp.lpc1768.arm.o(i._ZN4mbed6Serial13get_rpc_classEv) refers to Serial.cpp.lpc1768.arm.o(.data) for .data
    Serial.cpp.lpc1768.arm.o(i._ZN4mbed6Serial15get_rpc_methodsEv) refers to Serial.cpp.lpc1768.arm.o(.constdata) for .constdata
    Serial.cpp.lpc1768.arm.o(i._ZN4mbed6Serial15setup_interruptEv) refers to cmsis_nvic.o(i.NVIC_SetVector) for NVIC_SetVector
    Serial.cpp.lpc1768.arm.o(i._ZN4mbed6Serial15setup_interruptEv) refers to Serial.cpp.lpc1768.arm.o(.bss) for .bss
    Serial.cpp.lpc1768.arm.o(i._ZN4mbed6Serial15setup_interruptEv) refers to Serial.cpp.lpc1768.arm.o(i._ZN4mbed9uart3_irqEv) for mbed::uart3_irq()
    Serial.cpp.lpc1768.arm.o(i._ZN4mbed6Serial15setup_interruptEv) refers to Serial.cpp.lpc1768.arm.o(i._ZN4mbed9uart0_irqEv) for mbed::uart0_irq()
    Serial.cpp.lpc1768.arm.o(i._ZN4mbed6Serial15setup_interruptEv) refers to Serial.cpp.lpc1768.arm.o(i._ZN4mbed9uart1_irqEv) for mbed::uart1_irq()
    Serial.cpp.lpc1768.arm.o(i._ZN4mbed6Serial15setup_interruptEv) refers to Serial.cpp.lpc1768.arm.o(i._ZN4mbed9uart2_irqEv) for mbed::uart2_irq()
    Serial.cpp.lpc1768.arm.o(i._ZN4mbed6Serial4baudEi) refers to serial_api.c.lpc1768.arm.o(i.serial_baud) for serial_baud
    Serial.cpp.lpc1768.arm.o(i._ZN4mbed6Serial5_getcEv) refers to serial_api.c.lpc1768.arm.o(i.serial_getc) for serial_getc
    Serial.cpp.lpc1768.arm.o(i._ZN4mbed6Serial5_putcEi) refers to serial_api.c.lpc1768.arm.o(i.serial_putc) for serial_putc
    Serial.cpp.lpc1768.arm.o(i._ZN4mbed6Serial6attachEPFvvE) refers to Serial.cpp.lpc1768.arm.o(i._ZN4mbed6Serial16remove_interruptEv) for mbed::Serial::remove_interrupt()
    Serial.cpp.lpc1768.arm.o(i._ZN4mbed6Serial6attachEPFvvE) refers to FunctionPointer.cpp.lpc1768.arm.o(i._ZN4mbed15FunctionPointer6attachEPFvvE) for mbed::FunctionPointer::attach(void(*)())
    Serial.cpp.lpc1768.arm.o(i._ZN4mbed6Serial6attachEPFvvE) refers to Serial.cpp.lpc1768.arm.o(i._ZN4mbed6Serial15setup_interruptEv) for mbed::Serial::setup_interrupt()
    Serial.cpp.lpc1768.arm.o(i._ZN4mbed6Serial6formatEiNS0_6ParityEi) refers to serial_api.c.lpc1768.arm.o(i.serial_format) for serial_format
    Serial.cpp.lpc1768.arm.o(i._ZN4mbed6Serial8readableEv) refers to serial_api.c.lpc1768.arm.o(i.serial_readable) for serial_readable
    Serial.cpp.lpc1768.arm.o(i._ZN4mbed6Serial9writeableEv) refers to serial_api.c.lpc1768.arm.o(i.serial_writable) for serial_writable
    Serial.cpp.lpc1768.arm.o(i._ZN4mbed6SerialC1E7PinNameS1_PKc) refers to Stream.cpp.lpc1768.arm.o(i._ZN4mbed6StreamC2EPKc) for mbed::Stream::Stream__sub_object(const char*)
    Serial.cpp.lpc1768.arm.o(i._ZN4mbed6SerialC1E7PinNameS1_PKc) refers to FunctionPointer.cpp.lpc1768.arm.o(i._ZN4mbed15FunctionPointerC1EPFvvE) for mbed::FunctionPointer::FunctionPointer(void(*)())
    Serial.cpp.lpc1768.arm.o(i._ZN4mbed6SerialC1E7PinNameS1_PKc) refers to serial_api.c.lpc1768.arm.o(i.serial_init) for serial_init
    Serial.cpp.lpc1768.arm.o(i._ZN4mbed6SerialC1E7PinNameS1_PKc) refers to Serial.cpp.lpc1768.arm.o(.constdata__ZTVN4mbed6SerialE) for vtable for mbed::Serial
    Serial.cpp.lpc1768.arm.o(i._ZN4mbed9uart0_irqEv) refers to FunctionPointer.cpp.lpc1768.arm.o(i._ZN4mbed15FunctionPointer4callEv) for mbed::FunctionPointer::call()
    Serial.cpp.lpc1768.arm.o(i._ZN4mbed9uart0_irqEv) refers to Serial.cpp.lpc1768.arm.o(.bss) for .bss
    Serial.cpp.lpc1768.arm.o(i._ZN4mbed9uart1_irqEv) refers to FunctionPointer.cpp.lpc1768.arm.o(i._ZN4mbed15FunctionPointer4callEv) for mbed::FunctionPointer::call()
    Serial.cpp.lpc1768.arm.o(i._ZN4mbed9uart1_irqEv) refers to Serial.cpp.lpc1768.arm.o(.bss) for .bss
    Serial.cpp.lpc1768.arm.o(i._ZN4mbed9uart2_irqEv) refers to FunctionPointer.cpp.lpc1768.arm.o(i._ZN4mbed15FunctionPointer4callEv) for mbed::FunctionPointer::call()
    Serial.cpp.lpc1768.arm.o(i._ZN4mbed9uart2_irqEv) refers to Serial.cpp.lpc1768.arm.o(.bss) for .bss
    Serial.cpp.lpc1768.arm.o(i._ZN4mbed9uart3_irqEv) refers to FunctionPointer.cpp.lpc1768.arm.o(i._ZN4mbed15FunctionPointer4callEv) for mbed::FunctionPointer::call()
    Serial.cpp.lpc1768.arm.o(i._ZN4mbed9uart3_irqEv) refers to Serial.cpp.lpc1768.arm.o(.bss) for .bss
    Serial.cpp.lpc1768.arm.o(.ARM.exidx) refers to Serial.cpp.lpc1768.arm.o(i._ZN4mbed6SerialC1E7PinNameS1_PKc) for i._ZN4mbed6SerialC1E7PinNameS1_PKc
    Serial.cpp.lpc1768.arm.o(.ARM.exidx) refers to Serial.cpp.lpc1768.arm.o(i._ZN4mbed6Serial4baudEi) for i._ZN4mbed6Serial4baudEi
    Serial.cpp.lpc1768.arm.o(.ARM.exidx) refers to Serial.cpp.lpc1768.arm.o(i._ZN4mbed6Serial6formatEiNS0_6ParityEi) for i._ZN4mbed6Serial6formatEiNS0_6ParityEi
    Serial.cpp.lpc1768.arm.o(.ARM.exidx) refers to Serial.cpp.lpc1768.arm.o(i._ZN4mbed6Serial8readableEv) for i._ZN4mbed6Serial8readableEv
    Serial.cpp.lpc1768.arm.o(.ARM.exidx) refers to Serial.cpp.lpc1768.arm.o(i._ZN4mbed6Serial9writeableEv) for i._ZN4mbed6Serial9writeableEv
    Serial.cpp.lpc1768.arm.o(.ARM.exidx) refers to Serial.cpp.lpc1768.arm.o(i._ZN4mbed6Serial16remove_interruptEv) for i._ZN4mbed6Serial16remove_interruptEv
    Serial.cpp.lpc1768.arm.o(.ARM.exidx) refers to Serial.cpp.lpc1768.arm.o(i._ZN4mbed9uart3_irqEv) for i._ZN4mbed9uart3_irqEv
    Serial.cpp.lpc1768.arm.o(.ARM.exidx) refers to Serial.cpp.lpc1768.arm.o(i._ZN4mbed9uart2_irqEv) for i._ZN4mbed9uart2_irqEv
    Serial.cpp.lpc1768.arm.o(.ARM.exidx) refers to Serial.cpp.lpc1768.arm.o(i._ZN4mbed9uart1_irqEv) for i._ZN4mbed9uart1_irqEv
    Serial.cpp.lpc1768.arm.o(.ARM.exidx) refers to Serial.cpp.lpc1768.arm.o(i._ZN4mbed9uart0_irqEv) for i._ZN4mbed9uart0_irqEv
    Serial.cpp.lpc1768.arm.o(.ARM.exidx) refers to Serial.cpp.lpc1768.arm.o(i._ZN4mbed6Serial15setup_interruptEv) for i._ZN4mbed6Serial15setup_interruptEv
    Serial.cpp.lpc1768.arm.o(.ARM.exidx) refers to Serial.cpp.lpc1768.arm.o(i._ZN4mbed6Serial6attachEPFvvE) for i._ZN4mbed6Serial6attachEPFvvE
    Serial.cpp.lpc1768.arm.o(.ARM.exidx) refers to Serial.cpp.lpc1768.arm.o(i._ZN4mbed6Serial15get_rpc_methodsEv) for i._ZN4mbed6Serial15get_rpc_methodsEv
    Serial.cpp.lpc1768.arm.o(.ARM.exidx) refers to Serial.cpp.lpc1768.arm.o(i._ZN4mbed6Serial13get_rpc_classEv) for i._ZN4mbed6Serial13get_rpc_classEv
    Serial.cpp.lpc1768.arm.o(.ARM.exidx) refers to Serial.cpp.lpc1768.arm.o(i._ZN4mbed6Serial5_getcEv) for i._ZN4mbed6Serial5_getcEv
    Serial.cpp.lpc1768.arm.o(.ARM.exidx) refers to Serial.cpp.lpc1768.arm.o(i._ZN4mbed6Serial5_putcEi) for i._ZN4mbed6Serial5_putcEi
    Serial.cpp.lpc1768.arm.o(.constdata) refers to Serial.cpp.lpc1768.arm.o(i._ZN4mbed6Serial4baudEi) for mbed::Serial::baud(int)
    Serial.cpp.lpc1768.arm.o(.constdata) refers to Serial.cpp.lpc1768.arm.o(i._ZN4mbed6Serial8readableEv) for mbed::Serial::readable()
    Serial.cpp.lpc1768.arm.o(.constdata) refers to Serial.cpp.lpc1768.arm.o(i._ZN4mbed6Serial9writeableEv) for mbed::Serial::writeable()
    Serial.cpp.lpc1768.arm.o(.constdata) refers to Serial.cpp.lpc1768.arm.o(.conststring) for .conststring
    Serial.cpp.lpc1768.arm.o(.constdata) refers to Serial.cpp.lpc1768.arm.o(t._ZN4mbed17rpc_method_callerINS_6SerialEiXadL_ZNS1_4baudEiEEEEvPNS_4BaseEPKcPc) for void mbed::rpc_method_caller<mbed::Serial, int, (&mbed::Serial::baud)>(mbed::Base*, const char*, char*)
    Serial.cpp.lpc1768.arm.o(.constdata) refers to Serial.cpp.lpc1768.arm.o(t._ZN4mbed17rpc_method_callerIiNS_6SerialEXadL_ZNS1_8readableEvEEEEvPNS_4BaseEPKcPc) for void mbed::rpc_method_caller<int, mbed::Serial, (&mbed::Serial::readable)>(mbed::Base*, const char*, char*)
    Serial.cpp.lpc1768.arm.o(.constdata) refers to Serial.cpp.lpc1768.arm.o(t._ZN4mbed17rpc_method_callerIiNS_6SerialEXadL_ZNS1_9writeableEvEEEEvPNS_4BaseEPKcPc) for void mbed::rpc_method_caller<int, mbed::Serial, (&mbed::Serial::writeable)>(mbed::Base*, const char*, char*)
    Serial.cpp.lpc1768.arm.o(.constdata) refers to Serial.cpp.lpc1768.arm.o(t._ZN4mbed9rpc_superINS_6StreamEEEPKNS_10rpc_methodEPNS_4BaseE) for const mbed::rpc_method* mbed::rpc_super<mbed::Stream>(mbed::Base*)
    Serial.cpp.lpc1768.arm.o(.constdata) refers to Serial.cpp.lpc1768.arm.o(.conststring) for .conststring
    Serial.cpp.lpc1768.arm.o(.constdata) refers to Serial.cpp.lpc1768.arm.o(t._ZN4mbed19rpc_function_callerIPKc7PinNameS3_S2_XadL_ZNS_4Base9constructINS_6SerialES3_S3_S2_EES2_T0_T1_T2_EEEEvS2_Pc) for void mbed::rpc_function_caller<const char*, PinName, PinName, const char*, (&mbed::Base::construct<mbed::Serial, PinName, PinName, const char*>)>(const char*, char*)
    Serial.cpp.lpc1768.arm.o(.data) refers to Serial.cpp.lpc1768.arm.o(.conststring) for .conststring
    Serial.cpp.lpc1768.arm.o(.data) refers to Serial.cpp.lpc1768.arm.o(.constdata) for funcs
    Stream.cpp.lpc1768.arm.o(i._ZN4mbed6Stream15get_rpc_methodsEv) refers to Stream.cpp.lpc1768.arm.o(.constdata) for .constdata
    Stream.cpp.lpc1768.arm.o(i._ZN4mbed6Stream5scanfEPKcz) refers to fflush.o(.text) for fflush
    Stream.cpp.lpc1768.arm.o(i._ZN4mbed6Stream5scanfEPKcz) refers to vfscanf.o(.text) for vfscanf
    Stream.cpp.lpc1768.arm.o(i._ZN4mbed6Stream6printfEPKcz) refers to fflush.o(.text) for fflush
    Stream.cpp.lpc1768.arm.o(i._ZN4mbed6Stream6printfEPKcz) refers to vfprintf.o(.text) for vfprintf
    Stream.cpp.lpc1768.arm.o(i._ZN4mbed6StreamC2EPKc) refers to Base.cpp.lpc1768.arm.o(i._ZN4mbed4BaseC1EPKc) for mbed::Base::Base(const char*)
    Stream.cpp.lpc1768.arm.o(i._ZN4mbed6StreamC2EPKc) refers to sprintf.o(.text) for sprintf
    Stream.cpp.lpc1768.arm.o(i._ZN4mbed6StreamC2EPKc) refers to fopen.o(.text) for fopen
    Stream.cpp.lpc1768.arm.o(i._ZN4mbed6StreamC2EPKc) refers to setbuf.o(.text) for setbuf
    Stream.cpp.lpc1768.arm.o(i._ZN4mbed6StreamC2EPKc) refers to Stream.cpp.lpc1768.arm.o(.constdata__ZTVN4mbed6StreamE) for vtable for mbed::Stream
    Stream.cpp.lpc1768.arm.o(i._ZN4mbed6StreamD0Ev) refers to fclose.o(.text) for fclose
    Stream.cpp.lpc1768.arm.o(i._ZN4mbed6StreamD0Ev) refers to stdio.cpp.lpc1768.arm.o(i._ZN4mbed8FileLikeD2Ev) for mbed::FileLike::~FileLike__sub_object()
    Stream.cpp.lpc1768.arm.o(i._ZN4mbed6StreamD0Ev) refers to delete.o(i._ZdlPv) for operator delete (void*)
    Stream.cpp.lpc1768.arm.o(i._ZN4mbed6StreamD0Ev) refers to Stream.cpp.lpc1768.arm.o(.constdata__ZTVN4mbed6StreamE) for vtable for mbed::Stream
    Stream.cpp.lpc1768.arm.o(i._ZN4mbed6StreamD2Ev) refers to fclose.o(.text) for fclose
    Stream.cpp.lpc1768.arm.o(i._ZN4mbed6StreamD2Ev) refers to stdio.cpp.lpc1768.arm.o(i._ZN4mbed8FileLikeD2Ev) for mbed::FileLike::~FileLike__sub_object()
    Stream.cpp.lpc1768.arm.o(i._ZN4mbed6StreamD2Ev) refers to Stream.cpp.lpc1768.arm.o(.constdata__ZTVN4mbed6StreamE) for vtable for mbed::Stream
    Stream.cpp.lpc1768.arm.o(.ARM.exidx) refers to Stream.cpp.lpc1768.arm.o(i._ZN4mbed6StreamC2EPKc) for i._ZN4mbed6StreamC2EPKc
    Stream.cpp.lpc1768.arm.o(.ARM.exidx) refers to Stream.cpp.lpc1768.arm.o(i._ZN4mbed6StreamD2Ev) for i._ZN4mbed6StreamD2Ev
    Stream.cpp.lpc1768.arm.o(.ARM.exidx) refers to Stream.cpp.lpc1768.arm.o(i._ZN4mbed6StreamD0Ev) for i._ZN4mbed6StreamD0Ev
    Stream.cpp.lpc1768.arm.o(.ARM.exidx) refers to Stream.cpp.lpc1768.arm.o(i._ZN4mbed6Stream6printfEPKcz) for i._ZN4mbed6Stream6printfEPKcz
    Stream.cpp.lpc1768.arm.o(.ARM.exidx) refers to Stream.cpp.lpc1768.arm.o(i._ZN4mbed6Stream5scanfEPKcz) for i._ZN4mbed6Stream5scanfEPKcz
    Stream.cpp.lpc1768.arm.o(.ARM.exidx) refers to Stream.cpp.lpc1768.arm.o(i._ZN4mbed6Stream15get_rpc_methodsEv) for i._ZN4mbed6Stream15get_rpc_methodsEv
    Stream.cpp.lpc1768.arm.o(.ARM.exidx) refers to Stream.cpp.lpc1768.arm.o(i._ZN4mbed6Stream5closeEv) for i._ZN4mbed6Stream5closeEv
    Stream.cpp.lpc1768.arm.o(.ARM.exidx) refers to Stream.cpp.lpc1768.arm.o(i._ZThn16_N4mbed6Stream5closeEv) for i._ZThn16_N4mbed6Stream5closeEv
    Stream.cpp.lpc1768.arm.o(.ARM.exidx) refers to Stream.cpp.lpc1768.arm.o(i._ZN4mbed6Stream5writeEPKvj) for i._ZN4mbed6Stream5writeEPKvj
    Stream.cpp.lpc1768.arm.o(.ARM.exidx) refers to Stream.cpp.lpc1768.arm.o(i._ZThn16_N4mbed6Stream5writeEPKvj) for i._ZThn16_N4mbed6Stream5writeEPKvj
    Stream.cpp.lpc1768.arm.o(.ARM.exidx) refers to Stream.cpp.lpc1768.arm.o(i._ZN4mbed6Stream4readEPvj) for i._ZN4mbed6Stream4readEPvj
    Stream.cpp.lpc1768.arm.o(.ARM.exidx) refers to Stream.cpp.lpc1768.arm.o(i._ZThn16_N4mbed6Stream4readEPvj) for i._ZThn16_N4mbed6Stream4readEPvj
    Stream.cpp.lpc1768.arm.o(.ARM.exidx) refers to Stream.cpp.lpc1768.arm.o(i._ZN4mbed6Stream5lseekEli) for i._ZN4mbed6Stream5lseekEli
    Stream.cpp.lpc1768.arm.o(.ARM.exidx) refers to Stream.cpp.lpc1768.arm.o(i._ZThn16_N4mbed6Stream5lseekEli) for i._ZThn16_N4mbed6Stream5lseekEli
    Stream.cpp.lpc1768.arm.o(.ARM.exidx) refers to Stream.cpp.lpc1768.arm.o(i._ZN4mbed6Stream6isattyEv) for i._ZN4mbed6Stream6isattyEv
    Stream.cpp.lpc1768.arm.o(.ARM.exidx) refers to Stream.cpp.lpc1768.arm.o(i._ZThn16_N4mbed6Stream6isattyEv) for i._ZThn16_N4mbed6Stream6isattyEv
    Stream.cpp.lpc1768.arm.o(.ARM.exidx) refers to Stream.cpp.lpc1768.arm.o(i._ZN4mbed6Stream5fsyncEv) for i._ZN4mbed6Stream5fsyncEv
    Stream.cpp.lpc1768.arm.o(.ARM.exidx) refers to Stream.cpp.lpc1768.arm.o(i._ZThn16_N4mbed6Stream5fsyncEv) for i._ZThn16_N4mbed6Stream5fsyncEv
    Stream.cpp.lpc1768.arm.o(.ARM.exidx) refers to Stream.cpp.lpc1768.arm.o(i._ZN4mbed6Stream4flenEv) for i._ZN4mbed6Stream4flenEv
    Stream.cpp.lpc1768.arm.o(.ARM.exidx) refers to Stream.cpp.lpc1768.arm.o(i._ZThn16_N4mbed6Stream4flenEv) for i._ZThn16_N4mbed6Stream4flenEv
    Stream.cpp.lpc1768.arm.o(.constdata) refers to Stream.cpp.lpc1768.arm.o(i._ZN4mbed6Stream4putcEi) for mbed::Stream::putc(int)
    Stream.cpp.lpc1768.arm.o(.constdata) refers to Stream.cpp.lpc1768.arm.o(i._ZN4mbed6Stream4getcEv) for mbed::Stream::getc()
    Stream.cpp.lpc1768.arm.o(.constdata) refers to Stream.cpp.lpc1768.arm.o(i._ZN4mbed6Stream4putsEPKc) for mbed::Stream::puts(const char*)
    Stream.cpp.lpc1768.arm.o(.constdata) refers to Stream.cpp.lpc1768.arm.o(.conststring) for .conststring
    Stream.cpp.lpc1768.arm.o(.constdata) refers to Stream.cpp.lpc1768.arm.o(t._ZN4mbed17rpc_method_callerIiNS_6StreamEiXadL_ZNS1_4putcEiEEEEvPNS_4BaseEPKcPc) for void mbed::rpc_method_caller<int, mbed::Stream, int, (&mbed::Stream::putc)>(mbed::Base*, const char*, char*)
    Stream.cpp.lpc1768.arm.o(.constdata) refers to Stream.cpp.lpc1768.arm.o(t._ZN4mbed17rpc_method_callerIiNS_6StreamEXadL_ZNS1_4getcEvEEEEvPNS_4BaseEPKcPc) for void mbed::rpc_method_caller<int, mbed::Stream, (&mbed::Stream::getc)>(mbed::Base*, const char*, char*)
    Stream.cpp.lpc1768.arm.o(.constdata) refers to Stream.cpp.lpc1768.arm.o(t._ZN4mbed17rpc_method_callerIiNS_6StreamEPKcXadL_ZNS1_4putsES3_EEEEvPNS_4BaseES3_Pc) for void mbed::rpc_method_caller<int, mbed::Stream, const char*, (&mbed::Stream::puts)>(mbed::Base*, const char*, char*)
    Stream.cpp.lpc1768.arm.o(.constdata) refers to Stream.cpp.lpc1768.arm.o(t._ZN4mbed9rpc_superINS_4BaseEEEPKNS_10rpc_methodEPS1_) for const mbed::rpc_method* mbed::rpc_super<mbed::Base>(mbed::Base*)
    serial_api.c.lpc1768.arm.o(i.serial_baud) refers to fflt_clz.o(x$fpl$fflt) for __aeabi_i2f
    serial_api.c.lpc1768.arm.o(i.serial_baud) refers to scalbnf.o(i.scalbnf) for scalbnf
    serial_api.c.lpc1768.arm.o(i.serial_baud) refers to fmul.o(x$fpl$fmul) for __aeabi_fmul
    serial_api.c.lpc1768.arm.o(i.serial_baud) refers to fflt_clz.o(x$fpl$ffltu) for __aeabi_ui2f
    serial_api.c.lpc1768.arm.o(i.serial_baud) refers to fdiv.o(x$fpl$fdiv) for __aeabi_fdiv
    serial_api.c.lpc1768.arm.o(i.serial_baud) refers to faddsub_clz.o(x$fpl$fadd) for __aeabi_fadd
    serial_api.c.lpc1768.arm.o(i.serial_baud) refers to ffix.o(x$fpl$ffix) for __aeabi_f2iz
    serial_api.c.lpc1768.arm.o(i.serial_baud) refers to assert.o(.text) for __aeabi_assert
    serial_api.c.lpc1768.arm.o(i.serial_baud) refers to system_LPC17xx.o(.data) for SystemCoreClock
    serial_api.c.lpc1768.arm.o(i.serial_format) refers to fprintf.o(.text) for fprintf
    serial_api.c.lpc1768.arm.o(i.serial_format) refers to exit.c.lpc1768.arm.o(i.exit) for exit
    serial_api.c.lpc1768.arm.o(i.serial_format) refers to stdio_streams.o(.data) for __aeabi_stderr
    serial_api.c.lpc1768.arm.o(i.serial_format) refers to serial_api.c.lpc1768.arm.o(.constdata) for .constdata
    serial_api.c.lpc1768.arm.o(i.serial_init) refers to pinmap.c.lpc1768.arm.o(i.pinmap_peripheral) for pinmap_peripheral
    serial_api.c.lpc1768.arm.o(i.serial_init) refers to pinmap.c.lpc1768.arm.o(i.pinmap_merge) for pinmap_merge
    serial_api.c.lpc1768.arm.o(i.serial_init) refers to fprintf.o(.text) for fprintf
    serial_api.c.lpc1768.arm.o(i.serial_init) refers to exit.c.lpc1768.arm.o(i.exit) for exit
    serial_api.c.lpc1768.arm.o(i.serial_init) refers to serial_api.c.lpc1768.arm.o(i.serial_baud) for serial_baud
    serial_api.c.lpc1768.arm.o(i.serial_init) refers to serial_api.c.lpc1768.arm.o(i.serial_format) for serial_format
    serial_api.c.lpc1768.arm.o(i.serial_init) refers to pinmap.c.lpc1768.arm.o(i.pinmap_pinout) for pinmap_pinout
    serial_api.c.lpc1768.arm.o(i.serial_init) refers to serial_api.c.lpc1768.arm.o(.constdata) for .constdata
    serial_api.c.lpc1768.arm.o(i.serial_init) refers to stdio_streams.o(.data) for __aeabi_stderr
    us_ticker_api.c.lpc1768.arm.o(i.us_ticker_read) refers to timer_api.c.lpc1768.arm.o(i.timer_init) for timer_init
    us_ticker_api.c.lpc1768.arm.o(i.us_ticker_read) refers to timer_api.c.lpc1768.arm.o(i.timer_frequency) for timer_frequency
    us_ticker_api.c.lpc1768.arm.o(i.us_ticker_read) refers to timer_api.c.lpc1768.arm.o(i.timer_start) for timer_start
    us_ticker_api.c.lpc1768.arm.o(i.us_ticker_read) refers to timer_api.c.lpc1768.arm.o(i.timer_read) for timer_read
    us_ticker_api.c.lpc1768.arm.o(i.us_ticker_read) refers to us_ticker_api.c.lpc1768.arm.o(.data) for .data
    FunctionPointer.cpp.lpc1768.arm.o(.ARM.exidx) refers to FunctionPointer.cpp.lpc1768.arm.o(i._ZN4mbed15FunctionPointer6attachEPFvvE) for i._ZN4mbed15FunctionPointer6attachEPFvvE
    FunctionPointer.cpp.lpc1768.arm.o(.ARM.exidx) refers to FunctionPointer.cpp.lpc1768.arm.o(i._ZN4mbed15FunctionPointerC1EPFvvE) for i._ZN4mbed15FunctionPointerC1EPFvvE
    FunctionPointer.cpp.lpc1768.arm.o(.ARM.exidx) refers to FunctionPointer.cpp.lpc1768.arm.o(i._ZN4mbed15FunctionPointer4callEv) for i._ZN4mbed15FunctionPointer4callEv
    Base.cpp.lpc1768.arm.o(i._ZN4mbed4Base11delete_selfEv) refers to array_del.o(i._ZdaPv) for operator delete[] (void*)
    Base.cpp.lpc1768.arm.o(i._ZN4mbed4Base15get_rpc_methodsEv) refers to Base.cpp.lpc1768.arm.o(.constdata) for .constdata
    Base.cpp.lpc1768.arm.o(i._ZN4mbed4Base15register_objectEPKc) refers to Base.cpp.lpc1768.arm.o(.data) for .data
    Base.cpp.lpc1768.arm.o(i._ZN4mbed4Base3rpcEPKcS2_Pc) refers to sprintf.o(.text) for sprintf
    Base.cpp.lpc1768.arm.o(i._ZN4mbed4Base3rpcEPKcS2_Pc) refers to strcmpv7m.o(.text) for strcmp
    Base.cpp.lpc1768.arm.o(i._ZN4mbed4Base3rpcEPKcS2_S2_Pc) refers to sprintf.o(.text) for sprintf
    Base.cpp.lpc1768.arm.o(i._ZN4mbed4Base3rpcEPKcS2_S2_Pc) refers to strlen.o(.text) for strlen
    Base.cpp.lpc1768.arm.o(i._ZN4mbed4Base3rpcEPKcS2_S2_Pc) refers to strncmp.o(.text) for strncmp
    Base.cpp.lpc1768.arm.o(i._ZN4mbed4Base3rpcEPKcS2_S2_Pc) refers to strcmpv7m.o(.text) for strcmp
    Base.cpp.lpc1768.arm.o(i._ZN4mbed4Base3rpcEPKcS2_S2_Pc) refers to Base.cpp.lpc1768.arm.o(.data) for .data
    Base.cpp.lpc1768.arm.o(i._ZN4mbed4Base5clearEPKcPc) refers to array_del.o(i._ZdaPv) for operator delete[] (void*)
    Base.cpp.lpc1768.arm.o(i._ZN4mbed4Base5clearEPKcPc) refers to Base.cpp.lpc1768.arm.o(.data) for .data
    Base.cpp.lpc1768.arm.o(i._ZN4mbed4Base6lookupEPKcj) refers to strncmp.o(.text) for strncmp
    Base.cpp.lpc1768.arm.o(i._ZN4mbed4Base6lookupEPKcj) refers to strlen.o(.text) for strlen
    Base.cpp.lpc1768.arm.o(i._ZN4mbed4Base6lookupEPKcj) refers to Base.cpp.lpc1768.arm.o(.data) for .data
    Base.cpp.lpc1768.arm.o(i._ZN4mbed4Base7opendirEv) refers to new.o(i._Znwj) for operator new(unsigned)
    Base.cpp.lpc1768.arm.o(i._ZN4mbed4Base7opendirEv) refers to Base.cpp.lpc1768.arm.o(.constdata__ZTVN4mbed13BaseDirHandleE) for vtable for mbed::BaseDirHandle
    Base.cpp.lpc1768.arm.o(i._ZN4mbed4Base8new_nameEPS0_) refers to array_new.o(i._Znaj) for operator new[] (unsigned)
    Base.cpp.lpc1768.arm.o(i._ZN4mbed4Base8new_nameEPS0_) refers to sprintf.o(.text) for sprintf
    Base.cpp.lpc1768.arm.o(i._ZN4mbed4Base9list_objsEPKcPc) refers to sprintf.o(.text) for sprintf
    Base.cpp.lpc1768.arm.o(i._ZN4mbed4Base9list_objsEPKcPc) refers to Base.cpp.lpc1768.arm.o(.data) for .data
    Base.cpp.lpc1768.arm.o(i._ZN4mbed4BaseC1EPKc) refers to Base.cpp.lpc1768.arm.o(.constdata__ZTVN4mbed4BaseE) for vtable for mbed::Base
    Base.cpp.lpc1768.arm.o(i._ZN4mbed4BaseC1EPKc) refers to Base.cpp.lpc1768.arm.o(.data) for .data
    Base.cpp.lpc1768.arm.o(i._ZN4mbed4BaseD0Ev) refers to delete.o(i._ZdlPv) for operator delete (void*)
    Base.cpp.lpc1768.arm.o(i._ZN4mbed4BaseD0Ev) refers to Base.cpp.lpc1768.arm.o(.constdata__ZTVN4mbed4BaseE) for vtable for mbed::Base
    Base.cpp.lpc1768.arm.o(i._ZN4mbed4BaseD0Ev) refers to Base.cpp.lpc1768.arm.o(.data) for .data
    Base.cpp.lpc1768.arm.o(i._ZN4mbed4BaseD1Ev) refers to Base.cpp.lpc1768.arm.o(.constdata__ZTVN4mbed4BaseE) for vtable for mbed::Base
    Base.cpp.lpc1768.arm.o(i._ZN4mbed4BaseD1Ev) refers to Base.cpp.lpc1768.arm.o(.data) for .data
    Base.cpp.lpc1768.arm.o(.ARM.exidx) refers to Base.cpp.lpc1768.arm.o(i._ZN4mbed4BaseC1EPKc) for i._ZN4mbed4BaseC1EPKc
    Base.cpp.lpc1768.arm.o(.ARM.exidx) refers to Base.cpp.lpc1768.arm.o(i._ZN4mbed4BaseD1Ev) for i._ZN4mbed4BaseD1Ev
    Base.cpp.lpc1768.arm.o(.ARM.exidx) refers to Base.cpp.lpc1768.arm.o(i._ZN4mbed4BaseD0Ev) for i._ZN4mbed4BaseD0Ev
    Base.cpp.lpc1768.arm.o(.ARM.exidx) refers to Base.cpp.lpc1768.arm.o(i._ZN4mbed4Base15register_objectEPKc) for i._ZN4mbed4Base15register_objectEPKc
    Base.cpp.lpc1768.arm.o(.ARM.exidx) refers to Base.cpp.lpc1768.arm.o(i._ZN4mbed4Base4nameEv) for i._ZN4mbed4Base4nameEv
    Base.cpp.lpc1768.arm.o(.ARM.exidx) refers to Base.cpp.lpc1768.arm.o(i._ZN4mbed4Base3rpcEPKcS2_Pc) for i._ZN4mbed4Base3rpcEPKcS2_Pc
    Base.cpp.lpc1768.arm.o(.ARM.exidx) refers to Base.cpp.lpc1768.arm.o(i._ZN4mbed4Base15get_rpc_methodsEv) for i._ZN4mbed4Base15get_rpc_methodsEv
    Base.cpp.lpc1768.arm.o(.ARM.exidx) refers to Base.cpp.lpc1768.arm.o(i._ZN4mbed4Base6lookupEPKcj) for i._ZN4mbed4Base6lookupEPKcj
    Base.cpp.lpc1768.arm.o(.ARM.exidx) refers to Base.cpp.lpc1768.arm.o(i._ZN4mbed4Base3rpcEPKcS2_S2_Pc) for i._ZN4mbed4Base3rpcEPKcS2_S2_Pc
    Base.cpp.lpc1768.arm.o(.ARM.exidx) refers to Base.cpp.lpc1768.arm.o(i._ZN4mbed4Base7opendirEv) for i._ZN4mbed4Base7opendirEv
    Base.cpp.lpc1768.arm.o(.ARM.exidx) refers to Base.cpp.lpc1768.arm.o(i._ZN4mbed4Base11delete_selfEv) for i._ZN4mbed4Base11delete_selfEv
    Base.cpp.lpc1768.arm.o(.ARM.exidx) refers to Base.cpp.lpc1768.arm.o(i._ZN4mbed4Base9list_objsEPKcPc) for i._ZN4mbed4Base9list_objsEPKcPc
    Base.cpp.lpc1768.arm.o(.ARM.exidx) refers to Base.cpp.lpc1768.arm.o(i._ZN4mbed4Base5clearEPKcPc) for i._ZN4mbed4Base5clearEPKcPc
    Base.cpp.lpc1768.arm.o(.ARM.exidx) refers to Base.cpp.lpc1768.arm.o(i._ZN4mbed4Base8new_nameEPS0_) for i._ZN4mbed4Base8new_nameEPS0_
    Base.cpp.lpc1768.arm.o(.constdata) refers to Base.cpp.lpc1768.arm.o(i._ZN4mbed4Base11delete_selfEv) for mbed::Base::delete_self()
    Base.cpp.lpc1768.arm.o(.constdata) refers to Base.cpp.lpc1768.arm.o(.conststring) for .conststring
    Base.cpp.lpc1768.arm.o(.constdata) refers to Base.cpp.lpc1768.arm.o(t._ZN4mbed17rpc_method_callerINS_4BaseEXadL_ZNS1_11delete_selfEvEEEEvPS1_PKcPc) for void mbed::rpc_method_caller<mbed::Base, (&mbed::Base::delete_self)>(mbed::Base*, const char*, char*)
    Base.cpp.lpc1768.arm.o(.constdata) refers to Base.cpp.lpc1768.arm.o(.conststring) for .conststring
    Base.cpp.lpc1768.arm.o(.constdata) refers to Base.cpp.lpc1768.arm.o(i._ZN4mbed4Base5clearEPKcPc) for mbed::Base::clear(const char*, char*)
    Base.cpp.lpc1768.arm.o(.constdata) refers to Base.cpp.lpc1768.arm.o(i._ZN4mbed4Base9list_objsEPKcPc) for mbed::Base::list_objs(const char*, char*)
    Base.cpp.lpc1768.arm.o(.data) refers to Base.cpp.lpc1768.arm.o(.data) for mbed::Base::_base_class
    Base.cpp.lpc1768.arm.o(.data) refers to Base.cpp.lpc1768.arm.o(.conststring) for .conststring
    Base.cpp.lpc1768.arm.o(.data) refers to Base.cpp.lpc1768.arm.o(.constdata) for mbed::Base::_base_funcs
    stdio.cpp.lpc1768.arm.o(i._ZN4mbed8FileLikeD0Ev) refers to Base.cpp.lpc1768.arm.o(i._ZN4mbed4BaseD1Ev) for mbed::Base::~Base()
    stdio.cpp.lpc1768.arm.o(i._ZN4mbed8FileLikeD0Ev) refers to delete.o(i._ZdlPv) for operator delete (void*)
    stdio.cpp.lpc1768.arm.o(i._ZN4mbed8FileLikeD0Ev) refers to stdio.cpp.lpc1768.arm.o(.constdata__ZTVN4mbed8FileLikeE) for vtable for mbed::FileLike
    stdio.cpp.lpc1768.arm.o(i._ZN4mbed8FileLikeD0Ev) refers to stdio.cpp.lpc1768.arm.o(.bss) for .bss
    stdio.cpp.lpc1768.arm.o(i._ZN4mbed8FileLikeD2Ev) refers to Base.cpp.lpc1768.arm.o(i._ZN4mbed4BaseD1Ev) for mbed::Base::~Base()
    stdio.cpp.lpc1768.arm.o(i._ZN4mbed8FileLikeD2Ev) refers to stdio.cpp.lpc1768.arm.o(.constdata__ZTVN4mbed8FileLikeE) for vtable for mbed::FileLike
    stdio.cpp.lpc1768.arm.o(i._ZN4mbed8FileLikeD2Ev) refers to stdio.cpp.lpc1768.arm.o(.bss) for .bss
    stdio.cpp.lpc1768.arm.o(i._sys_close) refers to stdio.cpp.lpc1768.arm.o(.bss) for .bss
    stdio.cpp.lpc1768.arm.o(i._sys_ensure) refers to stdio.cpp.lpc1768.arm.o(.bss) for .bss
    stdio.cpp.lpc1768.arm.o(i._sys_flen) refers to stdio.cpp.lpc1768.arm.o(.bss) for .bss
    stdio.cpp.lpc1768.arm.o(i._sys_istty) refers to stdio.cpp.lpc1768.arm.o(.bss) for .bss
    stdio.cpp.lpc1768.arm.o(i._sys_open) refers to strcmpv7m.o(.text) for strcmp
    stdio.cpp.lpc1768.arm.o(i._sys_open) refers to serial_api.c.lpc1768.arm.o(i.serial_init) for serial_init
    stdio.cpp.lpc1768.arm.o(i._sys_open) refers to serial_api.c.lpc1768.arm.o(i.serial_format) for serial_format
    stdio.cpp.lpc1768.arm.o(i._sys_open) refers to serial_api.c.lpc1768.arm.o(i.serial_baud) for serial_baud
    stdio.cpp.lpc1768.arm.o(i._sys_open) refers to sscanf.o(.text) for sscanf
    stdio.cpp.lpc1768.arm.o(i._sys_open) refers to Base.cpp.lpc1768.arm.o(i._ZN4mbed4Base6lookupEPKcj) for mbed::Base::lookup(const char*, unsigned)
    stdio.cpp.lpc1768.arm.o(i._sys_open) refers to rtti.o(i.__dynamic_cast) for __dynamic_cast
    stdio.cpp.lpc1768.arm.o(i._sys_open) refers to stdio.cpp.lpc1768.arm.o(.constdata) for .constdata
    stdio.cpp.lpc1768.arm.o(i._sys_open) refers to stdio.cpp.lpc1768.arm.o(.bss) for .bss
    stdio.cpp.lpc1768.arm.o(i._sys_open) refers to stdio.cpp.lpc1768.arm.o(.constdata__ZTIN4mbed8FileLikeE) for typeinfo for mbed::FileLike
    stdio.cpp.lpc1768.arm.o(i._sys_open) refers to Base.cpp.lpc1768.arm.o(.constdata__ZTIN4mbed4BaseE) for typeinfo for mbed::Base
    stdio.cpp.lpc1768.arm.o(i._sys_open) refers to Base.cpp.lpc1768.arm.o(.constdata__ZTIN4mbed14FileSystemLikeE) for typeinfo for mbed::FileSystemLike
    stdio.cpp.lpc1768.arm.o(i._sys_read) refers to serial_api.c.lpc1768.arm.o(i.serial_getc) for serial_getc
    stdio.cpp.lpc1768.arm.o(i._sys_read) refers to stdio.cpp.lpc1768.arm.o(.bss) for .bss
    stdio.cpp.lpc1768.arm.o(i._sys_seek) refers to stdio.cpp.lpc1768.arm.o(.bss) for .bss
    stdio.cpp.lpc1768.arm.o(i._sys_write) refers to serial_api.c.lpc1768.arm.o(i.serial_putc) for serial_putc
    stdio.cpp.lpc1768.arm.o(i._sys_write) refers to stdio.cpp.lpc1768.arm.o(.bss) for .bss
    stdio.cpp.lpc1768.arm.o(i.mkdir) refers to Base.cpp.lpc1768.arm.o(i._ZN4mbed4Base6lookupEPKcj) for mbed::Base::lookup(const char*, unsigned)
    stdio.cpp.lpc1768.arm.o(i.mkdir) refers to rtti.o(i.__dynamic_cast) for __dynamic_cast
    stdio.cpp.lpc1768.arm.o(i.mkdir) refers to Base.cpp.lpc1768.arm.o(.constdata__ZTIN4mbed14FileSystemLikeE) for typeinfo for mbed::FileSystemLike
    stdio.cpp.lpc1768.arm.o(i.mkdir) refers to Base.cpp.lpc1768.arm.o(.constdata__ZTIN4mbed4BaseE) for typeinfo for mbed::Base
    stdio.cpp.lpc1768.arm.o(i.opendir) refers to Base.cpp.lpc1768.arm.o(i._ZN4mbed4Base7opendirEv) for mbed::Base::opendir()
    stdio.cpp.lpc1768.arm.o(i.opendir) refers to Base.cpp.lpc1768.arm.o(i._ZN4mbed4Base6lookupEPKcj) for mbed::Base::lookup(const char*, unsigned)
    stdio.cpp.lpc1768.arm.o(i.opendir) refers to rtti.o(i.__dynamic_cast) for __dynamic_cast
    stdio.cpp.lpc1768.arm.o(i.opendir) refers to Base.cpp.lpc1768.arm.o(.constdata__ZTIN4mbed14FileSystemLikeE) for typeinfo for mbed::FileSystemLike
    stdio.cpp.lpc1768.arm.o(i.opendir) refers to Base.cpp.lpc1768.arm.o(.constdata__ZTIN4mbed4BaseE) for typeinfo for mbed::Base
    stdio.cpp.lpc1768.arm.o(i.remove) refers to Base.cpp.lpc1768.arm.o(i._ZN4mbed4Base6lookupEPKcj) for mbed::Base::lookup(const char*, unsigned)
    stdio.cpp.lpc1768.arm.o(i.remove) refers to rtti.o(i.__dynamic_cast) for __dynamic_cast
    stdio.cpp.lpc1768.arm.o(i.remove) refers to Base.cpp.lpc1768.arm.o(.constdata__ZTIN4mbed14FileSystemLikeE) for typeinfo for mbed::FileSystemLike
    stdio.cpp.lpc1768.arm.o(i.remove) refers to Base.cpp.lpc1768.arm.o(.constdata__ZTIN4mbed4BaseE) for typeinfo for mbed::Base
    stdio.cpp.lpc1768.arm.o(.ARM.exidx) refers to stdio.cpp.lpc1768.arm.o(i._sys_open) for i._sys_open
    stdio.cpp.lpc1768.arm.o(.ARM.exidx) refers to stdio.cpp.lpc1768.arm.o(i._sys_close) for i._sys_close
    stdio.cpp.lpc1768.arm.o(.ARM.exidx) refers to stdio.cpp.lpc1768.arm.o(i._sys_write) for i._sys_write
    stdio.cpp.lpc1768.arm.o(.ARM.exidx) refers to stdio.cpp.lpc1768.arm.o(i._sys_read) for i._sys_read
    stdio.cpp.lpc1768.arm.o(.ARM.exidx) refers to stdio.cpp.lpc1768.arm.o(i._sys_istty) for i._sys_istty
    stdio.cpp.lpc1768.arm.o(.ARM.exidx) refers to stdio.cpp.lpc1768.arm.o(i._sys_seek) for i._sys_seek
    stdio.cpp.lpc1768.arm.o(.ARM.exidx) refers to stdio.cpp.lpc1768.arm.o(i._sys_ensure) for i._sys_ensure
    stdio.cpp.lpc1768.arm.o(.ARM.exidx) refers to stdio.cpp.lpc1768.arm.o(i._sys_flen) for i._sys_flen
    stdio.cpp.lpc1768.arm.o(.ARM.exidx) refers to stdio.cpp.lpc1768.arm.o(i.remove) for i.remove
    stdio.cpp.lpc1768.arm.o(.ARM.exidx) refers to stdio.cpp.lpc1768.arm.o(i.rename) for i.rename
    stdio.cpp.lpc1768.arm.o(.ARM.exidx) refers to stdio.cpp.lpc1768.arm.o(i.tmpnam) for i.tmpnam
    stdio.cpp.lpc1768.arm.o(.ARM.exidx) refers to stdio.cpp.lpc1768.arm.o(i.tmpfile) for i.tmpfile
    stdio.cpp.lpc1768.arm.o(.ARM.exidx) refers to stdio.cpp.lpc1768.arm.o(i._sys_command_string) for i._sys_command_string
    stdio.cpp.lpc1768.arm.o(.ARM.exidx) refers to stdio.cpp.lpc1768.arm.o(i.opendir) for i.opendir
    stdio.cpp.lpc1768.arm.o(.ARM.exidx) refers to stdio.cpp.lpc1768.arm.o(i.readdir) for i.readdir
    stdio.cpp.lpc1768.arm.o(.ARM.exidx) refers to stdio.cpp.lpc1768.arm.o(i.closedir) for i.closedir
    stdio.cpp.lpc1768.arm.o(.ARM.exidx) refers to stdio.cpp.lpc1768.arm.o(i.rewinddir) for i.rewinddir
    stdio.cpp.lpc1768.arm.o(.ARM.exidx) refers to stdio.cpp.lpc1768.arm.o(i.telldir) for i.telldir
    stdio.cpp.lpc1768.arm.o(.ARM.exidx) refers to stdio.cpp.lpc1768.arm.o(i.seekdir) for i.seekdir
    stdio.cpp.lpc1768.arm.o(.ARM.exidx) refers to stdio.cpp.lpc1768.arm.o(i.mkdir) for i.mkdir
    stdio.cpp.lpc1768.arm.o(.ARM.exidx) refers to stdio.cpp.lpc1768.arm.o(i._ZN4mbed8FileLikeD2Ev) for i._ZN4mbed8FileLikeD2Ev
    stdio.cpp.lpc1768.arm.o(.ARM.exidx) refers to stdio.cpp.lpc1768.arm.o(i._ZN4mbed8FileLikeD0Ev) for i._ZN4mbed8FileLikeD0Ev
    timer_api.c.lpc1768.arm.o(i.timer_frequency) refers to system_LPC17xx.o(.data) for SystemCoreClock
    timer_api.c.lpc1768.arm.o(i.timer_init) refers to system_LPC17xx.o(.data) for SystemCoreClock
    pinmap.c.lpc1768.arm.o(i.pinmap_merge) refers to fprintf.o(.text) for fprintf
    pinmap.c.lpc1768.arm.o(i.pinmap_merge) refers to exit.c.lpc1768.arm.o(i.exit) for exit
    pinmap.c.lpc1768.arm.o(i.pinmap_merge) refers to stdio_streams.o(.data) for __aeabi_stderr
    pinmap.c.lpc1768.arm.o(i.pinmap_peripheral) refers to fprintf.o(.text) for fprintf
    pinmap.c.lpc1768.arm.o(i.pinmap_peripheral) refers to exit.c.lpc1768.arm.o(i.exit) for exit
    pinmap.c.lpc1768.arm.o(i.pinmap_peripheral) refers to stdio_streams.o(.data) for __aeabi_stderr
    pinmap.c.lpc1768.arm.o(i.pinmap_pinout) refers to fprintf.o(.text) for fprintf
    pinmap.c.lpc1768.arm.o(i.pinmap_pinout) refers to exit.c.lpc1768.arm.o(i.exit) for exit
    pinmap.c.lpc1768.arm.o(i.pinmap_pinout) refers to stdio_streams.o(.data) for __aeabi_stderr
    exit.c.lpc1768.arm.o(i.exit) refers to semihost_api.c.lpc1768.arm.o(i.semihost_exit) for semihost_exit
    exit.c.lpc1768.arm.o(i.exit) refers to utils_api.c.lpc1768.arm.o(i.mbed_die) for mbed_die
    utils_api.c.lpc1768.arm.o(i.mbed_die) refers to gpio_api.c.lpc1768.arm.o(i.gpio_output) for gpio_output
    utils_api.c.lpc1768.arm.o(i.mbed_die) refers to gpio_api.c.lpc1768.arm.o(i.gpio_write) for gpio_write
    utils_api.c.lpc1768.arm.o(i.mbed_die) refers to wait_api.c.lpc1768.arm.o(i.wait_ms) for wait_ms
    utils_api.c.lpc1768.arm.o(i.mbed_mac_address) refers to semihost_api.c.lpc1768.arm.o(i.semihost_uid) for semihost_uid
    utils_api.c.lpc1768.arm.o(i.mbed_mac_address) refers to sscanf.o(.text) for sscanf
    utils_api.c.lpc1768.arm.o(i.mbed_reset) refers to semihost_api.c.lpc1768.arm.o(i.semihost_reset) for semihost_reset
    utils_api.c.lpc1768.arm.o(i.mbed_reset) refers to fprintf.o(.text) for fprintf
    utils_api.c.lpc1768.arm.o(i.mbed_reset) refers to exit.c.lpc1768.arm.o(i.exit) for exit
    utils_api.c.lpc1768.arm.o(i.mbed_reset) refers to stdio_streams.o(.data) for __aeabi_stderr
    utils_api.c.lpc1768.arm.o(i.mbed_uid) refers to semihost_api.c.lpc1768.arm.o(i.semihost_uid) for semihost_uid
    semihost_api.c.lpc1768.arm.o(i.semihost_open) refers to strlen.o(.text) for strlen
    semihost_api.c.lpc1768.arm.o(i.semihost_remove) refers to strlen.o(.text) for strlen
    semihost_api.c.lpc1768.arm.o(i.semihost_rename) refers to strlen.o(.text) for strlen
    gpio_api.c.lpc1768.arm.o(i.gpio_input) refers to pinmap.c.lpc1768.arm.o(i.pin_function) for pin_function
    gpio_api.c.lpc1768.arm.o(i.gpio_input) refers to pinmap.c.lpc1768.arm.o(i.pin_mode) for pin_mode
    gpio_api.c.lpc1768.arm.o(i.gpio_mode) refers to pinmap.c.lpc1768.arm.o(i.pin_mode) for pin_mode
    gpio_api.c.lpc1768.arm.o(i.gpio_output) refers to pinmap.c.lpc1768.arm.o(i.pin_function) for pin_function
    gpio_api.c.lpc1768.arm.o(i.gpio_output) refers to pinmap.c.lpc1768.arm.o(i.pin_mode) for pin_mode
    fprintf.o(.text) refers (Special) to _printf_a.o(.ARM.Collect$$_printf_percent$$00000006) for _printf_a
    fprintf.o(.text) refers (Special) to _printf_c.o(.ARM.Collect$$_printf_percent$$00000013) for _printf_c
    fprintf.o(.text) refers (Special) to _printf_charcount.o(.text) for _printf_charcount
    fprintf.o(.text) refers (Special) to _printf_d.o(.ARM.Collect$$_printf_percent$$00000009) for _printf_d
    fprintf.o(.text) refers (Special) to _printf_e.o(.ARM.Collect$$_printf_percent$$00000004) for _printf_e
    fprintf.o(.text) refers (Special) to _printf_f.o(.ARM.Collect$$_printf_percent$$00000003) for _printf_f
    fprintf.o(.text) refers (Special) to printf1.o(x$fpl$printf1) for _printf_fp_dec
    fprintf.o(.text) refers (Special) to printf2.o(x$fpl$printf2) for _printf_fp_hex
    fprintf.o(.text) refers (Special) to _printf_g.o(.ARM.Collect$$_printf_percent$$00000005) for _printf_g
    fprintf.o(.text) refers (Special) to _printf_i.o(.ARM.Collect$$_printf_percent$$00000008) for _printf_i
    fprintf.o(.text) refers (Special) to _printf_dec.o(.text) for _printf_int_dec
    fprintf.o(.text) refers (Special) to _printf_l.o(.ARM.Collect$$_printf_percent$$00000012) for _printf_l
    fprintf.o(.text) refers (Special) to _printf_lc.o(.ARM.Collect$$_printf_percent$$00000015) for _printf_lc
    fprintf.o(.text) refers (Special) to _printf_ll.o(.ARM.Collect$$_printf_percent$$00000007) for _printf_ll
    fprintf.o(.text) refers (Special) to _printf_lld.o(.ARM.Collect$$_printf_percent$$0000000E) for _printf_lld
    fprintf.o(.text) refers (Special) to _printf_lli.o(.ARM.Collect$$_printf_percent$$0000000D) for _printf_lli
    fprintf.o(.text) refers (Special) to _printf_llo.o(.ARM.Collect$$_printf_percent$$00000010) for _printf_llo
    fprintf.o(.text) refers (Special) to _printf_llu.o(.ARM.Collect$$_printf_percent$$0000000F) for _printf_llu
    fprintf.o(.text) refers (Special) to _printf_llx.o(.ARM.Collect$$_printf_percent$$00000011) for _printf_llx
    fprintf.o(.text) refers (Special) to _printf_longlong_dec.o(.text) for _printf_longlong_dec
    fprintf.o(.text) refers (Special) to _printf_hex_int_ll_ptr.o(.text) for _printf_longlong_hex
    fprintf.o(.text) refers (Special) to _printf_oct_int_ll.o(.text) for _printf_longlong_oct
    fprintf.o(.text) refers (Special) to _printf_ls.o(.ARM.Collect$$_printf_percent$$00000016) for _printf_ls
    fprintf.o(.text) refers (Special) to _printf_n.o(.ARM.Collect$$_printf_percent$$00000001) for _printf_n
    fprintf.o(.text) refers (Special) to _printf_o.o(.ARM.Collect$$_printf_percent$$0000000B) for _printf_o
    fprintf.o(.text) refers (Special) to _printf_p.o(.ARM.Collect$$_printf_percent$$00000002) for _printf_p
    fprintf.o(.text) refers (Special) to _printf_percent.o(.ARM.Collect$$_printf_percent$$00000000) for _printf_percent
    fprintf.o(.text) refers (Special) to _printf_pad.o(.text) for _printf_post_padding
    fprintf.o(.text) refers (Special) to _printf_s.o(.ARM.Collect$$_printf_percent$$00000014) for _printf_s
    fprintf.o(.text) refers (Special) to _printf_str.o(.text) for _printf_str
    fprintf.o(.text) refers (Special) to _printf_truncate.o(.text) for _printf_truncate_signed
    fprintf.o(.text) refers (Special) to _printf_u.o(.ARM.Collect$$_printf_percent$$0000000A) for _printf_u
    fprintf.o(.text) refers (Special) to _printf_wctomb.o(.text) for _printf_wctomb
    fprintf.o(.text) refers (Special) to _printf_x.o(.ARM.Collect$$_printf_percent$$0000000C) for _printf_x
    fprintf.o(.text) refers to _printf_char_file.o(.text) for _printf_char_file
    vfprintf.o(.text) refers (Special) to _printf_a.o(.ARM.Collect$$_printf_percent$$00000006) for _printf_a
    vfprintf.o(.text) refers (Special) to _printf_c.o(.ARM.Collect$$_printf_percent$$00000013) for _printf_c
    vfprintf.o(.text) refers (Special) to _printf_charcount.o(.text) for _printf_charcount
    vfprintf.o(.text) refers (Special) to _printf_d.o(.ARM.Collect$$_printf_percent$$00000009) for _printf_d
    vfprintf.o(.text) refers (Special) to _printf_e.o(.ARM.Collect$$_printf_percent$$00000004) for _printf_e
    vfprintf.o(.text) refers (Special) to _printf_f.o(.ARM.Collect$$_printf_percent$$00000003) for _printf_f
    vfprintf.o(.text) refers (Special) to printf1.o(x$fpl$printf1) for _printf_fp_dec
    vfprintf.o(.text) refers (Special) to printf2.o(x$fpl$printf2) for _printf_fp_hex
    vfprintf.o(.text) refers (Special) to _printf_g.o(.ARM.Collect$$_printf_percent$$00000005) for _printf_g
    vfprintf.o(.text) refers (Special) to _printf_i.o(.ARM.Collect$$_printf_percent$$00000008) for _printf_i
    vfprintf.o(.text) refers (Special) to _printf_dec.o(.text) for _printf_int_dec
    vfprintf.o(.text) refers (Special) to _printf_l.o(.ARM.Collect$$_printf_percent$$00000012) for _printf_l
    vfprintf.o(.text) refers (Special) to _printf_lc.o(.ARM.Collect$$_printf_percent$$00000015) for _printf_lc
    vfprintf.o(.text) refers (Special) to _printf_ll.o(.ARM.Collect$$_printf_percent$$00000007) for _printf_ll
    vfprintf.o(.text) refers (Special) to _printf_lld.o(.ARM.Collect$$_printf_percent$$0000000E) for _printf_lld
    vfprintf.o(.text) refers (Special) to _printf_lli.o(.ARM.Collect$$_printf_percent$$0000000D) for _printf_lli
    vfprintf.o(.text) refers (Special) to _printf_llo.o(.ARM.Collect$$_printf_percent$$00000010) for _printf_llo
    vfprintf.o(.text) refers (Special) to _printf_llu.o(.ARM.Collect$$_printf_percent$$0000000F) for _printf_llu
    vfprintf.o(.text) refers (Special) to _printf_llx.o(.ARM.Collect$$_printf_percent$$00000011) for _printf_llx
    vfprintf.o(.text) refers (Special) to _printf_longlong_dec.o(.text) for _printf_longlong_dec
    vfprintf.o(.text) refers (Special) to _printf_hex_int_ll_ptr.o(.text) for _printf_longlong_hex
    vfprintf.o(.text) refers (Special) to _printf_oct_int_ll.o(.text) for _printf_longlong_oct
    vfprintf.o(.text) refers (Special) to _printf_ls.o(.ARM.Collect$$_printf_percent$$00000016) for _printf_ls
    vfprintf.o(.text) refers (Special) to _printf_n.o(.ARM.Collect$$_printf_percent$$00000001) for _printf_n
    vfprintf.o(.text) refers (Special) to _printf_o.o(.ARM.Collect$$_printf_percent$$0000000B) for _printf_o
    vfprintf.o(.text) refers (Special) to _printf_p.o(.ARM.Collect$$_printf_percent$$00000002) for _printf_p
    vfprintf.o(.text) refers (Special) to _printf_percent.o(.ARM.Collect$$_printf_percent$$00000000) for _printf_percent
    vfprintf.o(.text) refers (Special) to _printf_pad.o(.text) for _printf_post_padding
    vfprintf.o(.text) refers (Special) to _printf_s.o(.ARM.Collect$$_printf_percent$$00000014) for _printf_s
    vfprintf.o(.text) refers (Special) to _printf_str.o(.text) for _printf_str
    vfprintf.o(.text) refers (Special) to _printf_truncate.o(.text) for _printf_truncate_signed
    vfprintf.o(.text) refers (Special) to _printf_u.o(.ARM.Collect$$_printf_percent$$0000000A) for _printf_u
    vfprintf.o(.text) refers (Special) to _printf_wctomb.o(.text) for _printf_wctomb
    vfprintf.o(.text) refers (Special) to _printf_x.o(.ARM.Collect$$_printf_percent$$0000000C) for _printf_x
    vfprintf.o(.text) refers to _printf_char_file.o(.text) for _printf_char_file
    sprintf.o(.text) refers (Special) to _printf_a.o(.ARM.Collect$$_printf_percent$$00000006) for _printf_a
    sprintf.o(.text) refers (Special) to _printf_c.o(.ARM.Collect$$_printf_percent$$00000013) for _printf_c
    sprintf.o(.text) refers (Special) to _printf_charcount.o(.text) for _printf_charcount
    sprintf.o(.text) refers (Special) to _printf_d.o(.ARM.Collect$$_printf_percent$$00000009) for _printf_d
    sprintf.o(.text) refers (Special) to _printf_e.o(.ARM.Collect$$_printf_percent$$00000004) for _printf_e
    sprintf.o(.text) refers (Special) to _printf_f.o(.ARM.Collect$$_printf_percent$$00000003) for _printf_f
    sprintf.o(.text) refers (Special) to printf1.o(x$fpl$printf1) for _printf_fp_dec
    sprintf.o(.text) refers (Special) to printf2.o(x$fpl$printf2) for _printf_fp_hex
    sprintf.o(.text) refers (Special) to _printf_g.o(.ARM.Collect$$_printf_percent$$00000005) for _printf_g
    sprintf.o(.text) refers (Special) to _printf_i.o(.ARM.Collect$$_printf_percent$$00000008) for _printf_i
    sprintf.o(.text) refers (Special) to _printf_dec.o(.text) for _printf_int_dec
    sprintf.o(.text) refers (Special) to _printf_l.o(.ARM.Collect$$_printf_percent$$00000012) for _printf_l
    sprintf.o(.text) refers (Special) to _printf_lc.o(.ARM.Collect$$_printf_percent$$00000015) for _printf_lc
    sprintf.o(.text) refers (Special) to _printf_ll.o(.ARM.Collect$$_printf_percent$$00000007) for _printf_ll
    sprintf.o(.text) refers (Special) to _printf_lld.o(.ARM.Collect$$_printf_percent$$0000000E) for _printf_lld
    sprintf.o(.text) refers (Special) to _printf_lli.o(.ARM.Collect$$_printf_percent$$0000000D) for _printf_lli
    sprintf.o(.text) refers (Special) to _printf_llo.o(.ARM.Collect$$_printf_percent$$00000010) for _printf_llo
    sprintf.o(.text) refers (Special) to _printf_llu.o(.ARM.Collect$$_printf_percent$$0000000F) for _printf_llu
    sprintf.o(.text) refers (Special) to _printf_llx.o(.ARM.Collect$$_printf_percent$$00000011) for _printf_llx
    sprintf.o(.text) refers (Special) to _printf_longlong_dec.o(.text) for _printf_longlong_dec
    sprintf.o(.text) refers (Special) to _printf_hex_int_ll_ptr.o(.text) for _printf_longlong_hex
    sprintf.o(.text) refers (Special) to _printf_oct_int_ll.o(.text) for _printf_longlong_oct
    sprintf.o(.text) refers (Special) to _printf_ls.o(.ARM.Collect$$_printf_percent$$00000016) for _printf_ls
    sprintf.o(.text) refers (Special) to _printf_n.o(.ARM.Collect$$_printf_percent$$00000001) for _printf_n
    sprintf.o(.text) refers (Special) to _printf_o.o(.ARM.Collect$$_printf_percent$$0000000B) for _printf_o
    sprintf.o(.text) refers (Special) to _printf_p.o(.ARM.Collect$$_printf_percent$$00000002) for _printf_p
    sprintf.o(.text) refers (Special) to _printf_percent.o(.ARM.Collect$$_printf_percent$$00000000) for _printf_percent
    sprintf.o(.text) refers (Special) to _printf_pad.o(.text) for _printf_post_padding
    sprintf.o(.text) refers (Special) to _printf_s.o(.ARM.Collect$$_printf_percent$$00000014) for _printf_s
    sprintf.o(.text) refers (Special) to _printf_str.o(.text) for _printf_str
    sprintf.o(.text) refers (Special) to _printf_truncate.o(.text) for _printf_truncate_signed
    sprintf.o(.text) refers (Special) to _printf_u.o(.ARM.Collect$$_printf_percent$$0000000A) for _printf_u
    sprintf.o(.text) refers (Special) to _printf_wctomb.o(.text) for _printf_wctomb
    sprintf.o(.text) refers (Special) to _printf_x.o(.ARM.Collect$$_printf_percent$$0000000C) for _printf_x
    sprintf.o(.text) refers to _printf_char_common.o(.text) for _printf_char_common
    sprintf.o(.text) refers to _sputc.o(.text) for _sputc
    __2printf.o(.text) refers to _printf_char_file.o(.text) for _printf_char_file
    __2printf.o(.text) refers to stdio_streams.o(.bss) for __stdout
    __2sprintf.o(.text) refers to _printf_char_common.o(.text) for _printf_char_common
    __2sprintf.o(.text) refers to _sputc.o(.text) for _sputc
    noretval__2printf.o(.text) refers to _printf_char_file.o(.text) for _printf_char_file
    noretval__2printf.o(.text) refers to stdio_streams.o(.bss) for __stdout
    noretval__2sprintf.o(.text) refers to _printf_char_common.o(.text) for _printf_char_common
    noretval__2sprintf.o(.text) refers to _sputc.o(.text) for _sputc
    __printf.o(.text) refers to _printf_percent.o(.ARM.Collect$$_printf_percent$$00000000) for _printf_percent
    _printf_dec.o(.text) refers (Weak) to _printf_truncate.o(.text) for _printf_truncate_signed
    _printf_dec.o(.text) refers (Weak) to _printf_truncate.o(.text) for _printf_truncate_unsigned
    _printf_dec.o(.text) refers to _printf_intcommon.o(.text) for _printf_int_common
    _printf_hex_ll.o(.text) refers to _printf_intcommon.o(.text) for _printf_int_common
    _printf_hex_ll.o(.text) refers to _printf_hex_ll.o(.constdata) for .constdata
    _printf_hex_int.o(.text) refers (Weak) to _printf_truncate.o(.text) for _printf_truncate_unsigned
    _printf_hex_int.o(.text) refers to _printf_intcommon.o(.text) for _printf_int_common
    _printf_hex_int.o(.text) refers to _printf_hex_int.o(.constdata) for .constdata
    _printf_hex_int_ll.o(.text) refers to _printf_intcommon.o(.text) for _printf_int_common
    _printf_hex_int_ll.o(.text) refers (Weak) to _printf_truncate.o(.text) for _printf_truncate_unsigned
    _printf_hex_int_ll.o(.text) refers to _printf_hex_int_ll.o(.constdata) for .constdata
    _printf_hex_ptr.o(.text) refers to _printf_intcommon.o(.text) for _printf_int_common
    _printf_hex_ptr.o(.text) refers to _printf_hex_ptr.o(.constdata) for .constdata
    _printf_hex_int_ptr.o(.text) refers to _printf_intcommon.o(.text) for _printf_int_common
    _printf_hex_int_ptr.o(.text) refers (Weak) to _printf_truncate.o(.text) for _printf_truncate_unsigned
    _printf_hex_int_ptr.o(.text) refers to _printf_hex_int_ptr.o(.constdata) for .constdata
    _printf_hex_ll_ptr.o(.text) refers to _printf_intcommon.o(.text) for _printf_int_common
    _printf_hex_ll_ptr.o(.text) refers to _printf_hex_ll_ptr.o(.constdata) for .constdata
    _printf_hex_int_ll_ptr.o(.text) refers to _printf_intcommon.o(.text) for _printf_int_common
    _printf_hex_int_ll_ptr.o(.text) refers (Weak) to _printf_truncate.o(.text) for _printf_truncate_unsigned
    _printf_hex_int_ll_ptr.o(.text) refers to _printf_hex_int_ll_ptr.o(.constdata) for .constdata
    __printf_flags.o(.text) refers to _printf_percent.o(.ARM.Collect$$_printf_percent$$00000000) for _printf_percent
    __printf_flags.o(.text) refers to __printf_flags.o(.constdata) for .constdata
    __printf_ss.o(.text) refers to _printf_percent.o(.ARM.Collect$$_printf_percent$$00000000) for _printf_percent
    __printf_flags_ss.o(.text) refers to _printf_percent.o(.ARM.Collect$$_printf_percent$$00000000) for _printf_percent
    __printf_flags_ss.o(.text) refers to __printf_flags_ss.o(.constdata) for .constdata
    __printf_wp.o(.text) refers to __printf_wp.o(i._is_digit) for _is_digit
    __printf_wp.o(.text) refers to _printf_percent.o(.ARM.Collect$$_printf_percent$$00000000) for _printf_percent
    __printf_flags_wp.o(.text) refers to __printf_wp.o(i._is_digit) for _is_digit
    __printf_flags_wp.o(.text) refers to _printf_percent.o(.ARM.Collect$$_printf_percent$$00000000) for _printf_percent
    __printf_flags_wp.o(.text) refers to __printf_flags_wp.o(.constdata) for .constdata
    __printf_ss_wp.o(.text) refers to __printf_wp.o(i._is_digit) for _is_digit
    __printf_ss_wp.o(.text) refers to _printf_percent.o(.ARM.Collect$$_printf_percent$$00000000) for _printf_percent
    __printf_flags_ss_wp.o(.text) refers to __printf_wp.o(i._is_digit) for _is_digit
    __printf_flags_ss_wp.o(.text) refers to _printf_percent.o(.ARM.Collect$$_printf_percent$$00000000) for _printf_percent
    __printf_flags_ss_wp.o(.text) refers to __printf_flags_ss_wp.o(.constdata) for .constdata
    _printf_x.o(.ARM.Collect$$_printf_percent$$0000000C) refers (Weak) to _printf_hex_int_ll_ptr.o(.text) for _printf_int_hex
    _printf_d.o(.ARM.Collect$$_printf_percent$$00000009) refers (Weak) to _printf_dec.o(.text) for _printf_int_dec
    _printf_percent.o(.ARM.Collect$$_printf_percent$$00000000) refers (Special) to _printf_percent_end.o(.ARM.Collect$$_printf_percent$$00000017) for _printf_percent_end
    sscanf.o(.text) refers (Special) to _scanf_int.o(.text) for _scanf_int
    sscanf.o(.text) refers (Special) to _scanf_longlong.o(.text) for _scanf_longlong
    sscanf.o(.text) refers (Special) to _scanf_mbtowc.o(.text) for _scanf_mbtowc
    sscanf.o(.text) refers (Special) to scanf1.o(x$fpl$scanf1) for _scanf_real
    sscanf.o(.text) refers (Special) to _scanf_str.o(.text) for _scanf_string
    sscanf.o(.text) refers (Special) to _scanf_wctomb.o(.text) for _scanf_wctomb
    sscanf.o(.text) refers (Special) to _scanf_wstr.o(.text) for _scanf_wstring
    sscanf.o(.text) refers to scanf_char.o(.text) for __vfscanf_char
    sscanf.o(.text) refers to _sgetc.o(.text) for _sgetc
    vfscanf.o(.text) refers (Special) to _scanf_int.o(.text) for _scanf_int
    vfscanf.o(.text) refers (Special) to _scanf_longlong.o(.text) for _scanf_longlong
    vfscanf.o(.text) refers (Special) to _scanf_mbtowc.o(.text) for _scanf_mbtowc
    vfscanf.o(.text) refers (Special) to scanf1.o(x$fpl$scanf1) for _scanf_real
    vfscanf.o(.text) refers (Special) to _scanf_str.o(.text) for _scanf_string
    vfscanf.o(.text) refers (Special) to _scanf_wctomb.o(.text) for _scanf_wctomb
    vfscanf.o(.text) refers (Special) to _scanf_wstr.o(.text) for _scanf_wstring
    vfscanf.o(.text) refers to scanf_char_file.o(.text) for __vfscanf_char_file
    strtol.o(.text) refers to rt_ctype_table.o(.text) for __rt_ctype_table
    strtol.o(.text) refers to _strtoul.o(.text) for _strtoul
    strtol.o(.text) refers to rt_errno_addr.o(.text) for __aeabi_errno_addr
    fflush.o(.text) refers to stdio.o(.text) for _fflush
    fflush.o(.text) refers to fseek.o(.text) for _fseek
    fflush.o(.text) refers to stdio_streams.o(.bss) for __stdin
    fgetc.o(i.fgetc) refers to filbuf.o(.text) for __filbuf_byte
    fputc.o(i.fputc) refers to flsbuf.o(.text) for __flsbuf_byte
    fputs.o(.text) refers to fputc.o(i.fputc) for fputc
    putc.o(.text) refers to fputc.o(i.fputc) for fputc
    fopen.o(.text) refers to fclose.o(.text) for _fclose_internal
    fopen.o(.text) refers to stdio.cpp.lpc1768.arm.o(i._sys_open) for _sys_open
    fopen.o(.text) refers to fseek.o(.text) for _fseek
    fopen.o(.text) refers to h1_alloc.o(.text) for malloc
    fopen.o(.text) refers to rt_memclr_w.o(.text) for __aeabi_memclr4
    fopen.o(.text) refers to stdio_streams.o(.bss) for __stdin
    setbuf.o(.text) refers to setvbuf.o(.text) for setvbuf
    stdio_streams.o(.bss) refers (Special) to initio.o(.text) for _initio
    stdio_streams.o(.bss) refers (Special) to initio.o(.text) for _initio
    stdio_streams.o(.bss) refers (Special) to initio.o(.text) for _initio
    stdio_streams.o(.data) refers (Special) to initio.o(.text) for _initio
    stdio_streams.o(.data) refers (Special) to initio.o(.text) for _initio
    stdio_streams.o(.data) refers (Special) to initio.o(.text) for _initio
    fclose.o(.text) refers to stdio.o(.text) for _fflush
    fclose.o(.text) refers to stdio.cpp.lpc1768.arm.o(i._sys_close) for _sys_close
    fclose.o(.text) refers to h1_free.o(.text) for free
    fclose.o(.text) refers to rt_memclr_w.o(.text) for __aeabi_memclr4
    fclose_locked.o(.text) refers to fclose.o(.text) for _fclose_internal
    fclose_locked.o(.text) refers to streamlock.o(.data) for _stream_list_lock
    fflush_locked.o(.text) refers to stdio.o(.text) for _fflush
    fflush_locked.o(.text) refers to fseek.o(.text) for _fseek
    fflush_locked.o(.text) refers to fflush.o(.text) for _do_fflush
    fflush_locked.o(.text) refers to streamlock.o(.data) for _stream_list_lock
    fflush_locked.o(.text) refers to stdio_streams.o(.bss) for __stdin
    fopen_locked.o(.text) refers to fclose.o(.text) for _fclose_internal
    fopen_locked.o(.text) refers to stdio.cpp.lpc1768.arm.o(i._sys_open) for _sys_open
    fopen_locked.o(.text) refers to fseek.o(.text) for _fseek
    fopen_locked.o(.text) refers to h1_alloc.o(.text) for malloc
    fopen_locked.o(.text) refers to rt_memclr_w.o(.text) for __aeabi_memclr4
    fopen_locked.o(.text) refers to streamlock.o(.data) for _stream_list_lock
    fopen_locked.o(.text) refers to stdio_streams.o(.bss) for __stdin
    rand.o(.emb_text) refers (Special) to libinit2.o(.ARM.Collect$$libinit$$0000000D) for __rt_lib_init_rand_2
    rand.o(.emb_text) refers to rand.o(.text) for _rand_init
    rand.o(.emb_text) refers to rand.o(.bss) for _random_number_data
    rand.o(.text) refers (Special) to libinit2.o(.ARM.Collect$$libinit$$0000000D) for __rt_lib_init_rand_2
    rand.o(.text) refers to rand.o(.bss) for .bss
    rand.o(.bss) refers (Special) to libinit2.o(.ARM.Collect$$libinit$$0000000D) for __rt_lib_init_rand_2
    atexit_aeabi.o(.text) refers to aeabi_atexit.o(.text) for __aeabi_atexit
    atexit_aeabi.o(.ARM.exidx) refers to atexit_aeabi.o(.text) for .text
    aeabi_atexit.o(.text) refers (Special) to cxa_finalize.o(.text) for __cxa_finalize
    aeabi_atexit.o(.text) refers to h1_alloc.o(.text) for malloc
    aeabi_atexit.o(.text) refers to rt_ddtor_pointer_addr.o(.text) for __rt_ddtor_pointer_addr
    aeabi_atexit.o(.ARM.exidx) refers (Special) to cxa_finalize.o(.text) for __cxa_finalize
    aeabi_atexit.o(.ARM.exidx) refers to aeabi_atexit.o(.text) for .text
    assert.o(.text) refers to assert_stdio.o(.text) for __assert_puts
    assert.o(.text) refers to abort.o(.text) for abort
    rt_memcpy_v6.o(.text) refers to rt_memcpy_w.o(.text) for __aeabi_memcpy4
    strncpy.o(.text) refers to rt_memclr.o(.text) for __aeabi_memclr
    __main.o(!!!main) refers to __rtentry.o(.ARM.Collect$$rtentry$$00000000) for __rt_entry
    init_aeabi.o(.emb_text) refers (Special) to libinit2.o(.ARM.Collect$$libinit$$00000031) for __rt_lib_init_cpp_2
    init_aeabi.o(.init_array) refers (Special) to libinit2.o(.ARM.Collect$$libinit$$00000031) for __rt_lib_init_cpp_2
    init_aeabi.o(.init_array) refers to init_aeabi.o(.text) for __cpp_initialize__aeabi_
    init_aeabi.o(.dummy_text) refers (Special) to libinit2.o(.ARM.Collect$$libinit$$00000031) for __rt_lib_init_cpp_2
    init_aeabi.o(.text) refers (Special) to libinit2.o(.ARM.Collect$$libinit$$00000031) for __rt_lib_init_cpp_2
    init_aeabi.o(.ARM.exidx) refers (Special) to libinit2.o(.ARM.Collect$$libinit$$00000031) for __rt_lib_init_cpp_2
    init_aeabi.o(.ARM.exidx) refers to init_aeabi.o(.text) for .text
    rwalloc.o(i._ZN4__rw13__rw_allocateEji) refers to new.o(i._Znwj) for operator new(unsigned)
    rwalloc.o(i._ZN4__rw13__rw_allocateEji) refers to rwstdexcept.o(i._ZN4__rw10__rw_throwEiz) for __rw::__rw_throw(int, ...)
    rwalloc.o(i._ZN4__rw15__rw_deallocateEPvji) refers to delete.o(i._ZdlPv) for operator delete (void*)
    rwalloc.o(.ARM.exidx) refers to rwalloc.o(i._ZN4__rw13__rw_allocateEji) for i._ZN4__rw13__rw_allocateEji
    rwalloc.o(.ARM.exidx) refers to unwind_pr0.o(.text) for __aeabi_unwind_cpp_pr0
    rwalloc.o(.ARM.exidx) refers to rwalloc.o(.ARM.extab) for .extab._ZN4__rw13__rw_allocateEji
    rwalloc.o(.ARM.exidx) refers to rwalloc.o(i._ZN4__rw15__rw_deallocateEPvji) for i._ZN4__rw15__rw_deallocateEPvji
    rwalloc.o(.ARM.extab) refers to rwalloc.o(i._ZN4__rw13__rw_allocateEji) for i._ZN4__rw13__rw_allocateEji
    array_del.o(i._ZdaPv) refers to delete.o(i._ZdlPv) for operator delete (void*)
    array_del.o(.ARM.exidx) refers to array_del.o(i._ZdaPv) for i._ZdaPv
    array_new.o(i._Znaj) refers to new.o(i._Znwj) for operator new(unsigned)
    array_new.o(.ARM.exidx) refers to array_new.o(i._Znaj) for i._Znaj
    array_new.o(.ARM.exidx) refers to unwind_pr0.o(.text) for __aeabi_unwind_cpp_pr0
    array_new.o(.ARM.exidx) refers to array_new.o(.ARM.extab) for .extab._Znaj
    array_new.o(.ARM.extab) refers to arm_callunex_noexceptions.o(.text) for __cxa_call_unexpected
    array_new.o(.ARM.extab) refers to bad_alloc_dtor.o(.constdata__ZTISt9bad_alloc) for typeinfo for std::bad_alloc
    delete.o(i._ZdlPv) refers to h1_free.o(.text) for free
    delete.o(.ARM.exidx) refers to delete.o(i._ZdlPv) for i._ZdlPv
    new.o(i._Znwj) refers to rt_new_handler_addr.o(.text) for __rt_new_handler_addr
    new.o(i._Znwj) refers to h1_alloc.o(.text) for malloc
    new.o(i._Znwj) refers to arm_newhandler_noexceptions.o(.text) for __default_new_handler()
    new.o(.ARM.exidx) refers to new.o(i._Znwj) for i._Znwj
    new.o(.ARM.exidx) refers to unwind_pr0.o(.text) for __aeabi_unwind_cpp_pr0
    new.o(.ARM.exidx) refers to new.o(.ARM.extab) for .extab._Znwj
    new.o(.ARM.extab) refers to arm_callunex_noexceptions.o(.text) for __cxa_call_unexpected
    new.o(.ARM.extab) refers to bad_alloc_dtor.o(.constdata__ZTISt9bad_alloc) for typeinfo for std::bad_alloc
    pure_virt.o(i.__cxa_pure_virtual) refers to defsig_pvfn_outer.o(.text) for __rt_SIGPVFN
    pure_virt.o(.ARM.exidx) refers to pure_virt.o(i.__cxa_pure_virtual) for i.__cxa_pure_virtual
    rtti.o(i._ZN27_INTERNAL_6_rtti_c_066a44b012tbc_downcastEPvPKSt9type_infoP28a_base_class_traversal_blockPN10__cxxabiv122__base_class_type_infoE) refers to type_info_eq.o(i._ZNKSt9type_infoeqERKS_) for std::type_info::operator ==(const std::type_info&) const
    rtti.o(i._ZN27_INTERNAL_6_rtti_c_066a44b017tbc_post_downcastEPvPKSt9type_infoP28a_base_class_traversal_blockPN10__cxxabiv122__base_class_type_infoE) refers to type_info_eq.o(i._ZNKSt9type_infoeqERKS_) for std::type_info::operator ==(const std::type_info&) const
    rtti.o(i._ZN27_INTERNAL_6_rtti_c_066a44b021traverse_base_classesEPvPKSt9type_infoP28a_base_class_traversal_blockPN10__cxxabiv122__base_class_type_infoE) refers to rtti.o(i.__ARM_common_get_typeid) for __ARM_common_get_typeid
    rtti.o(i._ZN27_INTERNAL_6_rtti_c_066a44b021traverse_base_classesEPvPKSt9type_infoP28a_base_class_traversal_blockPN10__cxxabiv122__base_class_type_infoE) refers to type_info_eq.o(i._ZNKSt9type_infoeqERKS_) for std::type_info::operator ==(const std::type_info&) const
    rtti.o(i._ZN27_INTERNAL_6_rtti_c_066a44b021traverse_base_classesEPvPKSt9type_infoP28a_base_class_traversal_blockPN10__cxxabiv122__base_class_type_infoE) refers to rtti.o(i._ZN27_INTERNAL_6_rtti_c_066a44b024get_virtual_base_pointerEPvPN10__cxxabiv122__base_class_type_infoE) for [local to rtti_c]::get_virtual_base_pointer(void*, __cxxabiv1::__base_class_type_info*)
    rtti.o(i._ZN27_INTERNAL_6_rtti_c_066a44b021traverse_base_classesEPvPKSt9type_infoP28a_base_class_traversal_blockPN10__cxxabiv122__base_class_type_infoE) refers to lib_rtti_impl.o(.constdata__ZTIN10__cxxabiv120__si_class_type_infoE) for typeinfo for __cxxabiv1::__si_class_type_info
    rtti.o(i._ZN27_INTERNAL_6_rtti_c_066a44b021traverse_base_classesEPvPKSt9type_infoP28a_base_class_traversal_blockPN10__cxxabiv122__base_class_type_infoE) refers to lib_rtti_impl.o(.constdata__ZTIN10__cxxabiv121__vmi_class_type_infoE) for typeinfo for __cxxabiv1::__vmi_class_type_info
    rtti.o(i._ZN27_INTERNAL_6_rtti_c_066a44b023find_base_class_at_addrEPvS0_PKSt9type_infoS3_Pi) refers to rtti.o(i.__ARM_common_get_typeid) for __ARM_common_get_typeid
    rtti.o(i._ZN27_INTERNAL_6_rtti_c_066a44b023find_base_class_at_addrEPvS0_PKSt9type_infoS3_Pi) refers to type_info_eq.o(i._ZNKSt9type_infoeqERKS_) for std::type_info::operator ==(const std::type_info&) const
    rtti.o(i._ZN27_INTERNAL_6_rtti_c_066a44b023find_base_class_at_addrEPvS0_PKSt9type_infoS3_Pi) refers to rtti.o(i._ZN27_INTERNAL_6_rtti_c_066a44b024get_virtual_base_pointerEPvPN10__cxxabiv122__base_class_type_infoE) for [local to rtti_c]::get_virtual_base_pointer(void*, __cxxabiv1::__base_class_type_info*)
    rtti.o(i._ZN27_INTERNAL_6_rtti_c_066a44b023find_base_class_at_addrEPvS0_PKSt9type_infoS3_Pi) refers to lib_rtti_impl.o(.constdata__ZTIN10__cxxabiv120__si_class_type_infoE) for typeinfo for __cxxabiv1::__si_class_type_info
    rtti.o(i._ZN27_INTERNAL_6_rtti_c_066a44b023find_base_class_at_addrEPvS0_PKSt9type_infoS3_Pi) refers to lib_rtti_impl.o(.constdata__ZTIN10__cxxabiv121__vmi_class_type_infoE) for typeinfo for __cxxabiv1::__vmi_class_type_info
    rtti.o(i._ZN27_INTERNAL_6_rtti_c_066a44b028derived_to_base_conversion_rEPvPS0_PKSt9type_infoS4_jPiiPS4_P19a_result_virtualityS5_) refers to rtti.o(i.__ARM_common_get_typeid) for __ARM_common_get_typeid
    rtti.o(i._ZN27_INTERNAL_6_rtti_c_066a44b028derived_to_base_conversion_rEPvPS0_PKSt9type_infoS4_jPiiPS4_P19a_result_virtualityS5_) refers to type_info_eq.o(i._ZNKSt9type_infoeqERKS_) for std::type_info::operator ==(const std::type_info&) const
    rtti.o(i._ZN27_INTERNAL_6_rtti_c_066a44b028derived_to_base_conversion_rEPvPS0_PKSt9type_infoS4_jPiiPS4_P19a_result_virtualityS5_) refers to rtti.o(i._ZN27_INTERNAL_6_rtti_c_066a44b024get_virtual_base_pointerEPvPN10__cxxabiv122__base_class_type_infoE) for [local to rtti_c]::get_virtual_base_pointer(void*, __cxxabiv1::__base_class_type_info*)
    rtti.o(i._ZN27_INTERNAL_6_rtti_c_066a44b028derived_to_base_conversion_rEPvPS0_PKSt9type_infoS4_jPiiPS4_P19a_result_virtualityS5_) refers to lib_rtti_impl.o(.constdata__ZTIN10__cxxabiv120__si_class_type_infoE) for typeinfo for __cxxabiv1::__si_class_type_info
    rtti.o(i._ZN27_INTERNAL_6_rtti_c_066a44b028derived_to_base_conversion_rEPvPS0_PKSt9type_infoS4_jPiiPS4_P19a_result_virtualityS5_) refers to lib_rtti_impl.o(.constdata__ZTIN10__cxxabiv121__vmi_class_type_infoE) for typeinfo for __cxxabiv1::__vmi_class_type_info
    rtti.o(i.__derived_to_base_conversion) refers to rtti.o(i.__ARM_common_get_typeid) for __ARM_common_get_typeid
    rtti.o(i.__derived_to_base_conversion) refers to type_info_eq.o(i._ZNKSt9type_infoeqERKS_) for std::type_info::operator ==(const std::type_info&) const
    rtti.o(i.__derived_to_base_conversion) refers to rtti.o(i._ZN27_INTERNAL_6_rtti_c_066a44b028derived_to_base_conversion_rEPvPS0_PKSt9type_infoS4_jPiiPS4_P19a_result_virtualityS5_) for [local to rtti_c]::derived_to_base_conversion_r(void*, void**, const std::type_info*, const std::type_info*, unsigned, int*, int, const std::type_info**, a_result_virtuality*, int*)
    rtti.o(i.__derived_to_base_conversion) refers to lib_rtti_impl.o(.constdata__ZTIN10__cxxabiv121__vmi_class_type_infoE) for typeinfo for __cxxabiv1::__vmi_class_type_info
    rtti.o(i.__dynamic_cast) refers to rtti.o(i._ZN27_INTERNAL_6_rtti_c_066a44b021traverse_base_classesEPvPKSt9type_infoP28a_base_class_traversal_blockPN10__cxxabiv122__base_class_type_infoE) for [local to rtti_c]::traverse_base_classes(void*, const std::type_info*, a_base_class_traversal_block*, __cxxabiv1::__base_class_type_info*)
    rtti.o(i.__dynamic_cast) refers to rtti.o(i._ZN27_INTERNAL_6_rtti_c_066a44b023find_base_class_at_addrEPvS0_PKSt9type_infoS3_Pi) for [local to rtti_c]::find_base_class_at_addr(void*, void*, const std::type_info*, const std::type_info*, int*)
    rtti.o(i.__dynamic_cast) refers to type_info_eq.o(i._ZNKSt9type_infoeqERKS_) for std::type_info::operator ==(const std::type_info&) const
    rtti.o(i.__dynamic_cast) refers to rtti.o(i.__derived_to_base_conversion) for __derived_to_base_conversion
    rtti.o(i.__dynamic_cast) refers to rtti.o(i._ZN27_INTERNAL_6_rtti_c_066a44b012tbc_downcastEPvPKSt9type_infoP28a_base_class_traversal_blockPN10__cxxabiv122__base_class_type_infoE) for [local to rtti_c]::tbc_downcast(void*, const std::type_info*, a_base_class_traversal_block*, __cxxabiv1::__base_class_type_info*)
    rtti.o(i.__dynamic_cast) refers to rtti.o(i._ZN27_INTERNAL_6_rtti_c_066a44b017tbc_post_downcastEPvPKSt9type_infoP28a_base_class_traversal_blockPN10__cxxabiv122__base_class_type_infoE) for [local to rtti_c]::tbc_post_downcast(void*, const std::type_info*, a_base_class_traversal_block*, __cxxabiv1::__base_class_type_info*)
    rtti.o(.ARM.exidx) refers to rtti.o(i._ZN27_INTERNAL_6_rtti_c_066a44b021traverse_base_classesEPvPKSt9type_infoP28a_base_class_traversal_blockPN10__cxxabiv122__base_class_type_infoE) for i._ZN27_INTERNAL_6_rtti_c_066a44b021traverse_base_classesEPvPKSt9type_infoP28a_base_class_traversal_blockPN10__cxxabiv122__base_class_type_infoE
    rtti.o(.ARM.exidx) refers to unwind_pr0.o(.text) for __aeabi_unwind_cpp_pr0
    rtti.o(.ARM.exidx) refers to rtti.o(i._ZN27_INTERNAL_6_rtti_c_066a44b028derived_to_base_conversion_rEPvPS0_PKSt9type_infoS4_jPiiPS4_P19a_result_virtualityS5_) for i._ZN27_INTERNAL_6_rtti_c_066a44b028derived_to_base_conversion_rEPvPS0_PKSt9type_infoS4_jPiiPS4_P19a_result_virtualityS5_
    rtti.o(.ARM.exidx) refers to unwind_pr0.o(.text) for __aeabi_unwind_cpp_pr0
    rtti.o(.ARM.exidx) refers to rtti.o(i.__derived_to_base_conversion) for i.__derived_to_base_conversion
    rtti.o(.ARM.exidx) refers to unwind_pr0.o(.text) for __aeabi_unwind_cpp_pr0
    rtti.o(.ARM.exidx) refers to rtti.o(i._ZN27_INTERNAL_6_rtti_c_066a44b023find_base_class_at_addrEPvS0_PKSt9type_infoS3_Pi) for i._ZN27_INTERNAL_6_rtti_c_066a44b023find_base_class_at_addrEPvS0_PKSt9type_infoS3_Pi
    rtti.o(.ARM.exidx) refers to unwind_pr0.o(.text) for __aeabi_unwind_cpp_pr0
    rtti.o(.ARM.exidx) refers to rtti.o(i._ZN27_INTERNAL_6_rtti_c_066a44b012tbc_downcastEPvPKSt9type_infoP28a_base_class_traversal_blockPN10__cxxabiv122__base_class_type_infoE) for i._ZN27_INTERNAL_6_rtti_c_066a44b012tbc_downcastEPvPKSt9type_infoP28a_base_class_traversal_blockPN10__cxxabiv122__base_class_type_infoE
    rtti.o(.ARM.exidx) refers to unwind_pr0.o(.text) for __aeabi_unwind_cpp_pr0
    rtti.o(.ARM.exidx) refers to rtti.o(i._ZN27_INTERNAL_6_rtti_c_066a44b017tbc_post_downcastEPvPKSt9type_infoP28a_base_class_traversal_blockPN10__cxxabiv122__base_class_type_infoE) for i._ZN27_INTERNAL_6_rtti_c_066a44b017tbc_post_downcastEPvPKSt9type_infoP28a_base_class_traversal_blockPN10__cxxabiv122__base_class_type_infoE
    rtti.o(.ARM.exidx) refers to unwind_pr0.o(.text) for __aeabi_unwind_cpp_pr0
    rtti.o(.ARM.exidx) refers to rtti.o(i.__dynamic_cast) for i.__dynamic_cast
    rtti.o(.ARM.exidx) refers to unwind_pr0.o(.text) for __aeabi_unwind_cpp_pr0
    rtti.o(.ARM.exidx) refers to rtti.o(i._ZN27_INTERNAL_6_rtti_c_066a44b024get_virtual_base_pointerEPvPN10__cxxabiv122__base_class_type_infoE) for i._ZN27_INTERNAL_6_rtti_c_066a44b024get_virtual_base_pointerEPvPN10__cxxabiv122__base_class_type_infoE
    lib_rtti_impl.o(i._ZN10__cxxabiv116__enum_type_infoD0Ev) refers to lib_rtti_impl.o(i._ZN10__cxxabiv116__enum_type_infoD1Ev) for __cxxabiv1::__enum_type_info::~__enum_type_info()
    lib_rtti_impl.o(i._ZN10__cxxabiv117__array_type_infoD0Ev) refers to lib_rtti_impl.o(i._ZN10__cxxabiv117__array_type_infoD1Ev) for __cxxabiv1::__array_type_info::~__array_type_info()
    lib_rtti_impl.o(i._ZN10__cxxabiv117__class_type_infoD0Ev) refers to lib_rtti_impl.o(i._ZN10__cxxabiv117__class_type_infoD1Ev) for __cxxabiv1::__class_type_info::~__class_type_info()
    lib_rtti_impl.o(i._ZN10__cxxabiv117__pbase_type_infoD0Ev) refers to lib_rtti_impl.o(i._ZN10__cxxabiv117__pbase_type_infoD1Ev) for __cxxabiv1::__pbase_type_info::~__pbase_type_info()
    lib_rtti_impl.o(i._ZN10__cxxabiv119__pointer_type_infoD0Ev) refers to lib_rtti_impl.o(i._ZN10__cxxabiv119__pointer_type_infoD1Ev) for __cxxabiv1::__pointer_type_info::~__pointer_type_info()
    lib_rtti_impl.o(i._ZN10__cxxabiv119__pointer_type_infoD1Ev) refers to lib_rtti_impl.o(i._ZN10__cxxabiv117__pbase_type_infoD1Ev) for __cxxabiv1::__pbase_type_info::~__pbase_type_info()
    lib_rtti_impl.o(i._ZN10__cxxabiv120__function_type_infoD0Ev) refers to lib_rtti_impl.o(i._ZN10__cxxabiv120__function_type_infoD1Ev) for __cxxabiv1::__function_type_info::~__function_type_info()
    lib_rtti_impl.o(i._ZN10__cxxabiv120__si_class_type_infoD0Ev) refers to lib_rtti_impl.o(i._ZN10__cxxabiv120__si_class_type_infoD1Ev) for __cxxabiv1::__si_class_type_info::~__si_class_type_info()
    lib_rtti_impl.o(i._ZN10__cxxabiv120__si_class_type_infoD1Ev) refers to lib_rtti_impl.o(i._ZN10__cxxabiv117__class_type_infoD1Ev) for __cxxabiv1::__class_type_info::~__class_type_info()
    lib_rtti_impl.o(i._ZN10__cxxabiv121__vmi_class_type_infoD0Ev) refers to lib_rtti_impl.o(i._ZN10__cxxabiv121__vmi_class_type_infoD1Ev) for __cxxabiv1::__vmi_class_type_info::~__vmi_class_type_info()
    lib_rtti_impl.o(i._ZN10__cxxabiv121__vmi_class_type_infoD1Ev) refers to lib_rtti_impl.o(i._ZN10__cxxabiv117__class_type_infoD1Ev) for __cxxabiv1::__class_type_info::~__class_type_info()
    lib_rtti_impl.o(i._ZN10__cxxabiv123__fundamental_type_infoD0Ev) refers to lib_rtti_impl.o(i._ZN10__cxxabiv123__fundamental_type_infoD1Ev) for __cxxabiv1::__fundamental_type_info::~__fundamental_type_info()
    lib_rtti_impl.o(i._ZN10__cxxabiv129__pointer_to_member_type_infoD0Ev) refers to lib_rtti_impl.o(i._ZN10__cxxabiv129__pointer_to_member_type_infoD1Ev) for __cxxabiv1::__pointer_to_member_type_info::~__pointer_to_member_type_info()
    lib_rtti_impl.o(i._ZN10__cxxabiv129__pointer_to_member_type_infoD1Ev) refers to lib_rtti_impl.o(i._ZN10__cxxabiv117__pbase_type_infoD1Ev) for __cxxabiv1::__pbase_type_info::~__pbase_type_info()
    lib_rtti_impl.o(.ARM.exidx) refers to lib_rtti_impl.o(i._ZN10__cxxabiv123__fundamental_type_infoD1Ev) for i._ZN10__cxxabiv123__fundamental_type_infoD1Ev
    lib_rtti_impl.o(.ARM.exidx) refers to lib_rtti_impl.o(i._ZN10__cxxabiv123__fundamental_type_infoD0Ev) for i._ZN10__cxxabiv123__fundamental_type_infoD0Ev
    lib_rtti_impl.o(.ARM.exidx) refers to lib_rtti_impl.o(i._ZN10__cxxabiv117__array_type_infoD1Ev) for i._ZN10__cxxabiv117__array_type_infoD1Ev
    lib_rtti_impl.o(.ARM.exidx) refers to lib_rtti_impl.o(i._ZN10__cxxabiv117__array_type_infoD0Ev) for i._ZN10__cxxabiv117__array_type_infoD0Ev
    lib_rtti_impl.o(.ARM.exidx) refers to lib_rtti_impl.o(i._ZN10__cxxabiv120__function_type_infoD1Ev) for i._ZN10__cxxabiv120__function_type_infoD1Ev
    lib_rtti_impl.o(.ARM.exidx) refers to lib_rtti_impl.o(i._ZN10__cxxabiv120__function_type_infoD0Ev) for i._ZN10__cxxabiv120__function_type_infoD0Ev
    lib_rtti_impl.o(.ARM.exidx) refers to lib_rtti_impl.o(i._ZN10__cxxabiv116__enum_type_infoD1Ev) for i._ZN10__cxxabiv116__enum_type_infoD1Ev
    lib_rtti_impl.o(.ARM.exidx) refers to lib_rtti_impl.o(i._ZN10__cxxabiv116__enum_type_infoD0Ev) for i._ZN10__cxxabiv116__enum_type_infoD0Ev
    lib_rtti_impl.o(.ARM.exidx) refers to lib_rtti_impl.o(i._ZN10__cxxabiv117__class_type_infoD1Ev) for i._ZN10__cxxabiv117__class_type_infoD1Ev
    lib_rtti_impl.o(.ARM.exidx) refers to lib_rtti_impl.o(i._ZN10__cxxabiv117__class_type_infoD0Ev) for i._ZN10__cxxabiv117__class_type_infoD0Ev
    lib_rtti_impl.o(.ARM.exidx) refers to lib_rtti_impl.o(i._ZN10__cxxabiv120__si_class_type_infoD1Ev) for i._ZN10__cxxabiv120__si_class_type_infoD1Ev
    lib_rtti_impl.o(.ARM.exidx) refers to lib_rtti_impl.o(i._ZN10__cxxabiv120__si_class_type_infoD0Ev) for i._ZN10__cxxabiv120__si_class_type_infoD0Ev
    lib_rtti_impl.o(.ARM.exidx) refers to lib_rtti_impl.o(i._ZN10__cxxabiv121__vmi_class_type_infoD1Ev) for i._ZN10__cxxabiv121__vmi_class_type_infoD1Ev
    lib_rtti_impl.o(.ARM.exidx) refers to lib_rtti_impl.o(i._ZN10__cxxabiv121__vmi_class_type_infoD0Ev) for i._ZN10__cxxabiv121__vmi_class_type_infoD0Ev
    lib_rtti_impl.o(.ARM.exidx) refers to lib_rtti_impl.o(i._ZN10__cxxabiv117__pbase_type_infoD1Ev) for i._ZN10__cxxabiv117__pbase_type_infoD1Ev
    lib_rtti_impl.o(.ARM.exidx) refers to lib_rtti_impl.o(i._ZN10__cxxabiv117__pbase_type_infoD0Ev) for i._ZN10__cxxabiv117__pbase_type_infoD0Ev
    lib_rtti_impl.o(.ARM.exidx) refers to lib_rtti_impl.o(i._ZN10__cxxabiv119__pointer_type_infoD1Ev) for i._ZN10__cxxabiv119__pointer_type_infoD1Ev
    lib_rtti_impl.o(.ARM.exidx) refers to lib_rtti_impl.o(i._ZN10__cxxabiv119__pointer_type_infoD0Ev) for i._ZN10__cxxabiv119__pointer_type_infoD0Ev
    lib_rtti_impl.o(.ARM.exidx) refers to lib_rtti_impl.o(i._ZN10__cxxabiv129__pointer_to_member_type_infoD1Ev) for i._ZN10__cxxabiv129__pointer_to_member_type_infoD1Ev
    lib_rtti_impl.o(.ARM.exidx) refers to lib_rtti_impl.o(i._ZN10__cxxabiv129__pointer_to_member_type_infoD0Ev) for i._ZN10__cxxabiv129__pointer_to_member_type_infoD0Ev
    dfix.o(x$fpl$dfix) refers (Special) to usenofp.o(x$fpl$usenofp) for __I$use$fp
    dfix.o(x$fpl$dfix) refers to dnaninf.o(x$fpl$dnaninf) for __fpl_dnaninf
    dfix.o(x$fpl$dfixr) refers (Special) to usenofp.o(x$fpl$usenofp) for __I$use$fp
    dfix.o(x$fpl$dfixr) refers to dnaninf.o(x$fpl$dnaninf) for __fpl_dnaninf
    dmul.o(x$fpl$dmul) refers (Special) to usenofp.o(x$fpl$usenofp) for __I$use$fp
    dmul.o(x$fpl$dmul) refers to dretinf.o(x$fpl$dretinf) for __fpl_dretinf
    dmul.o(x$fpl$dmul) refers to dnaninf.o(x$fpl$dnaninf) for __fpl_dnaninf
    f2d.o(x$fpl$f2d) refers (Special) to usenofp.o(x$fpl$usenofp) for __I$use$fp
    f2d.o(x$fpl$f2d) refers to fnaninf.o(x$fpl$fnaninf) for __fpl_fnaninf
    f2d.o(x$fpl$f2d) refers to dretinf.o(x$fpl$dretinf) for __fpl_dretinf
    faddsub_clz.o(x$fpl$fadd) refers (Special) to usenofp.o(x$fpl$usenofp) for __I$use$fp
    faddsub_clz.o(x$fpl$fadd) refers to faddsub_clz.o(x$fpl$fsub) for _fsub1
    faddsub_clz.o(x$fpl$fadd) refers to fretinf.o(x$fpl$fretinf) for __fpl_fretinf
    faddsub_clz.o(x$fpl$fadd) refers to fnaninf.o(x$fpl$fnaninf) for __fpl_fnaninf
    faddsub_clz.o(x$fpl$frsb) refers (Special) to usenofp.o(x$fpl$usenofp) for __I$use$fp
    faddsub_clz.o(x$fpl$frsb) refers to faddsub_clz.o(x$fpl$fadd) for _fadd1
    faddsub_clz.o(x$fpl$frsb) refers to faddsub_clz.o(x$fpl$fsub) for _fsub1
    faddsub_clz.o(x$fpl$fsub) refers (Special) to usenofp.o(x$fpl$usenofp) for __I$use$fp
    faddsub_clz.o(x$fpl$fsub) refers to faddsub_clz.o(x$fpl$fadd) for _fadd1
    faddsub_clz.o(x$fpl$fsub) refers to fnaninf.o(x$fpl$fnaninf) for __fpl_fnaninf
    fdiv.o(x$fpl$frdiv) refers (Special) to usenofp.o(x$fpl$usenofp) for __I$use$fp
    fdiv.o(x$fpl$frdiv) refers to fdiv.o(x$fpl$fdiv) for _fdiv1
    fdiv.o(x$fpl$fdiv) refers (Special) to usenofp.o(x$fpl$usenofp) for __I$use$fp
    fdiv.o(x$fpl$fdiv) refers to fretinf.o(x$fpl$fretinf) for __fpl_fretinf
    fdiv.o(x$fpl$fdiv) refers to fnaninf.o(x$fpl$fnaninf) for __fpl_fnaninf
    ffix.o(x$fpl$ffix) refers (Special) to usenofp.o(x$fpl$usenofp) for __I$use$fp
    ffix.o(x$fpl$ffix) refers to fnaninf.o(x$fpl$fnaninf) for __fpl_fnaninf
    ffix.o(x$fpl$ffixr) refers (Special) to usenofp.o(x$fpl$usenofp) for __I$use$fp
    ffix.o(x$fpl$ffixr) refers to fnaninf.o(x$fpl$fnaninf) for __fpl_fnaninf
    ffixu.o(x$fpl$ffixu) refers (Special) to usenofp.o(x$fpl$usenofp) for __I$use$fp
    ffixu.o(x$fpl$ffixu) refers to fnaninf.o(x$fpl$fnaninf) for __fpl_fnaninf
    ffixu.o(x$fpl$ffixur) refers (Special) to usenofp.o(x$fpl$usenofp) for __I$use$fp
    ffixu.o(x$fpl$ffixur) refers to fnaninf.o(x$fpl$fnaninf) for __fpl_fnaninf
    fflt_clz.o(x$fpl$ffltu) refers (Special) to usenofp.o(x$fpl$usenofp) for __I$use$fp
    fflt_clz.o(x$fpl$fflt) refers (Special) to usenofp.o(x$fpl$usenofp) for __I$use$fp
    fflt_clz.o(x$fpl$ffltn) refers (Special) to usenofp.o(x$fpl$usenofp) for __I$use$fp
    fmul.o(x$fpl$fmul) refers (Special) to usenofp.o(x$fpl$usenofp) for __I$use$fp
    fmul.o(x$fpl$fmul) refers to fretinf.o(x$fpl$fretinf) for __fpl_fretinf
    fmul.o(x$fpl$fmul) refers to fnaninf.o(x$fpl$fnaninf) for __fpl_fnaninf
    scalbnf.o(i.__softfp_scalbnf) refers (Special) to usenofp.o(x$fpl$usenofp) for __I$use$fp
    scalbnf.o(i.__softfp_scalbnf) refers to scalbnf.o(x$fpl$scalbnf) for __ARM_scalbnf
    scalbnf.o(i.__softfp_scalbnf) refers to _rserrno.o(.text) for __set_errno
    scalbnf.o(i.__softfp_scalbnf) refers to funder.o(i.__mathlib_flt_underflow) for __mathlib_flt_underflow
    scalbnf.o(i.__softfp_scalbnf) refers to funder.o(i.__mathlib_flt_overflow) for __mathlib_flt_overflow
    scalbnf.o(i.scalbnf) refers (Special) to usenofp.o(x$fpl$usenofp) for __I$use$fp
    scalbnf.o(i.scalbnf) refers to scalbnf.o(x$fpl$scalbnf) for __ARM_scalbnf
    scalbnf.o(i.scalbnf) refers to _rserrno.o(.text) for __set_errno
    scalbnf.o(i.scalbnf) refers to funder.o(i.__mathlib_flt_underflow) for __mathlib_flt_underflow
    scalbnf.o(i.scalbnf) refers to funder.o(i.__mathlib_flt_overflow) for __mathlib_flt_overflow
    scalbnf_x.o(i.____softfp_scalbnf$lsc) refers (Special) to usenofp.o(x$fpl$usenofp) for __I$use$fp
    scalbnf_x.o(i.____softfp_scalbnf$lsc) refers to scalbnf.o(x$fpl$scalbnf) for __ARM_scalbnf
    scalbnf_x.o(i.__scalbnf$lsc) refers (Special) to usenofp.o(x$fpl$usenofp) for __I$use$fp
    scalbnf_x.o(i.__scalbnf$lsc) refers to scalbnf.o(x$fpl$scalbnf) for __ARM_scalbnf
    __rtentry.o(.ARM.Collect$$rtentry$$00000000) refers (Special) to __rtentry2.o(.ARM.Collect$$rtentry$$0000000A) for __rt_entry_li
    __rtentry.o(.ARM.Collect$$rtentry$$00000000) refers (Special) to __rtentry2.o(.ARM.Collect$$rtentry$$0000000D) for __rt_entry_main
    __rtentry.o(.ARM.Collect$$rtentry$$00000000) refers (Special) to __rtentry2.o(.ARM.Collect$$rtentry$$0000000C) for __rt_entry_postli_1
    __rtentry.o(.ARM.Collect$$rtentry$$00000000) refers (Special) to __rtentry2.o(.ARM.Collect$$rtentry$$00000009) for __rt_entry_postsh_1
    __rtentry.o(.ARM.Collect$$rtentry$$00000000) refers (Special) to __rtentry2.o(.ARM.Collect$$rtentry$$00000002) for __rt_entry_presh_1
    __rtentry.o(.ARM.Collect$$rtentry$$00000000) refers (Special) to __rtentry4.o(.ARM.Collect$$rtentry$$00000004) for __rt_entry_sh
    rt_ctype_table.o(.text) refers to rt_locale.o(.text) for __rt_locale
    rt_ctype_table.o(.text) refers to lc_ctype_c.o(locale$$code) for _get_lc_ctype
    aeabi_ldiv0_sigfpe.o(.text) refers to rt_div0.o(.text) for __rt_div0
    rt_new_handler_addr.o(.text) refers to rt_new_handler_addr.o(.bss) for __rt_new_handler_addr_data
    rt_new_handler_addr_intlibspace.o(.text) refers to libspace.o(.bss) for __libspace_start
    rt_ddtor_pointer_addr.o(.text) refers to rt_ddtor_pointer_addr.o(.bss) for __rt_ddtor_pointer_addr_data
    rt_ddtor_pointer_addr_intlibspace.o(.text) refers to libspace.o(.bss) for __libspace_start
    rt_errno_addr.o(.text) refers to rt_errno_addr.o(.bss) for __aeabi_errno_addr_data
    rt_errno_addr_intlibspace.o(.text) refers to libspace.o(.bss) for __libspace_start
    malloc.o(.text) refers (Special) to hguard.o(.text) for __heap$guard
    malloc.o(.text) refers (Special) to init_alloc.o(.text) for _init_alloc
    malloc.o(.text) refers to rt_heap_descriptor.o(.text) for __rt_heap_descriptor
    malloc.o(.text) refers to heapstubs.o(.text) for __Heap_Alloc
    free.o(.text) refers (Special) to hguard.o(.text) for __heap$guard
    free.o(.text) refers to rt_heap_descriptor.o(.text) for __rt_heap_descriptor
    free.o(.text) refers to heapstubs.o(.text) for __Heap_Free
    h1_alloc.o(.text) refers (Special) to h1_init.o(.text) for __Heap_Initialize
    h1_alloc.o(.text) refers to rt_heap_descriptor.o(.text) for __rt_heap_descriptor
    h1_alloc.o(.text) refers to init_alloc.o(.text) for __Heap_Full
    h1_free.o(.text) refers to rt_heap_descriptor.o(.text) for __rt_heap_descriptor
    h1_alloc_mt.o(.text) refers (Special) to h1_init.o(.text) for __Heap_Initialize
    h1_alloc_mt.o(.text) refers to init_alloc.o(.text) for __Heap_Full
    h1_alloc_mt.o(.text) refers to rt_heap_descriptor.o(.text) for __rt_heap_descriptor
    h1_free_mt.o(.text) refers to rt_heap_descriptor.o(.text) for __rt_heap_descriptor
    heap2.o(i._FDIterate) refers to heap2.o(.conststring) for .conststring
    heap2.o(i.___Heap_ProvideMemory$realtime) refers to fdtree.o(i._FDTree_Delete) for _FDTree_Delete
    heap2.o(i.___Heap_ProvideMemory$realtime) refers to fdtree.o(i._FDTree_Insert) for _FDTree_Insert
    heap2.o(i.___Heap_Stats$realtime) refers to heap2.o(i._Heap2_StatsIterate) for _Heap2_StatsIterate
    heap2.o(i.___Heap_Valid$realtime) refers to heap2.o(i._FDIterate) for _FDIterate
    heap2.o(i.___Heap_Valid$realtime) refers to heap2.o(.conststring) for .conststring
    heap2.o(i._free$realtime) refers to rt_heap_descriptor.o(.text) for __rt_heap_descriptor
    heap2.o(i._free$realtime) refers to fdtree.o(i._FDTree_Delete) for _FDTree_Delete
    heap2.o(i._free$realtime) refers to fdtree.o(i._FDTree_Insert) for _FDTree_Insert
    heap2.o(i._malloc$realtime) refers to rt_heap_descriptor.o(.text) for __rt_heap_descriptor
    heap2.o(i._malloc$realtime) refers to fdtree.o(i._FDTree_FindFirst) for _FDTree_FindFirst
    heap2.o(i._malloc$realtime) refers to init_alloc.o(.text) for __Heap_Full
    heap2.o(i._malloc$realtime) refers to fdtree.o(i._FDTree_RemoveNode) for _FDTree_RemoveNode
    heap2.o(i._malloc$realtime) refers to fdtree.o(i._FDTree_Insert) for _FDTree_Insert
    heap2.o(i._posix_memalign$realtime) refers to rt_heap_descriptor.o(.text) for __rt_heap_descriptor
    heap2.o(i._posix_memalign$realtime) refers to fdtree.o(i._FDTree_FindFirst) for _FDTree_FindFirst
    heap2.o(i._posix_memalign$realtime) refers to init_alloc.o(.text) for __Heap_Full
    heap2.o(i._posix_memalign$realtime) refers to fdtree.o(i._FDTree_RemoveNode) for _FDTree_RemoveNode
    heap2.o(i._posix_memalign$realtime) refers to fdtree.o(i._FDTree_Insert) for _FDTree_Insert
    heap2.o(i._realloc$realtime) refers to rt_heap_descriptor.o(.text) for __rt_heap_descriptor
    heap2.o(i._realloc$realtime) refers to fdtree.o(i._FDTree_Insert) for _FDTree_Insert
    heap2.o(i._realloc$realtime) refers to h1_free.o(.text) for free
    heap2.o(i._realloc$realtime) refers to h1_alloc.o(.text) for malloc
    heap2.o(i._realloc$realtime) refers to fdtree.o(i._FDTree_Delete) for _FDTree_Delete
    heap2.o(i._realloc$realtime) refers to rt_memcpy_w.o(.text) for __aeabi_memcpy4
    heap2mt.o(i._FDIterate) refers to heap2mt.o(.conststring) for .conststring
    heap2mt.o(i.___Heap_Initialize$realtime$concurrent) refers to mutex_dummy.o(.text) for _mutex_initialize
    heap2mt.o(i.___Heap_ProvideMemory$realtime$concurrent) refers to fdtree.o(i._FDTree_Delete) for _FDTree_Delete
    heap2mt.o(i.___Heap_ProvideMemory$realtime$concurrent) refers to fdtree.o(i._FDTree_Insert) for _FDTree_Insert
    heap2mt.o(i.___Heap_Stats$realtime$concurrent) refers to heap2mt.o(i._Heap2_StatsIterate) for _Heap2_StatsIterate
    heap2mt.o(i.___Heap_Valid$realtime$concurrent) refers to heap2mt.o(i._FDIterate) for _FDIterate
    heap2mt.o(i.___Heap_Valid$realtime$concurrent) refers to heap2mt.o(.conststring) for .conststring
    heap2mt.o(i._free$realtime$concurrent) refers to rt_heap_descriptor.o(.text) for __rt_heap_descriptor
    heap2mt.o(i._free$realtime$concurrent) refers to fdtree.o(i._FDTree_Delete) for _FDTree_Delete
    heap2mt.o(i._free$realtime$concurrent) refers to fdtree.o(i._FDTree_Insert) for _FDTree_Insert
    heap2mt.o(i._malloc$realtime$concurrent) refers to rt_heap_descriptor.o(.text) for __rt_heap_descriptor
    heap2mt.o(i._malloc$realtime$concurrent) refers to fdtree.o(i._FDTree_FindFirst) for _FDTree_FindFirst
    heap2mt.o(i._malloc$realtime$concurrent) refers to init_alloc.o(.text) for __Heap_Full
    heap2mt.o(i._malloc$realtime$concurrent) refers to fdtree.o(i._FDTree_RemoveNode) for _FDTree_RemoveNode
    heap2mt.o(i._malloc$realtime$concurrent) refers to fdtree.o(i._FDTree_Insert) for _FDTree_Insert
    heap2mt.o(i._posix_memalign$realtime$concurrent) refers to rt_heap_descriptor.o(.text) for __rt_heap_descriptor
    heap2mt.o(i._posix_memalign$realtime$concurrent) refers to fdtree.o(i._FDTree_FindFirst) for _FDTree_FindFirst
    heap2mt.o(i._posix_memalign$realtime$concurrent) refers to init_alloc.o(.text) for __Heap_Full
    heap2mt.o(i._posix_memalign$realtime$concurrent) refers to fdtree.o(i._FDTree_RemoveNode) for _FDTree_RemoveNode
    heap2mt.o(i._posix_memalign$realtime$concurrent) refers to fdtree.o(i._FDTree_Insert) for _FDTree_Insert
    heap2mt.o(i._realloc$realtime$concurrent) refers to rt_heap_descriptor.o(.text) for __rt_heap_descriptor
    heap2mt.o(i._realloc$realtime$concurrent) refers to fdtree.o(i._FDTree_Insert) for _FDTree_Insert
    heap2mt.o(i._realloc$realtime$concurrent) refers to h1_free.o(.text) for free
    heap2mt.o(i._realloc$realtime$concurrent) refers to h1_alloc.o(.text) for malloc
    heap2mt.o(i._realloc$realtime$concurrent) refers to fdtree.o(i._FDTree_Delete) for _FDTree_Delete
    heap2mt.o(i._realloc$realtime$concurrent) refers to rt_memcpy_w.o(.text) for __aeabi_memcpy4
    _rserrno.o(.text) refers to rt_errno_addr.o(.text) for __aeabi_errno_addr
    _printf_str.o(.text) refers (Special) to _printf_char.o(.text) for _printf_cs_common
    _printf_str.o(.text) refers (Weak) to _printf_pad.o(.text) for _printf_pre_padding
    _printf_str.o(.text) refers (Weak) to _printf_pad.o(.text) for _printf_post_padding
    _printf_intcommon.o(.text) refers (Weak) to _printf_pad.o(.text) for _printf_pre_padding
    _printf_intcommon.o(.text) refers (Weak) to _printf_pad.o(.text) for _printf_pre_padding
    _printf_intcommon.o(.text) refers (Weak) to _printf_pad.o(.text) for _printf_post_padding
    _printf_char_common.o(.text) refers to __printf_flags_ss_wp.o(.text) for __printf
    _printf_char_file.o(.text) refers to _printf_char_common.o(.text) for _printf_char_common
    _printf_char_file.o(.text) refers to ferror.o(.text) for ferror
    _printf_char_file.o(.text) refers to fputc.o(i.fputc) for fputc
    _printf_wctomb.o(.text) refers (Special) to _printf_wchar.o(.text) for _printf_lcs_common
    _printf_wctomb.o(.text) refers to _wcrtomb.o(.text) for _wcrtomb
    _printf_wctomb.o(.text) refers (Weak) to _printf_pad.o(.text) for _printf_pre_padding
    _printf_wctomb.o(.text) refers (Weak) to _printf_pad.o(.text) for _printf_post_padding
    _printf_wctomb.o(.text) refers to _printf_wctomb.o(.constdata) for .constdata
    _printf_wctomb.o(.constdata) refers (Special) to _printf_wchar.o(.text) for _printf_lcs_common
    _printf_longlong_dec.o(.text) refers to lludiv10.o(.text) for _ll_udiv10
    _printf_longlong_dec.o(.text) refers to _printf_intcommon.o(.text) for _printf_int_common
    _printf_oct_ll.o(.text) refers to _printf_intcommon.o(.text) for _printf_int_common
    _printf_oct_int.o(.text) refers (Weak) to _printf_truncate.o(.text) for _printf_truncate_unsigned
    _printf_oct_int.o(.text) refers to _printf_intcommon.o(.text) for _printf_int_common
    _printf_oct_int_ll.o(.text) refers to _printf_intcommon.o(.text) for _printf_int_common
    _printf_oct_int_ll.o(.text) refers (Weak) to _printf_truncate.o(.text) for _printf_truncate_unsigned
    _printf_c.o(.ARM.Collect$$_printf_percent$$00000013) refers (Weak) to _printf_char.o(.text) for _printf_char
    _printf_s.o(.ARM.Collect$$_printf_percent$$00000014) refers (Weak) to _printf_char.o(.text) for _printf_string
    _printf_n.o(.ARM.Collect$$_printf_percent$$00000001) refers (Weak) to _printf_charcount.o(.text) for _printf_charcount
    _printf_p.o(.ARM.Collect$$_printf_percent$$00000002) refers (Weak) to _printf_hex_int_ll_ptr.o(.text) for _printf_hex_ptr
    _printf_o.o(.ARM.Collect$$_printf_percent$$0000000B) refers (Weak) to _printf_oct_int_ll.o(.text) for _printf_int_oct
    _printf_i.o(.ARM.Collect$$_printf_percent$$00000008) refers (Weak) to _printf_dec.o(.text) for _printf_int_dec
    _printf_u.o(.ARM.Collect$$_printf_percent$$0000000A) refers (Weak) to _printf_dec.o(.text) for _printf_int_dec
    _printf_f.o(.ARM.Collect$$_printf_percent$$00000003) refers (Weak) to printf1.o(x$fpl$printf1) for _printf_fp_dec
    _printf_e.o(.ARM.Collect$$_printf_percent$$00000004) refers (Weak) to printf1.o(x$fpl$printf1) for _printf_fp_dec
    _printf_g.o(.ARM.Collect$$_printf_percent$$00000005) refers (Weak) to printf1.o(x$fpl$printf1) for _printf_fp_dec
    _printf_a.o(.ARM.Collect$$_printf_percent$$00000006) refers (Weak) to printf2.o(x$fpl$printf2) for _printf_fp_hex
    _printf_lli.o(.ARM.Collect$$_printf_percent$$0000000D) refers (Special) to _printf_ll.o(.ARM.Collect$$_printf_percent$$00000007) for _printf_ll
    _printf_lli.o(.ARM.Collect$$_printf_percent$$0000000D) refers (Weak) to _printf_longlong_dec.o(.text) for _printf_longlong_dec
    _printf_lld.o(.ARM.Collect$$_printf_percent$$0000000E) refers (Special) to _printf_ll.o(.ARM.Collect$$_printf_percent$$00000007) for _printf_ll
    _printf_lld.o(.ARM.Collect$$_printf_percent$$0000000E) refers (Weak) to _printf_longlong_dec.o(.text) for _printf_longlong_dec
    _printf_llu.o(.ARM.Collect$$_printf_percent$$0000000F) refers (Special) to _printf_ll.o(.ARM.Collect$$_printf_percent$$00000007) for _printf_ll
    _printf_llu.o(.ARM.Collect$$_printf_percent$$0000000F) refers (Weak) to _printf_longlong_dec.o(.text) for _printf_longlong_dec
    _printf_lc.o(.ARM.Collect$$_printf_percent$$00000015) refers (Special) to _printf_l.o(.ARM.Collect$$_printf_percent$$00000012) for _printf_l
    _printf_lc.o(.ARM.Collect$$_printf_percent$$00000015) refers (Weak) to _printf_wchar.o(.text) for _printf_wchar
    _printf_ls.o(.ARM.Collect$$_printf_percent$$00000016) refers (Special) to _printf_l.o(.ARM.Collect$$_printf_percent$$00000012) for _printf_l
    _printf_ls.o(.ARM.Collect$$_printf_percent$$00000016) refers (Weak) to _printf_wchar.o(.text) for _printf_wstring
    _printf_llo.o(.ARM.Collect$$_printf_percent$$00000010) refers (Special) to _printf_ll.o(.ARM.Collect$$_printf_percent$$00000007) for _printf_ll
    _printf_llo.o(.ARM.Collect$$_printf_percent$$00000010) refers (Weak) to _printf_oct_int_ll.o(.text) for _printf_ll_oct
    _printf_llx.o(.ARM.Collect$$_printf_percent$$00000011) refers (Special) to _printf_ll.o(.ARM.Collect$$_printf_percent$$00000007) for _printf_ll
    _printf_llx.o(.ARM.Collect$$_printf_percent$$00000011) refers (Weak) to _printf_hex_int_ll_ptr.o(.text) for _printf_ll_hex
    _scanf_longlong.o(.text) refers to _chval.o(.text) for _chval
    _scanf_int.o(.text) refers to _chval.o(.text) for _chval
    scanf_char.o(.text) refers to _scanf.o(.text) for __vfscanf
    scanf_char.o(.text) refers to isspace.o(.text) for isspace
    scanf_char_file.o(.text) refers to scanf_char.o(.text) for __vfscanf_char
    scanf_char_file.o(.text) refers to fgetc.o(i.fgetc) for fgetc
    scanf_char_file.o(.text) refers to backspace.o(.text) for __backspace
    _strtoul.o(.text) refers to _chval.o(.text) for _chval
    _strtoul.o(.text) refers to rt_errno_addr.o(.text) for __aeabi_errno_addr
    _scanf_mbtowc.o(.text) refers to _mbrtowc.o(.text) for _mbrtowc
    _scanf_wctomb.o(.text) refers to _wcrtomb.o(.text) for _wcrtomb
    _scanf_wctomb.o(.text) refers to _scanf_wcharmap.o(.text) for _scanf_wcharmap
    _scanf_wstr.o(.text) refers to _scanf_wcharmap.o(.text) for _scanf_wcharmap
    filbuf.o(.text) refers to stdio.cpp.lpc1768.arm.o(i._sys_read) for _sys_read
    filbuf.o(.text) refers to stdio.o(.text) for _seterr
    filbuf.o(.text) refers to h1_alloc.o(.text) for malloc
    filbuf.o(.text) refers to stdio.cpp.lpc1768.arm.o(i._sys_seek) for _sys_seek
    filbuf.o(.text) refers to flushlinebuffered.o(.text) for _flushlinebuffered
    flsbuf.o(.text) refers to stdio.o(.text) for _deferredlazyseek
    flsbuf.o(.text) refers to stdio.cpp.lpc1768.arm.o(i._sys_flen) for _sys_flen
    flsbuf.o(.text) refers to stdio.cpp.lpc1768.arm.o(i._sys_istty) for _sys_istty
    flsbuf.o(.text) refers to h1_alloc.o(.text) for malloc
    fseek.o(.text) refers to stdio.cpp.lpc1768.arm.o(i._sys_istty) for _sys_istty
    fseek.o(.text) refers to ftell.o(.text) for _ftell_internal
    fseek.o(.text) refers to stdio.cpp.lpc1768.arm.o(i._sys_flen) for _sys_flen
    fseek.o(.text) refers to stdio.o(.text) for _seterr
    stdio.o(.text) refers to stdio.cpp.lpc1768.arm.o(i._sys_seek) for _sys_seek
    stdio.o(.text) refers to stdio.cpp.lpc1768.arm.o(i._sys_write) for _sys_write
    streamlock.o(.data) refers (Special) to initio.o(.text) for _initio
    initio.o(.text) refers (Special) to libinit2.o(.ARM.Collect$$libinit$$00000024) for __rt_lib_init_stdio_2
    initio.o(.text) refers (Special) to libshutdown2.o(.ARM.Collect$$libshutdown$$00000004) for __rt_lib_shutdown_stdio_2
    initio.o(.text) refers to rt_memclr_w.o(.text) for __aeabi_memclr4
    initio.o(.text) refers to fopen.o(.text) for freopen
    initio.o(.text) refers to defsig_rtred_outer.o(.text) for __rt_SIGRTRED
    initio.o(.text) refers to setvbuf.o(.text) for setvbuf
    initio.o(.text) refers to fclose.o(.text) for _fclose_internal
    initio.o(.text) refers to h1_free.o(.text) for free
    initio.o(.text) refers to stdio_streams.o(.bss) for __stdin
    initio.o(.text) refers to stdio_streams.o(.bss) for __stdout
    initio.o(.text) refers to stdio_streams.o(.bss) for __stderr
    initio.o(.text) refers to stdio_streams.o(.data) for __aeabi_stdin
    initio.o(.text) refers to stdio_streams.o(.data) for __aeabi_stdout
    initio.o(.text) refers to stdio_streams.o(.data) for __aeabi_stderr
    initio.o(.text) refers to stdio.cpp.lpc1768.arm.o(.constdata) for __stdin_name
    initio_locked.o(.text) refers (Special) to libinit2.o(.ARM.Collect$$libinit$$00000024) for __rt_lib_init_stdio_2
    initio_locked.o(.text) refers (Special) to libshutdown2.o(.ARM.Collect$$libshutdown$$00000004) for __rt_lib_shutdown_stdio_2
    initio_locked.o(.text) refers to rt_memclr_w.o(.text) for __aeabi_memclr4
    initio_locked.o(.text) refers to fopen.o(.text) for freopen
    initio_locked.o(.text) refers to defsig_rtred_outer.o(.text) for __rt_SIGRTRED
    initio_locked.o(.text) refers to setvbuf.o(.text) for setvbuf
    initio_locked.o(.text) refers to fclose.o(.text) for _fclose_internal
    initio_locked.o(.text) refers to h1_free.o(.text) for free
    initio_locked.o(.text) refers to stdio_streams.o(.bss) for __stdin
    initio_locked.o(.text) refers to stdio_streams.o(.bss) for __stdout
    initio_locked.o(.text) refers to stdio_streams.o(.bss) for __stderr
    initio_locked.o(.text) refers to stdio_streams.o(.data) for __aeabi_stdin
    initio_locked.o(.text) refers to stdio_streams.o(.data) for __aeabi_stdout
    initio_locked.o(.text) refers to stdio_streams.o(.data) for __aeabi_stderr
    initio_locked.o(.text) refers to streamlock.o(.data) for _stream_list_lock
    initio_locked.o(.text) refers to stdio.cpp.lpc1768.arm.o(.constdata) for __stdin_name
    abort.o(.text) refers to defsig_abrt_outer.o(.text) for __rt_SIGABRT
    abort.o(.text) refers to sys_exit.o(.text) for _sys_exit
    cxa_finalize.o(.text) refers (Special) to libshutdown2.o(.ARM.Collect$$libshutdown$$00000002) for __rt_lib_shutdown_cpp_2
    cxa_finalize.o(.text) refers to rt_ddtor_pointer_addr.o(.text) for __rt_ddtor_pointer_addr
    cxa_finalize.o(.text) refers to h1_free.o(.text) for free
    cxa_finalize.o(.ARM.exidx) refers (Special) to libshutdown2.o(.ARM.Collect$$libshutdown$$00000002) for __rt_lib_shutdown_cpp_2
    cxa_finalize.o(.ARM.exidx) refers to cxa_finalize.o(.text) for .text
    defsig_pvfn_outer.o(.text) refers to defsig_pvfn_inner.o(.text) for __rt_SIGPVFN_inner
    defsig_pvfn_outer.o(.text) refers to defsig_exit.o(.text) for __sig_exit
    defsig_pvfn_formal.o(.text) refers to rt_raise.o(.text) for __rt_raise
    assert_puts.o(.text) refers to sys_wrch.o(.text) for _ttywrch
    rt_memmove_v6.o(.text) refers to rt_memcpy_v6.o(.text) for __aeabi_memcpy
    rt_memmove_v6.o(.text) refers to rt_memmove_w.o(.text) for __memmove_aligned
    rt_memclr.o(.text) refers to rt_memclr_w.o(.text) for _memset_w
    libinit2.o(.ARM.Collect$$libinit$$00000005) refers (Weak) to init_alloc.o(.text) for _init_alloc
    libinit2.o(.ARM.Collect$$libinit$$0000000D) refers (Weak) to rand.o(.text) for _rand_init
    libinit2.o(.ARM.Collect$$libinit$$0000000F) refers (Weak) to rt_locale.o(.text) for __rt_locale
    libinit2.o(.ARM.Collect$$libinit$$00000010) refers to libinit2.o(.ARM.Collect$$libinit$$0000000F) for .ARM.Collect$$libinit$$0000000F
    libinit2.o(.ARM.Collect$$libinit$$00000010) refers (Weak) to lc_collate_c.o(locale$$code) for _get_lc_collate
    libinit2.o(.ARM.Collect$$libinit$$00000012) refers to libinit2.o(.ARM.Collect$$libinit$$0000000F) for .ARM.Collect$$libinit$$0000000F
    libinit2.o(.ARM.Collect$$libinit$$00000012) refers (Weak) to lc_ctype_c.o(locale$$code) for _get_lc_ctype
    libinit2.o(.ARM.Collect$$libinit$$00000014) refers to libinit2.o(.ARM.Collect$$libinit$$0000000F) for .ARM.Collect$$libinit$$0000000F
    libinit2.o(.ARM.Collect$$libinit$$00000014) refers (Weak) to lc_monetary_c.o(locale$$code) for _get_lc_monetary
    libinit2.o(.ARM.Collect$$libinit$$00000016) refers to libinit2.o(.ARM.Collect$$libinit$$0000000F) for .ARM.Collect$$libinit$$0000000F
    libinit2.o(.ARM.Collect$$libinit$$00000016) refers (Weak) to lc_numeric_c.o(locale$$code) for _get_lc_numeric
    libinit2.o(.ARM.Collect$$libinit$$00000018) refers to libinit2.o(.ARM.Collect$$libinit$$0000000F) for .ARM.Collect$$libinit$$0000000F
    libinit2.o(.ARM.Collect$$libinit$$00000024) refers (Weak) to initio.o(.text) for _initio
    libinit2.o(.ARM.Collect$$libinit$$00000026) refers to argv_veneer.o(.emb_text) for __ARM_argv_veneer
    libinit2.o(.ARM.Collect$$libinit$$00000027) refers to argv_veneer.o(.emb_text) for __ARM_argv_veneer
    libinit2.o(.ARM.Collect$$libinit$$00000031) refers (Weak) to init_aeabi.o(.text) for __cpp_initialize__aeabi_
    filbuf_fwide.o(.text) refers to filbuf.o(.text) for __filbuf
    flsbuf_fwide.o(.text) refers to flsbuf.o(.text) for __flsbuf
    rwstdexcept.o(i._ZN37_INTERNAL_15_rwstdexcept_cpp_8697b68a4__rw13__rw_vfmatstrEPcjPKcSt9__va_list) refers to array_new.o(i._Znaj) for operator new[] (unsigned)
    rwstdexcept.o(i._ZN37_INTERNAL_15_rwstdexcept_cpp_8697b68a4__rw13__rw_vfmatstrEPcjPKcSt9__va_list) refers to vsnprintf.o(.text) for vsnprintf
    rwstdexcept.o(i._ZN37_INTERNAL_15_rwstdexcept_cpp_8697b68a4__rw13__rw_vfmatstrEPcjPKcSt9__va_list) refers to array_del.o(i._ZdaPv) for operator delete[] (void*)
    rwstdexcept.o(i._ZN37_INTERNAL_15_rwstdexcept_cpp_8697b68a4__rw13__rw_vfmatstrEPcjiSt9__va_list) refers to strrchr.o(.text) for strrchr
    rwstdexcept.o(i._ZN37_INTERNAL_15_rwstdexcept_cpp_8697b68a4__rw13__rw_vfmatstrEPcjiSt9__va_list) refers to sscanf.o(.text) for sscanf
    rwstdexcept.o(i._ZN37_INTERNAL_15_rwstdexcept_cpp_8697b68a4__rw13__rw_vfmatstrEPcjiSt9__va_list) refers to locale.o(t._ZNSsC1EPKcRKSaIcE) for std::basic_string<char, std::char_traits<char>, std::allocator<char>>::basic_string(const char*, const std::allocator<char>&)
    rwstdexcept.o(i._ZN37_INTERNAL_15_rwstdexcept_cpp_8697b68a4__rw13__rw_vfmatstrEPcjiSt9__va_list) refers to char.o(t._ZNSsC1ERKSs) for std::basic_string<char, std::char_traits<char>, std::allocator<char>>::basic_string(const std::basic_string<char, std::char_traits<char>, std::allocator<char>>&)
    rwstdexcept.o(i._ZN37_INTERNAL_15_rwstdexcept_cpp_8697b68a4__rw13__rw_vfmatstrEPcjiSt9__va_list) refers to char.o(t._ZNSsD1Ev) for std::basic_string<char, std::char_traits<char>, std::allocator<char>>::~basic_string()
    rwstdexcept.o(i._ZN37_INTERNAL_15_rwstdexcept_cpp_8697b68a4__rw13__rw_vfmatstrEPcjiSt9__va_list) refers to rwstdexcept.o(i._ZNSt6localeC1Ev) for std::locale::locale()
    rwstdexcept.o(i._ZN37_INTERNAL_15_rwstdexcept_cpp_8697b68a4__rw13__rw_vfmatstrEPcjiSt9__va_list) refers to locale.o(i._ZNSt6localeD1Ev) for std::locale::~locale()
    rwstdexcept.o(i._ZN37_INTERNAL_15_rwstdexcept_cpp_8697b68a4__rw13__rw_vfmatstrEPcjiSt9__va_list) refers to rwstdexcept.o(i._ZN37_INTERNAL_15_rwstdexcept_cpp_8697b68a4__rw13__rw_vfmatstrEPcjPKcSt9__va_list) for [local to rwstdexcept_cpp]::__rw::__rw_vfmatstr(char*, unsigned, const char*, std::__va_list)
    rwstdexcept.o(i._ZN37_INTERNAL_15_rwstdexcept_cpp_8697b68a4__rw13__rw_vfmatstrEPcjiSt9__va_list) refers to rwstdexcept.o(.data) for .data
    rwstdexcept.o(i._ZN37_INTERNAL_15_rwstdexcept_cpp_8697b68a4__rw13__rw_vfmatstrEPcjiSt9__va_list) refers to rwstdexcept.o(.bss) for .bss
    rwstdexcept.o(i._ZN37_INTERNAL_15_rwstdexcept_cpp_8697b68a4__rw13__rw_vfmatstrEPcjiSt9__va_list) refers to rwstdexcept.o(.constdata__ZTVNSt6locale5facetE) for vtable for std::locale::facet
    rwstdexcept.o(i._ZN37_INTERNAL_15_rwstdexcept_cpp_8697b68a4__rw13__rw_vfmatstrEPcjiSt9__va_list) refers to rwstdexcept.o(.constdata__ZZNSt8messagesIcEC1EjEs) for std::messages<char>::messages(unsigned)::string
    rwstdexcept.o(i._ZN37_INTERNAL_15_rwstdexcept_cpp_8697b68a4__rw13__rw_vfmatstrEPcjiSt9__va_list) refers to rwstdexcept.o(.constdata__ZTVSt8messagesIcE) for vtable for std::messages<char>
    rwstdexcept.o(i._ZN37_INTERNAL_15_rwstdexcept_cpp_8697b68a4__rw13__rw_vfmatstrEPcjiSt9__va_list.clean) refers to char.o(t._ZNSsD1Ev) for std::basic_string<char, std::char_traits<char>, std::allocator<char>>::~basic_string()
    rwstdexcept.o(i._ZN37_INTERNAL_15_rwstdexcept_cpp_8697b68a4__rw13__rw_vfmatstrEPcjiSt9__va_list.clean) refers to locale.o(i._ZNSt6localeD1Ev) for std::locale::~locale()
    rwstdexcept.o(i._ZN37_INTERNAL_15_rwstdexcept_cpp_8697b68a4__rw13__rw_vfmatstrEPcjiSt9__va_list.clean) refers to arm_exceptions_cleanup.o(.emb_text) for __cxa_end_cleanup
    rwstdexcept.o(i._ZN4__rw10__rw_throwEiz) refers to rwstdexcept.o(i._ZNSt14__rw_exceptionC1Ev) for std::__rw_exception::__rw_exception()
    rwstdexcept.o(i._ZN4__rw10__rw_throwEiz) refers to rwstdexcept.o(i._ZNSt14__rw_exception10_C_vformatEiSt9__va_list) for std::__rw_exception::_C_vformat(int, std::__va_list)
    rwstdexcept.o(i._ZN4__rw10__rw_throwEiz) refers to rwthrowproc_noex.o(.data) for __rw_throw_proc
    rwstdexcept.o(i._ZN4__rw16__rw_assert_failEPKcS1_iS1_) refers to fprintf.o(.text) for fprintf
    rwstdexcept.o(i._ZN4__rw16__rw_assert_failEPKcS1_iS1_) refers to abort.o(.text) for abort
    rwstdexcept.o(i._ZN4__rw16__rw_assert_failEPKcS1_iS1_) refers to stdio_streams.o(.bss) for __stderr
    rwstdexcept.o(i._ZNSt14__rw_exception10_C_vformatEPKcSt9__va_list) refers to rwstdexcept.o(i._ZN37_INTERNAL_15_rwstdexcept_cpp_8697b68a4__rw13__rw_vfmatstrEPcjPKcSt9__va_list) for [local to rwstdexcept_cpp]::__rw::__rw_vfmatstr(char*, unsigned, const char*, std::__va_list)
    rwstdexcept.o(i._ZNSt14__rw_exception10_C_vformatEPKcSt9__va_list) refers to strlen.o(.text) for strlen
    rwstdexcept.o(i._ZNSt14__rw_exception10_C_vformatEPKcSt9__va_list) refers to array_new.o(i._Znaj) for operator new[] (unsigned)
    rwstdexcept.o(i._ZNSt14__rw_exception10_C_vformatEPKcSt9__va_list) refers to strcpy.o(.text) for strcpy
    rwstdexcept.o(i._ZNSt14__rw_exception10_C_vformatEPKcSt9__va_list) refers to strcat.o(.text) for strcat
    rwstdexcept.o(i._ZNSt14__rw_exception10_C_vformatEPKcSt9__va_list) refers to array_del.o(i._ZdaPv) for operator delete[] (void*)
    rwstdexcept.o(i._ZNSt14__rw_exception10_C_vformatEiSt9__va_list) refers to rwstdexcept.o(i._ZN37_INTERNAL_15_rwstdexcept_cpp_8697b68a4__rw13__rw_vfmatstrEPcjiSt9__va_list) for [local to rwstdexcept_cpp]::__rw::__rw_vfmatstr(char*, unsigned, int, std::__va_list)
    rwstdexcept.o(i._ZNSt14__rw_exception10_C_vformatEiSt9__va_list) refers to rwstdexcept.o(i._ZN37_INTERNAL_15_rwstdexcept_cpp_8697b68a4__rw13__rw_vfmatstrEPcjPKcSt9__va_list) for [local to rwstdexcept_cpp]::__rw::__rw_vfmatstr(char*, unsigned, const char*, std::__va_list)
    rwstdexcept.o(i._ZNSt14__rw_exception10_C_vformatEiSt9__va_list) refers to strlen.o(.text) for strlen
    rwstdexcept.o(i._ZNSt14__rw_exception10_C_vformatEiSt9__va_list) refers to array_new.o(i._Znaj) for operator new[] (unsigned)
    rwstdexcept.o(i._ZNSt14__rw_exception10_C_vformatEiSt9__va_list) refers to strcpy.o(.text) for strcpy
    rwstdexcept.o(i._ZNSt14__rw_exception10_C_vformatEiSt9__va_list) refers to strcat.o(.text) for strcat
    rwstdexcept.o(i._ZNSt14__rw_exception10_C_vformatEiSt9__va_list) refers to array_del.o(i._ZdaPv) for operator delete[] (void*)
    rwstdexcept.o(i._ZNSt14__rw_exception10_C_vformatEiSt9__va_list) refers to rwstdexcept.o(.constdata) for .constdata
    rwstdexcept.o(i._ZNSt14__rw_exception9_C_assignEPKcj) refers to strlen.o(.text) for strlen
    rwstdexcept.o(i._ZNSt14__rw_exception9_C_assignEPKcj) refers to array_new.o(i._Znaj) for operator new[] (unsigned)
    rwstdexcept.o(i._ZNSt14__rw_exception9_C_assignEPKcj) refers to strcpy.o(.text) for strcpy
    rwstdexcept.o(i._ZNSt14__rw_exception9_C_assignEPKcj) refers to array_del.o(i._ZdaPv) for operator delete[] (void*)
    rwstdexcept.o(i._ZNSt14__rw_exceptionC1ERKSs) refers to exception_ctor.o(i._ZNSt9exceptionC1Ev) for std::exception::exception()
    rwstdexcept.o(i._ZNSt14__rw_exceptionC1ERKSs) refers to rwstdexcept.o(i._ZNSt14__rw_exception9_C_assignEPKcj) for std::__rw_exception::_C_assign(const char*, unsigned)
    rwstdexcept.o(i._ZNSt14__rw_exceptionC1ERKSs) refers to rwstdexcept.o(.constdata__ZTVSt14__rw_exception) for vtable for std::__rw_exception
    rwstdexcept.o(.ARM.exidx) refers to rwstdexcept.o(i._ZN37_INTERNAL_15_rwstdexcept_cpp_8697b68a4__rw13__rw_vfmatstrEPcjPKcSt9__va_list) for i._ZN37_INTERNAL_15_rwstdexcept_cpp_8697b68a4__rw13__rw_vfmatstrEPcjPKcSt9__va_list
    rwstdexcept.o(.ARM.exidx) refers to unwind_pr0.o(.text) for __aeabi_unwind_cpp_pr0
    rwstdexcept.o(.ARM.exidx) refers to rwstdexcept.o(i._ZN37_INTERNAL_15_rwstdexcept_cpp_8697b68a4__rw13__rw_vfmatstrEPcjiSt9__va_list) for i._ZN37_INTERNAL_15_rwstdexcept_cpp_8697b68a4__rw13__rw_vfmatstrEPcjiSt9__va_list
    rwstdexcept.o(.ARM.exidx) refers to unwind_pr0.o(.text) for __aeabi_unwind_cpp_pr0
    rwstdexcept.o(.ARM.exidx) refers to rwstdexcept.o(.ARM.extab) for .extab._ZN37_INTERNAL_15_rwstdexcept_cpp_8697b68a4__rw13__rw_vfmatstrEPcjiSt9__va_list
    rwstdexcept.o(.ARM.exidx) refers to rwstdexcept.o(i._ZN37_INTERNAL_15_rwstdexcept_cpp_8697b68a4__rw13__rw_vfmatstrEPcjiSt9__va_list.clean) for i._ZN37_INTERNAL_15_rwstdexcept_cpp_8697b68a4__rw13__rw_vfmatstrEPcjiSt9__va_list.clean
    rwstdexcept.o(.ARM.exidx) refers to rwstdexcept.o(i._ZNSt14__rw_exception10_C_vformatEiSt9__va_list) for i._ZNSt14__rw_exception10_C_vformatEiSt9__va_list
    rwstdexcept.o(.ARM.exidx) refers to unwind_pr0.o(.text) for __aeabi_unwind_cpp_pr0
    rwstdexcept.o(.ARM.exidx) refers to rwstdexcept.o(.ARM.extab) for .extab._ZNSt14__rw_exception10_C_vformatEiSt9__va_list
    rwstdexcept.o(.ARM.exidx) refers to rwstdexcept.o(i._ZN4__rw10__rw_throwEiz) for i._ZN4__rw10__rw_throwEiz
    rwstdexcept.o(.ARM.exidx) refers to unwind_pr0.o(.text) for __aeabi_unwind_cpp_pr0
    rwstdexcept.o(.ARM.exidx) refers to rwstdexcept.o(i._ZNSt14__rw_exception9_C_assignEPKcj) for i._ZNSt14__rw_exception9_C_assignEPKcj
    rwstdexcept.o(.ARM.exidx) refers to unwind_pr0.o(.text) for __aeabi_unwind_cpp_pr0
    rwstdexcept.o(.ARM.exidx) refers to rwstdexcept.o(.ARM.extab) for .extab._ZNSt14__rw_exception9_C_assignEPKcj
    rwstdexcept.o(.ARM.exidx) refers to rwstdexcept.o(i._ZNSt14__rw_exception10_C_vformatEPKcSt9__va_list) for i._ZNSt14__rw_exception10_C_vformatEPKcSt9__va_list
    rwstdexcept.o(.ARM.exidx) refers to unwind_pr0.o(.text) for __aeabi_unwind_cpp_pr0
    rwstdexcept.o(.ARM.exidx) refers to rwstdexcept.o(.ARM.extab) for .extab._ZNSt14__rw_exception10_C_vformatEPKcSt9__va_list
    rwstdexcept.o(.ARM.exidx) refers to rwstdexcept.o(i._ZNSt14__rw_exceptionC1ERKSs) for i._ZNSt14__rw_exceptionC1ERKSs
    rwstdexcept.o(.ARM.exidx) refers to rwstdexcept.o(i._ZN4__rw16__rw_assert_failEPKcS1_iS1_) for i._ZN4__rw16__rw_assert_failEPKcS1_iS1_
    rwstdexcept.o(.ARM.extab) refers to rwstdexcept.o(i._ZN37_INTERNAL_15_rwstdexcept_cpp_8697b68a4__rw13__rw_vfmatstrEPcjiSt9__va_list.clean) for i._ZN37_INTERNAL_15_rwstdexcept_cpp_8697b68a4__rw13__rw_vfmatstrEPcjiSt9__va_list.clean
    rwstdexcept.o(.ARM.extab) refers to arm_callunex_noexceptions.o(.text) for __cxa_call_unexpected
    rwstdexcept.o(.ARM.extab) refers to rwstdexcept.o(i._ZNSt14__rw_exception10_C_vformatEiSt9__va_list) for i._ZNSt14__rw_exception10_C_vformatEiSt9__va_list
    rwstdexcept.o(.ARM.extab) refers to arm_callunex_noexceptions.o(.text) for __cxa_call_unexpected
    rwstdexcept.o(.ARM.extab) refers to rwstdexcept.o(i._ZNSt14__rw_exception9_C_assignEPKcj) for i._ZNSt14__rw_exception9_C_assignEPKcj
    rwstdexcept.o(.ARM.extab) refers to arm_callunex_noexceptions.o(.text) for __cxa_call_unexpected
    rwstdexcept.o(.ARM.extab) refers to rwstdexcept.o(i._ZNSt14__rw_exception10_C_vformatEPKcSt9__va_list) for i._ZNSt14__rw_exception10_C_vformatEPKcSt9__va_list
    rwstdexcept.o(.constdata) refers to rwstdexcept.o(.conststring) for .conststring
    arm_bad_typeid_noexceptions.o(.text) refers to arm_exceptions_terminate.o(.text) for std::terminate()
    arm_bad_typeid_noexceptions.o(.ARM.exidx) refers to arm_bad_typeid_noexceptions.o(.text) for .text
    arm_begincatch_noexceptions.o(.ARM.exidx) refers to arm_begincatch_noexceptions.o(.text) for .text
    arm_callunex_noexceptions.o(.ARM.exidx) refers to arm_callunex_noexceptions.o(.text) for .text
    arm_endcatch_noexceptions.o(.ARM.exidx) refers to arm_endcatch_noexceptions.o(.text) for .text
    arm_newhandler_noexceptions.o(.text) refers to arm_exceptions_terminate.o(.text) for std::terminate()
    arm_newhandler_noexceptions.o(.ARM.exidx) refers to arm_newhandler_noexceptions.o(.text) for .text
    bad_alloc_dtor.o(i._ZNSt9bad_allocD0Ev) refers to bad_alloc_dtor.o(i._ZNSt9bad_allocD1Ev) for std::bad_alloc::~bad_alloc()
    bad_alloc_dtor.o(i._ZNSt9bad_allocD0Ev) refers to delete.o(i._ZdlPv) for operator delete (void*)
    bad_alloc_dtor.o(.ARM.exidx) refers to bad_alloc_dtor.o(i._ZNSt9bad_allocD1Ev) for i._ZNSt9bad_allocD1Ev
    bad_alloc_dtor.o(.ARM.exidx) refers to bad_alloc_dtor.o(i._ZNSt9bad_allocD0Ev) for i._ZNSt9bad_allocD0Ev
    type_info_dtor.o(.ARM.exidx) refers to type_info_dtor.o(i._ZNSt9type_infoD1Ev) for i._ZNSt9type_infoD1Ev
    type_info_dtor.o(.ARM.exidx) refers to type_info_dtor.o(i._ZNSt9type_infoD0Ev) for i._ZNSt9type_infoD0Ev
    type_info_eq.o(.ARM.exidx) refers to type_info_eq.o(i._ZNKSt9type_infoeqERKS_) for i._ZNKSt9type_infoeqERKS_
    arm_exceptions_cleanup.o(.emb_text) refers to arm_exceptions_cleanup.o(.text) for __ARM_cxa_end_cleanup
    arm_exceptions_cleanup.o(.emb_text) refers (Weak) to unwinder.o(.emb_text) for _Unwind_Resume
    arm_exceptions_cleanup.o(.ARM.exidx) refers to arm_exceptions_cleanup.o(.emb_text) for __cxa_end_cleanup
    arm_exceptions_cleanup.o(.text) refers to arm_exceptions_globs.o(.text) for __cxa_get_globals
    arm_exceptions_cleanup.o(.text) refers to arm_exceptions_support.o(.text) for __ARM::is_foreign_exception(_Unwind_Control_Block*)
    arm_exceptions_cleanup.o(.text) refers to arm_exceptions_foreign.o(.text) for __ARM::get_foreign_intermediary(__cxa_exception*, _Unwind_Control_Block*)
    arm_exceptions_cleanup.o(.text) refers to arm_exceptions_terminate.o(.text) for std::terminate()
    arm_exceptions_cleanup.o(.text) refers to arm_exceptions_free.o(.text) for __cxa_free_exception
    arm_exceptions_cleanup.o(.ARM.exidx) refers to arm_exceptions_cleanup.o(.text) for .text
    arm_exceptions_callterm.o(.text) refers to arm_exceptions_globs.o(.text) for __cxa_get_globals
    arm_exceptions_callterm.o(.text) refers to arm_exceptions_support.o(.text) for __ARM::is_foreign_exception(_Unwind_Control_Block*)
    arm_exceptions_callterm.o(.text) refers to arm_exceptions_terminate.o(.text) for std::terminate()
    arm_exceptions_callterm.o(.ARM.exidx) refers to arm_exceptions_callterm.o(.text) for .text
    unwind_pr1.o(.text) refers to unwind_prcommon.o(.text) for __ARM_unwind_cpp_prcommon
    unwind_pr1.o(.ARM.exidx) refers to unwind_pr1.o(.text) for .text
    unwind_pr0.o(.text) refers to unwind_prcommon.o(.text) for __ARM_unwind_cpp_prcommon
    unwind_pr0.o(.ARM.exidx) refers to unwind_pr0.o(.text) for .text
    dnaninf.o(x$fpl$dnaninf) refers (Special) to usenofp.o(x$fpl$usenofp) for __I$use$fp
    dretinf.o(x$fpl$dretinf) refers (Special) to usenofp.o(x$fpl$usenofp) for __I$use$fp
    fnaninf.o(x$fpl$fnaninf) refers (Special) to usenofp.o(x$fpl$usenofp) for __I$use$fp
    fretinf.o(x$fpl$fretinf) refers (Special) to usenofp.o(x$fpl$usenofp) for __I$use$fp
    istatus.o(x$fpl$ieeestatus) refers (Special) to usenofp.o(x$fpl$usenofp) for __I$use$fp
    printf1.o(x$fpl$printf1) refers to _printf_fp_dec.o(.text) for _printf_fp_dec_real
    printf2.o(x$fpl$printf2) refers to _printf_fp_hex.o(.text) for _printf_fp_hex_real
    printf2b.o(x$fpl$printf2) refers to _printf_fp_hex.o(.text) for _printf_fp_hex_real
    scalbnf.o(x$fpl$scalbnf) refers (Special) to usenofp.o(x$fpl$usenofp) for __I$use$fp
    scalbnf.o(x$fpl$scalbnf) refers to fcheck1.o(x$fpl$fcheck1) for __fpl_fcheck_NaN1
    scanf1.o(x$fpl$scanf1) refers to scanf_fp.o(.text) for _scanf_really_real
    funder.o(i.__mathlib_flt_divzero) refers to fdiv.o(x$fpl$fdiv) for __aeabi_fdiv
    funder.o(i.__mathlib_flt_infnan) refers to scalbnf.o(x$fpl$scalbnf) for __ARM_scalbnf
    funder.o(i.__mathlib_flt_infnan2) refers to faddsub_clz.o(x$fpl$fadd) for __aeabi_fadd
    funder.o(i.__mathlib_flt_invalid) refers to fdiv.o(x$fpl$fdiv) for __aeabi_fdiv
    funder.o(i.__mathlib_flt_overflow) refers to scalbnf.o(x$fpl$scalbnf) for __ARM_scalbnf
    funder.o(i.__mathlib_flt_posinfnan) refers to fmul.o(x$fpl$fmul) for __aeabi_fmul
    funder.o(i.__mathlib_flt_underflow) refers to scalbnf.o(x$fpl$scalbnf) for __ARM_scalbnf
    sys_wrch.o(.text) refers (Special) to use_no_semi.o(.text) for __I$use$semihosting
    sys_wrch.o(.text) refers (Special) to indicate_semi.o(.text) for __semihosting_library_function
    sys_exit.o(.text) refers (Special) to use_no_semi.o(.text) for __I$use$semihosting
    sys_exit.o(.text) refers (Special) to indicate_semi.o(.text) for __semihosting_library_function
    libspace.o(.text) refers to libspace.o(.bss) for __libspace_start
    __rtentry2.o(.ARM.Collect$$rtentry$$00000008) refers to boardinit2.o(.text) for _platform_post_stackheap_init
    __rtentry2.o(.ARM.Collect$$rtentry$$0000000A) refers to libinit.o(.ARM.Collect$$libinit$$00000000) for __rt_lib_init
    __rtentry2.o(.ARM.Collect$$rtentry$$0000000B) refers to boardinit3.o(.text) for _platform_post_lib_init
    __rtentry2.o(.ARM.Collect$$rtentry$$0000000D) refers to main.o(i.main) for main
    __rtentry2.o(.ARM.Collect$$rtentry$$0000000D) refers to exit.c.lpc1768.arm.o(i.exit) for exit
    __rtentry2.o(.ARM.exidx) refers to __rtentry2.o(.ARM.Collect$$rtentry$$00000001) for .ARM.Collect$$rtentry$$00000001
    __rtentry2.o(.ARM.exidx) refers to __rtentry2.o(.ARM.Collect$$rtentry$$00000008) for .ARM.Collect$$rtentry$$00000008
    __rtentry2.o(.ARM.exidx) refers to __rtentry2.o(.ARM.Collect$$rtentry$$0000000A) for .ARM.Collect$$rtentry$$0000000A
    __rtentry2.o(.ARM.exidx) refers to __rtentry2.o(.ARM.Collect$$rtentry$$0000000B) for .ARM.Collect$$rtentry$$0000000B
    __rtentry2.o(.ARM.exidx) refers to __rtentry2.o(.ARM.Collect$$rtentry$$0000000D) for .ARM.Collect$$rtentry$$0000000D
    __rtentry4.o(.ARM.Collect$$rtentry$$00000004) refers to stackheap.o(i.__user_setup_stackheap) for __user_setup_stackheap
    __rtentry4.o(.ARM.exidx) refers to __rtentry4.o(.ARM.Collect$$rtentry$$00000004) for .ARM.Collect$$rtentry$$00000004
    rt_div0.o(.text) refers to defsig_fpe_outer.o(.text) for __rt_SIGFPE
    rt_raise.o(.text) refers to __raise.o(.text) for __raise
    rt_raise.o(.text) refers to sys_exit.o(.text) for _sys_exit
    rt_heap_descriptor.o(.text) refers to rt_heap_descriptor.o(.bss) for __rt_heap_descriptor_data
    rt_heap_descriptor_intlibspace.o(.text) refers to libspace.o(.bss) for __libspace_start
    rt_locale.o(.text) refers to rt_locale.o(.bss) for __rt_locale_data
    rt_locale_intlibspace.o(.text) refers to libspace.o(.bss) for __libspace_start
    init_alloc.o(.text) refers (Special) to hguard.o(.text) for __heap$guard
    init_alloc.o(.text) refers (Special) to libinit2.o(.ARM.Collect$$libinit$$00000005) for __rt_lib_init_heap_2
    init_alloc.o(.text) refers (Special) to maybetermalloc1.o(.emb_text) for _maybe_terminate_alloc
    init_alloc.o(.text) refers to heapauxa.o(.text) for __rt_heap_expand
    init_alloc.o(.text) refers to h1_extend.o(.text) for __Heap_ProvideMemory
    init_alloc.o(.text) refers to defsig_rtmem_outer.o(.text) for __rt_SIGRTMEM
    init_alloc.o(.text) refers to rt_heap_descriptor.o(.text) for __rt_heap_descriptor
    init_alloc.o(.text) refers to h1_init.o(.text) for __Heap_Initialize
    h1_init_mt.o(.text) refers to mutex_dummy.o(.text) for _mutex_initialize
    isspace.o(.text) refers to rt_ctype_table.o(.text) for __rt_ctype_table
    vsnprintf.o(.text) refers (Special) to _printf_a.o(.ARM.Collect$$_printf_percent$$00000006) for _printf_a
    vsnprintf.o(.text) refers (Special) to _printf_c.o(.ARM.Collect$$_printf_percent$$00000013) for _printf_c
    vsnprintf.o(.text) refers (Special) to _printf_charcount.o(.text) for _printf_charcount
    vsnprintf.o(.text) refers (Special) to _printf_d.o(.ARM.Collect$$_printf_percent$$00000009) for _printf_d
    vsnprintf.o(.text) refers (Special) to _printf_e.o(.ARM.Collect$$_printf_percent$$00000004) for _printf_e
    vsnprintf.o(.text) refers (Special) to _printf_f.o(.ARM.Collect$$_printf_percent$$00000003) for _printf_f
    vsnprintf.o(.text) refers (Special) to printf1.o(x$fpl$printf1) for _printf_fp_dec
    vsnprintf.o(.text) refers (Special) to printf2.o(x$fpl$printf2) for _printf_fp_hex
    vsnprintf.o(.text) refers (Special) to _printf_g.o(.ARM.Collect$$_printf_percent$$00000005) for _printf_g
    vsnprintf.o(.text) refers (Special) to _printf_i.o(.ARM.Collect$$_printf_percent$$00000008) for _printf_i
    vsnprintf.o(.text) refers (Special) to _printf_dec.o(.text) for _printf_int_dec
    vsnprintf.o(.text) refers (Special) to _printf_l.o(.ARM.Collect$$_printf_percent$$00000012) for _printf_l
    vsnprintf.o(.text) refers (Special) to _printf_lc.o(.ARM.Collect$$_printf_percent$$00000015) for _printf_lc
    vsnprintf.o(.text) refers (Special) to _printf_ll.o(.ARM.Collect$$_printf_percent$$00000007) for _printf_ll
    vsnprintf.o(.text) refers (Special) to _printf_lld.o(.ARM.Collect$$_printf_percent$$0000000E) for _printf_lld
    vsnprintf.o(.text) refers (Special) to _printf_lli.o(.ARM.Collect$$_printf_percent$$0000000D) for _printf_lli
    vsnprintf.o(.text) refers (Special) to _printf_llo.o(.ARM.Collect$$_printf_percent$$00000010) for _printf_llo
    vsnprintf.o(.text) refers (Special) to _printf_llu.o(.ARM.Collect$$_printf_percent$$0000000F) for _printf_llu
    vsnprintf.o(.text) refers (Special) to _printf_llx.o(.ARM.Collect$$_printf_percent$$00000011) for _printf_llx
    vsnprintf.o(.text) refers (Special) to _printf_longlong_dec.o(.text) for _printf_longlong_dec
    vsnprintf.o(.text) refers (Special) to _printf_hex_int_ll_ptr.o(.text) for _printf_longlong_hex
    vsnprintf.o(.text) refers (Special) to _printf_oct_int_ll.o(.text) for _printf_longlong_oct
    vsnprintf.o(.text) refers (Special) to _printf_ls.o(.ARM.Collect$$_printf_percent$$00000016) for _printf_ls
    vsnprintf.o(.text) refers (Special) to _printf_n.o(.ARM.Collect$$_printf_percent$$00000001) for _printf_n
    vsnprintf.o(.text) refers (Special) to _printf_o.o(.ARM.Collect$$_printf_percent$$0000000B) for _printf_o
    vsnprintf.o(.text) refers (Special) to _printf_p.o(.ARM.Collect$$_printf_percent$$00000002) for _printf_p
    vsnprintf.o(.text) refers (Special) to _printf_percent.o(.ARM.Collect$$_printf_percent$$00000000) for _printf_percent
    vsnprintf.o(.text) refers (Special) to _printf_pad.o(.text) for _printf_post_padding
    vsnprintf.o(.text) refers (Special) to _printf_s.o(.ARM.Collect$$_printf_percent$$00000014) for _printf_s
    vsnprintf.o(.text) refers (Special) to _printf_str.o(.text) for _printf_str
    vsnprintf.o(.text) refers (Special) to _printf_truncate.o(.text) for _printf_truncate_signed
    vsnprintf.o(.text) refers (Special) to _printf_u.o(.ARM.Collect$$_printf_percent$$0000000A) for _printf_u
    vsnprintf.o(.text) refers (Special) to _printf_wctomb.o(.text) for _printf_wctomb
    vsnprintf.o(.text) refers (Special) to _printf_x.o(.ARM.Collect$$_printf_percent$$0000000C) for _printf_x
    vsnprintf.o(.text) refers to _printf_char_common.o(.text) for _printf_char_common
    vsnprintf.o(.text) refers to _sputc.o(.text) for _sputc
    vsnprintf.o(.text) refers to _snputc.o(.text) for _snputc
    _printf_fp_dec.o(.text) refers (Special) to usenofp.o(x$fpl$usenofp) for __I$use$fp
    _printf_fp_dec.o(.text) refers (Special) to lc_numeric_c.o(locale$$code) for _get_lc_numeric
    _printf_fp_dec.o(.text) refers to bigflt0.o(.text) for _btod_etento
    _printf_fp_dec.o(.text) refers to btod.o(CL$$btod_d2e) for _btod_d2e
    _printf_fp_dec.o(.text) refers to btod.o(CL$$btod_ediv) for _btod_ediv
    _printf_fp_dec.o(.text) refers to btod.o(CL$$btod_emul) for _btod_emul
    _printf_fp_dec.o(.text) refers to lludiv10.o(.text) for _ll_udiv10
    _printf_fp_dec.o(.text) refers to fpclassify.o(i.__ARM_fpclassify) for __ARM_fpclassify
    _printf_fp_dec.o(.text) refers to _printf_fp_infnan.o(.text) for _printf_fp_infnan
    _printf_fp_dec.o(.text) refers (Weak) to _printf_pad.o(.text) for _printf_pre_padding
    _printf_fp_dec.o(.text) refers (Weak) to _printf_pad.o(.text) for _printf_pre_padding
    _printf_fp_dec.o(.text) refers to rt_locale.o(.text) for __rt_locale
    _printf_fp_dec.o(.text) refers (Weak) to _printf_pad.o(.text) for _printf_post_padding
    _printf_fp_hex.o(.text) refers (Special) to usenofp.o(x$fpl$usenofp) for __I$use$fp
    _printf_fp_hex.o(.text) refers to fpclassify.o(i.__ARM_fpclassify) for __ARM_fpclassify
    _printf_fp_hex.o(.text) refers to _printf_fp_infnan.o(.text) for _printf_fp_infnan
    _printf_fp_hex.o(.text) refers (Weak) to _printf_pad.o(.text) for _printf_pre_padding
    _printf_fp_hex.o(.text) refers (Weak) to _printf_pad.o(.text) for _printf_pre_padding
    _printf_fp_hex.o(.text) refers (Weak) to _printf_pad.o(.text) for _printf_post_padding
    _printf_fp_hex.o(.text) refers to _printf_fp_hex.o(.constdata) for .constdata
    _printf_fp_hex.o(.constdata) refers (Special) to usenofp.o(x$fpl$usenofp) for __I$use$fp
    _printf_char.o(.text) refers (Weak) to _printf_str.o(.text) for _printf_str
    _printf_char_file_locked.o(.text) refers to _printf_char_common.o(.text) for _printf_char_common
    _printf_char_file_locked.o(.text) refers to fputc.o(i._fputc$unlocked) for _fputc$unlocked
    _printf_wchar.o(.text) refers (Weak) to _printf_wctomb.o(.text) for _printf_wctomb
    _scanf.o(.text) refers (Weak) to scanf1.o(x$fpl$scanf1) for _scanf_real
    _scanf.o(.text) refers (Weak) to _scanf_longlong.o(.text) for _scanf_longlong
    _scanf.o(.text) refers (Weak) to _scanf_int.o(.text) for _scanf_int
    _scanf.o(.text) refers (Weak) to _scanf_wstr.o(.text) for _scanf_wstring
    _scanf.o(.text) refers (Weak) to _scanf_mbtowc.o(.text) for _scanf_mbtowc
    _scanf.o(.text) refers (Weak) to _scanf_str.o(.text) for _scanf_string
    _scanf.o(.text) refers (Weak) to _scanf_wctomb.o(.text) for _scanf_wctomb
    scanf_fp.o(.text) refers (Special) to usenofp.o(x$fpl$usenofp) for __I$use$fp
    scanf_fp.o(.text) refers (Special) to lc_numeric_c.o(locale$$code) for _get_lc_numeric
    scanf_fp.o(.text) refers to rt_errno_addr.o(.text) for __aeabi_errno_addr
    scanf_fp.o(.text) refers to bigflt0.o(.text) for _btod_etento
    scanf_fp.o(.text) refers to btod.o(CL$$btod_emuld) for _btod_emuld
    scanf_fp.o(.text) refers to btod.o(CL$$btod_edivd) for _btod_edivd
    scanf_fp.o(.text) refers to rt_locale.o(.text) for __rt_locale
    scanf_fp.o(.text) refers to scanf2.o(x$fpl$scanf2) for _scanf_infnan
    scanf_fp.o(.text) refers to __printf_wp.o(i._is_digit) for _is_digit
    scanf_fp.o(.text) refers to narrow.o(i.__mathlib_narrow) for __mathlib_narrow
    scanf_fp.o(.text) refers to fpconst.o(c$$dinf) for __huge_val
    scanf_char_file_locked.o(.text) refers to scanf_char.o(.text) for __vfscanf_char
    scanf_char_file_locked.o(.text) refers to fgetc.o(i._fgetc$unlocked) for _fgetc$unlocked
    scanf_char_file_locked.o(.text) refers to backspace.o(.text) for ___backspace$unlocked
    backspace.o(.text) refers to ungetc.o(.text) for _ungetc_internal
    ftell.o(.text) refers to rt_errno_addr.o(.text) for __aeabi_errno_addr
    freadfast.o(.text) refers to filbuf.o(.text) for _readbuf
    freadfast.o(.text) refers to rt_memcpy_v6.o(.text) for __aeabi_memcpy
    fread_bytes_avail.o(.text) refers to filbuf.o(.text) for __filbuf_byte
    fread_bytes_avail.o(.text) refers to rt_memcpy_v6.o(.text) for __aeabi_memcpy
    fwritefast.o(.text) refers to stdio.o(.text) for _writebuf
    fwritefast.o(.text) refers to flsbuf.o(.text) for __flsbuf_byte
    fwritefast.o(.text) refers to rt_memcpy_v6.o(.text) for __aeabi_memcpy
    flushlinebuffered.o(.text) refers to fflush.o(.text) for _do_fflush
    flushlinebuffered.o(.text) refers to stdio_streams.o(.bss) for __stdin
    freadfast_locked.o(.text) refers to filbuf.o(.text) for _readbuf
    freadfast_locked.o(.text) refers to rt_memcpy_v6.o(.text) for __aeabi_memcpy
    fread_bytes_avail_locked.o(.text) refers to filbuf.o(.text) for __filbuf_byte
    fread_bytes_avail_locked.o(.text) refers to rt_memcpy_v6.o(.text) for __aeabi_memcpy
    fwritefast_locked.o(.text) refers to stdio.o(.text) for _writebuf
    fwritefast_locked.o(.text) refers to flsbuf.o(.text) for __flsbuf_byte
    fwritefast_locked.o(.text) refers to rt_memcpy_v6.o(.text) for __aeabi_memcpy
    flushlinebuffered_locked.o(.text) refers to fflush.o(.text) for _do_fflush
    flushlinebuffered_locked.o(.text) refers to streamlock.o(.data) for _stream_list_lock
    flushlinebuffered_locked.o(.text) refers to stdio_streams.o(.bss) for __stdin
    _mbrtowc.o(.text) refers to rt_ctype_table.o(.text) for __rt_ctype_table
    _wcrtomb.o(.text) refers to rt_ctype_table.o(.text) for __rt_ctype_table
    lc_ctype_c.o(locale$$data) refers (Special) to libinit2.o(.ARM.Collect$$libinit$$00000012) for __rt_lib_init_lc_ctype_2
    lc_ctype_c.o(locale$$code) refers (Special) to libinit2.o(.ARM.Collect$$libinit$$00000012) for __rt_lib_init_lc_ctype_2
    lc_ctype_c.o(locale$$code) refers to strcmpv7m.o(.text) for strcmp
    lc_ctype_c.o(locale$$code) refers to lc_ctype_c.o(locale$$data) for __lcctype_c_name
    defsig_exit.o(.text) refers to sys_exit.o(.text) for _sys_exit
    defsig_abrt_outer.o(.text) refers to defsig_abrt_inner.o(.text) for __rt_SIGABRT_inner
    defsig_abrt_outer.o(.text) refers to defsig_exit.o(.text) for __sig_exit
    defsig_abrt_formal.o(.text) refers to rt_raise.o(.text) for __rt_raise
    defsig_rtred_outer.o(.text) refers to defsig_rtred_inner.o(.text) for __rt_SIGRTRED_inner
    defsig_rtred_outer.o(.text) refers to defsig_exit.o(.text) for __sig_exit
    defsig_rtred_formal.o(.text) refers to rt_raise.o(.text) for __rt_raise
    defsig_pvfn_inner.o(.text) refers to defsig_general.o(.text) for __default_signal_display
    assert_stdio.o(.text) refers to fputs.o(.text) for fputs
    assert_stdio.o(.text) refers to fflush.o(.text) for fflush
    assert_stdio.o(.text) refers to stdio_streams.o(.bss) for __stderr
    rt_memmove_w.o(.text) refers to rt_memcpy_w.o(.text) for __aeabi_memcpy4
    _get_argv.o(.text) refers (Special) to hrguard.o(.text) for __heap_region$guard
    _get_argv.o(.text) refers to h1_alloc.o(.text) for malloc
    _get_argv.o(.text) refers to defsig_rtmem_outer.o(.text) for __rt_SIGRTMEM
    _get_argv.o(.text) refers to stdio.cpp.lpc1768.arm.o(i._sys_command_string) for _sys_command_string
    argv_veneer.o(.emb_text) refers to no_argv.o(.text) for __ARM_get_argv
    libshutdown2.o(.ARM.Collect$$libshutdown$$00000001) refers (Weak) to cxa_finalize.o(.text) for __cxa_finalize
    libshutdown2.o(.ARM.Collect$$libshutdown$$00000003) refers (Weak) to initio.o(.text) for _terminateio
    libshutdown2.o(.ARM.Collect$$libshutdown$$0000000D) refers (Weak) to term_alloc.o(.text) for _terminate_alloc
    char.o(i._ZNKSt14collate_bynameIcE10do_compareEPKcS2_S2_S2_) refers to locale.o(i._ZN4__rw21__rw_use_c_lib_localeC1EPKci) for __rw::__rw_use_c_lib_locale::__rw_use_c_lib_locale(const char*, int)
    char.o(i._ZNKSt14collate_bynameIcE10do_compareEPKcS2_S2_S2_) refers to array_new.o(i._Znaj) for operator new[] (unsigned)
    char.o(i._ZNKSt14collate_bynameIcE10do_compareEPKcS2_S2_S2_) refers to rt_memcpy_v6.o(.text) for __aeabi_memcpy
    char.o(i._ZNKSt14collate_bynameIcE10do_compareEPKcS2_S2_S2_) refers to strcoll.o(.text) for strcoll
    char.o(i._ZNKSt14collate_bynameIcE10do_compareEPKcS2_S2_S2_) refers to array_del.o(i._ZdaPv) for operator delete[] (void*)
    char.o(i._ZNKSt14collate_bynameIcE10do_compareEPKcS2_S2_S2_) refers to char.o(i._ZN4__rw21__rw_use_c_lib_localeD1Ev) for __rw::__rw_use_c_lib_locale::~__rw_use_c_lib_locale()
    char.o(i._ZNKSt14collate_bynameIcE10do_compareEPKcS2_S2_S2_.clean) refers to char.o(i._ZN4__rw21__rw_use_c_lib_localeD1Ev) for __rw::__rw_use_c_lib_locale::~__rw_use_c_lib_locale()
    char.o(i._ZNKSt14collate_bynameIcE10do_compareEPKcS2_S2_S2_.clean) refers to arm_exceptions_cleanup.o(.emb_text) for __cxa_end_cleanup
    char.o(i._ZNKSt14collate_bynameIcE12do_transformEPKcS2_) refers to locale.o(i._ZN4__rw21__rw_use_c_lib_localeC1EPKci) for __rw::__rw_use_c_lib_locale::__rw_use_c_lib_locale(const char*, int)
    char.o(i._ZNKSt14collate_bynameIcE12do_transformEPKcS2_) refers to array_new.o(i._Znaj) for operator new[] (unsigned)
    char.o(i._ZNKSt14collate_bynameIcE12do_transformEPKcS2_) refers to rt_memcpy_v6.o(.text) for __aeabi_memcpy
    char.o(i._ZNKSt14collate_bynameIcE12do_transformEPKcS2_) refers to strxfrm.o(.text) for strxfrm
    char.o(i._ZNKSt14collate_bynameIcE12do_transformEPKcS2_) refers to char.o(t._ZNSsC1EPKcjRKSaIcE) for std::basic_string<char, std::char_traits<char>, std::allocator<char>>::basic_string(const char*, unsigned, const std::allocator<char>&)
    char.o(i._ZNKSt14collate_bynameIcE12do_transformEPKcS2_) refers to char.o(t._ZNSs5beginEv) for std::basic_string<char, std::char_traits<char>, std::allocator<char>>::begin()
    char.o(i._ZNKSt14collate_bynameIcE12do_transformEPKcS2_) refers to array_del.o(i._ZdaPv) for operator delete[] (void*)
    char.o(i._ZNKSt14collate_bynameIcE12do_transformEPKcS2_) refers to char.o(i._ZN4__rw21__rw_use_c_lib_localeD1Ev) for __rw::__rw_use_c_lib_locale::~__rw_use_c_lib_locale()
    char.o(i._ZNKSt14collate_bynameIcE12do_transformEPKcS2_.clean) refers to char.o(t._ZNSsD1Ev) for std::basic_string<char, std::char_traits<char>, std::allocator<char>>::~basic_string()
    char.o(i._ZNKSt14collate_bynameIcE12do_transformEPKcS2_.clean) refers to char.o(i._ZN4__rw21__rw_use_c_lib_localeD1Ev) for __rw::__rw_use_c_lib_locale::~__rw_use_c_lib_locale()
    char.o(i._ZNKSt14collate_bynameIcE12do_transformEPKcS2_.clean) refers to arm_exceptions_cleanup.o(.emb_text) for __cxa_end_cleanup
    char.o(i._ZNSt12ctype_bynameIcE17_C_get_mask_tableEPKc) refers to strcmpv7m.o(.text) for strcmp
    char.o(i._ZNSt12ctype_bynameIcE17_C_get_mask_tableEPKc) refers to array_new.o(i._Znaj) for operator new[] (unsigned)
    char.o(i._ZNSt12ctype_bynameIcE17_C_get_mask_tableEPKc) refers to locale.o(i._ZN4__rw21__rw_use_c_lib_localeC1EPKci) for __rw::__rw_use_c_lib_locale::__rw_use_c_lib_locale(const char*, int)
    char.o(i._ZNSt12ctype_bynameIcE17_C_get_mask_tableEPKc) refers to rt_ctype_table.o(.text) for __rt_ctype_table
    char.o(i._ZNSt12ctype_bynameIcE17_C_get_mask_tableEPKc) refers to char.o(i._ZN4__rw21__rw_use_c_lib_localeD1Ev) for __rw::__rw_use_c_lib_locale::~__rw_use_c_lib_locale()
    char.o(i._ZNSt12ctype_bynameIcE17_C_get_mask_tableEPKc) refers to char.o(.constdata) for .constdata
    char.o(i._ZNSt12ctype_bynameIcE17_C_get_mask_tableEPKc.clean) refers to arm_exceptions_cleanup.o(.emb_text) for __cxa_end_cleanup
    char.o(i._ZNSt12ctype_bynameIcEC1EPKcj) refers to char.o(i._ZNSt12ctype_bynameIcE17_C_get_mask_tableEPKc) for std::ctype_byname<char>::_C_get_mask_table(const char*)
    char.o(i._ZNSt12ctype_bynameIcEC1EPKcj) refers to char.o(i._ZNSt5ctypeIcEC1EPKNSt10ctype_base4maskEbj) for std::ctype<char>::ctype(const std::ctype_base::mask*, bool, unsigned)
    char.o(i._ZNSt12ctype_bynameIcEC1EPKcj) refers to locale.o(i._ZN4__rw21__rw_use_c_lib_localeC1EPKci) for __rw::__rw_use_c_lib_locale::__rw_use_c_lib_locale(const char*, int)
    char.o(i._ZNSt12ctype_bynameIcEC1EPKcj) refers to char.o(i._ZNKSt5ctypeIcE2isENSt10ctype_base4maskEc) for std::ctype<char>::is(std::ctype_base::mask, char) const
    char.o(i._ZNSt12ctype_bynameIcEC1EPKcj) refers to char.o(i._ZN4__rw21__rw_use_c_lib_localeD1Ev) for __rw::__rw_use_c_lib_locale::~__rw_use_c_lib_locale()
    char.o(i._ZNSt12ctype_bynameIcEC1EPKcj) refers to char.o(.constdata__ZTVSt12ctype_bynameIcE) for vtable for std::ctype_byname<char>
    char.o(i._ZNSt12ctype_bynameIcEC1EPKcj) refers to char.o(.constdata) for .constdata
    char.o(i._ZNSt12ctype_bynameIcEC1EPKcj.clean) refers to char.o(i._ZN4__rw21__rw_use_c_lib_localeD1Ev) for __rw::__rw_use_c_lib_locale::~__rw_use_c_lib_locale()
    char.o(i._ZNSt12ctype_bynameIcEC1EPKcj.clean) refers to char.o(i._ZNSt5ctypeIcED1Ev) for std::ctype<char>::~ctype()
    char.o(i._ZNSt12ctype_bynameIcEC1EPKcj.clean) refers to arm_exceptions_cleanup.o(.emb_text) for __cxa_end_cleanup
    char.o(i._ZNSt5ctypeIcE12_C_initfacetERKSt6locale) refers to locale.o(i._ZNKSt6locale4nameEv) for std::locale::name() const
    char.o(i._ZNSt5ctypeIcE12_C_initfacetERKSt6locale) refers to locale.o(i._ZN4__rw21__rw_use_c_lib_localeC1EPKci) for __rw::__rw_use_c_lib_locale::__rw_use_c_lib_locale(const char*, int)
    char.o(i._ZNSt5ctypeIcE12_C_initfacetERKSt6locale) refers to char.o(t._ZNSsD1Ev) for std::basic_string<char, std::char_traits<char>, std::allocator<char>>::~basic_string()
    char.o(i._ZNSt5ctypeIcE12_C_initfacetERKSt6locale) refers to char.o(i._ZNKSt5ctypeIcE2isENSt10ctype_base4maskEc) for std::ctype<char>::is(std::ctype_base::mask, char) const
    char.o(i._ZNSt5ctypeIcE12_C_initfacetERKSt6locale) refers to char.o(i._ZN4__rw21__rw_use_c_lib_localeD1Ev) for __rw::__rw_use_c_lib_locale::~__rw_use_c_lib_locale()
    char.o(i._ZNSt5ctypeIcE12_C_initfacetERKSt6locale.clean) refers to char.o(i._ZN4__rw21__rw_use_c_lib_localeD1Ev) for __rw::__rw_use_c_lib_locale::~__rw_use_c_lib_locale()
    char.o(i._ZNSt5ctypeIcE12_C_initfacetERKSt6locale.clean) refers to arm_exceptions_cleanup.o(.emb_text) for __cxa_end_cleanup
    char.o(i._ZNSt5ctypeIcE12_C_initfacetERKSt6locale.clean) refers to char.o(t._ZNSsD1Ev) for std::basic_string<char, std::char_traits<char>, std::allocator<char>>::~basic_string()
    char.o(i._ZNSt5ctypeIcEC1EPKNSt10ctype_base4maskEbj) refers to char.o(i._ZNKSt5ctypeIcE2isENSt10ctype_base4maskEc) for std::ctype<char>::is(std::ctype_base::mask, char) const
    char.o(i._ZNSt5ctypeIcEC1EPKNSt10ctype_base4maskEbj) refers to array_new.o(i._Znaj) for operator new[] (unsigned)
    char.o(i._ZNSt5ctypeIcEC1EPKNSt10ctype_base4maskEbj) refers to char.o(.constdata__ZTVSt5ctypeIcE) for vtable for std::ctype<char>
    char.o(i._ZNSt5ctypeIcEC1EPKNSt10ctype_base4maskEbj) refers to char.o(.constdata) for .constdata
    char.o(i._ZNSt5ctypeIcEC1EPKNSt10ctype_base4maskEbj.clean) refers to arm_exceptions_cleanup.o(.emb_text) for __cxa_end_cleanup
    char.o(i.__sti___8_char_cpp_a3dc957a) refers to char.o(.data) for .data
    char.o(.ARM.exidx) refers to char.o(i._ZNSt5ctypeIcE12_C_initfacetERKSt6locale) for i._ZNSt5ctypeIcE12_C_initfacetERKSt6locale
    char.o(.ARM.exidx) refers to unwind_pr0.o(.text) for __aeabi_unwind_cpp_pr0
    char.o(.ARM.exidx) refers to char.o(.ARM.extab) for .extab._ZNSt5ctypeIcE12_C_initfacetERKSt6locale
    char.o(.ARM.exidx) refers to char.o(i._ZNSt5ctypeIcE12_C_initfacetERKSt6locale.clean) for i._ZNSt5ctypeIcE12_C_initfacetERKSt6locale.clean
    char.o(.ARM.exidx) refers to char.o(i._ZNSt5ctypeIcEC1EPKNSt10ctype_base4maskEbj) for i._ZNSt5ctypeIcEC1EPKNSt10ctype_base4maskEbj
    char.o(.ARM.exidx) refers to unwind_pr0.o(.text) for __aeabi_unwind_cpp_pr0
    char.o(.ARM.exidx) refers to char.o(.ARM.extab) for .extab._ZNSt5ctypeIcEC1EPKNSt10ctype_base4maskEbj
    char.o(.ARM.exidx) refers to char.o(i._ZNSt5ctypeIcEC1EPKNSt10ctype_base4maskEbj.clean) for i._ZNSt5ctypeIcEC1EPKNSt10ctype_base4maskEbj.clean
    char.o(.ARM.exidx) refers to char.o(i._ZNSt12ctype_bynameIcE17_C_get_mask_tableEPKc) for i._ZNSt12ctype_bynameIcE17_C_get_mask_tableEPKc
    char.o(.ARM.exidx) refers to unwind_pr0.o(.text) for __aeabi_unwind_cpp_pr0
    char.o(.ARM.exidx) refers to char.o(i._ZNSt12ctype_bynameIcE17_C_get_mask_tableEPKc.clean) for i._ZNSt12ctype_bynameIcE17_C_get_mask_tableEPKc.clean
    char.o(.ARM.exidx) refers to char.o(i._ZNSt12ctype_bynameIcEC1EPKcj) for i._ZNSt12ctype_bynameIcEC1EPKcj
    char.o(.ARM.exidx) refers to unwind_pr0.o(.text) for __aeabi_unwind_cpp_pr0
    char.o(.ARM.exidx) refers to char.o(.ARM.extab) for .extab._ZNSt12ctype_bynameIcEC1EPKcj
    char.o(.ARM.exidx) refers to char.o(i._ZNSt12ctype_bynameIcEC1EPKcj.clean) for i._ZNSt12ctype_bynameIcEC1EPKcj.clean
    char.o(.ARM.exidx) refers to char.o(i._ZNKSt14collate_bynameIcE10do_compareEPKcS2_S2_S2_) for i._ZNKSt14collate_bynameIcE10do_compareEPKcS2_S2_S2_
    char.o(.ARM.exidx) refers to unwind_pr0.o(.text) for __aeabi_unwind_cpp_pr0
    char.o(.ARM.exidx) refers to char.o(.ARM.extab) for .extab._ZNKSt14collate_bynameIcE10do_compareEPKcS2_S2_S2_
    char.o(.ARM.exidx) refers to char.o(i._ZNKSt14collate_bynameIcE10do_compareEPKcS2_S2_S2_.clean) for i._ZNKSt14collate_bynameIcE10do_compareEPKcS2_S2_S2_.clean
    char.o(.ARM.exidx) refers to char.o(i._ZNKSt14collate_bynameIcE12do_transformEPKcS2_) for i._ZNKSt14collate_bynameIcE12do_transformEPKcS2_
    char.o(.ARM.exidx) refers to unwind_pr0.o(.text) for __aeabi_unwind_cpp_pr0
    char.o(.ARM.exidx) refers to char.o(.ARM.extab) for .extab._ZNKSt14collate_bynameIcE12do_transformEPKcS2_
    char.o(.ARM.exidx) refers to char.o(i._ZNKSt14collate_bynameIcE12do_transformEPKcS2_.clean) for i._ZNKSt14collate_bynameIcE12do_transformEPKcS2_.clean
    char.o(.ARM.exidx) refers to char.o(i.__sti___8_char_cpp_a3dc957a) for i.__sti___8_char_cpp_a3dc957a
    char.o(.ARM.extab) refers to char.o(i._ZNSt5ctypeIcE12_C_initfacetERKSt6locale.clean) for i._ZNSt5ctypeIcE12_C_initfacetERKSt6locale.clean
    char.o(.ARM.extab) refers to char.o(i._ZNSt5ctypeIcEC1EPKNSt10ctype_base4maskEbj.clean) for i._ZNSt5ctypeIcEC1EPKNSt10ctype_base4maskEbj.clean
    char.o(.ARM.extab) refers to char.o(i._ZNSt12ctype_bynameIcEC1EPKcj.clean) for i._ZNSt12ctype_bynameIcEC1EPKcj.clean
    char.o(.ARM.extab) refers to char.o(i._ZNKSt14collate_bynameIcE10do_compareEPKcS2_S2_S2_.clean) for i._ZNKSt14collate_bynameIcE10do_compareEPKcS2_S2_S2_.clean
    char.o(.ARM.extab) refers to char.o(i._ZNKSt14collate_bynameIcE12do_transformEPKcS2_.clean) for i._ZNKSt14collate_bynameIcE12do_transformEPKcS2_.clean
    char.o(.init_array) refers to char.o(i.__sti___8_char_cpp_a3dc957a) for __sti___8_char_cpp_a3dc957a
    char.o(.init_array) refers to init_aeabi.o(.text) for __cpp_initialize__aeabi_
    locale.o(i.<Func5>) refers to locale.o(t._ZNSsC1ERKSaIcE) for std::basic_string<char, std::char_traits<char>, std::allocator<char>>::basic_string(const std::allocator<char>&)
    locale.o(i._ZN4__rw21__rw_use_c_lib_localeC1EPKci) refers to locale.o(.text) for setlocale
    locale.o(i._ZN4__rw21__rw_use_c_lib_localeC1EPKci) refers to strlen.o(.text) for strlen
    locale.o(i._ZN4__rw21__rw_use_c_lib_localeC1EPKci) refers to array_new.o(i._Znaj) for operator new[] (unsigned)
    locale.o(i._ZN4__rw21__rw_use_c_lib_localeC1EPKci) refers to strcpy.o(.text) for strcpy
    locale.o(i._ZN4__rw23__rw_numpunct_impl_base18_C_get_named_init_EPKc) refers to locale.o(i._ZN4__rw21__rw_use_c_lib_localeC1EPKci) for __rw::__rw_use_c_lib_locale::__rw_use_c_lib_locale(const char*, int)
    locale.o(i._ZN4__rw23__rw_numpunct_impl_base18_C_get_named_init_EPKc) refers to rwstdexcept.o(i._ZN4__rw10__rw_throwEiz) for __rw::__rw_throw(int, ...)
    locale.o(i._ZN4__rw23__rw_numpunct_impl_base18_C_get_named_init_EPKc) refers to localeconv.o(.text) for localeconv
    locale.o(i._ZN4__rw23__rw_numpunct_impl_base18_C_get_named_init_EPKc) refers to strlen.o(.text) for strlen
    locale.o(i._ZN4__rw23__rw_numpunct_impl_base18_C_get_named_init_EPKc) refers to array_new.o(i._Znaj) for operator new[] (unsigned)
    locale.o(i._ZN4__rw23__rw_numpunct_impl_base18_C_get_named_init_EPKc) refers to strcpy.o(.text) for strcpy
    locale.o(i._ZN4__rw23__rw_numpunct_impl_base18_C_get_named_init_EPKc) refers to char.o(i._ZN4__rw21__rw_use_c_lib_localeD1Ev) for __rw::__rw_use_c_lib_locale::~__rw_use_c_lib_locale()
    locale.o(i._ZN4__rw23__rw_numpunct_impl_base18_C_get_named_init_EPKc.clean) refers to char.o(i._ZN4__rw21__rw_use_c_lib_localeD1Ev) for __rw::__rw_use_c_lib_locale::~__rw_use_c_lib_locale()
    locale.o(i._ZN4__rw23__rw_numpunct_impl_base18_C_get_named_init_EPKc.clean) refers to arm_exceptions_cleanup.o(.emb_text) for __cxa_end_cleanup
    locale.o(i._ZNKSt14codecvt_bynameIwcSt11__mbstate_tE5do_inERS0_PKcS4_RS4_PwS6_RS6_) refers to mbrtowc.o(.text) for mbrtowc
    locale.o(i._ZNKSt14codecvt_bynameIwcSt11__mbstate_tE6do_outERS0_PKwS4_RS4_PcS6_RS6_) refers to _mbcurmax.o(.text) for __aeabi_MB_CUR_MAX
    locale.o(i._ZNKSt14codecvt_bynameIwcSt11__mbstate_tE6do_outERS0_PKwS4_RS4_PcS6_RS6_) refers to wcrtomb.o(.text) for wcrtomb
    locale.o(i._ZNKSt6locale13_C_make_facetERKNS_2idEbiPFPN4__rw15__rw_facet_baseEiPKcjE) refers to locale.o(t._ZN4__rw18__rw_locale_vectorIPNS_15__rw_facet_baseEE6resizeEjRKS2_) for __rw::__rw_locale_vector<__rw::__rw_facet_base*>::resize(unsigned, __rw::__rw_facet_base*const &)
    locale.o(i._ZNKSt6locale13_C_make_facetERKNS_2idEbiPFPN4__rw15__rw_facet_baseEiPKcjE) refers to rwstdexcept.o(i._ZN4__rw10__rw_throwEiz) for __rw::__rw_throw(int, ...)
    locale.o(i._ZNKSt6locale13_C_make_facetERKNS_2idEbiPFPN4__rw15__rw_facet_baseEiPKcjE) refers to locale.o(i._ZNSt6localeC1EPN4__rw15__rw_locale_impE) for std::locale::locale(__rw::__rw_locale_imp*)
    locale.o(i._ZNKSt6locale13_C_make_facetERKNS_2idEbiPFPN4__rw15__rw_facet_baseEiPKcjE) refers to locale.o(i._ZNKSt6locale16_C_install_facetEPN4__rw15__rw_facet_baseERKNS_2idE) for std::locale::_C_install_facet(__rw::__rw_facet_base*, const std::locale::id&) const
    locale.o(i._ZNKSt6locale13_C_make_facetERKNS_2idEbiPFPN4__rw15__rw_facet_baseEiPKcjE) refers to locale.o(i._ZNSt6localeD1Ev) for std::locale::~locale()
    locale.o(i._ZNKSt6locale13_C_make_facetERKNS_2idEbiPFPN4__rw15__rw_facet_baseEiPKcjE) refers to locale.o(.data) for .data
    locale.o(i._ZNKSt6locale13_C_make_facetERKNS_2idEbiPFPN4__rw15__rw_facet_baseEiPKcjE) refers to locale.o(.constdata__ZZNK4__rw15__rw_locale_imp16_C_category_nameEiEs) for __rw::__rw_locale_imp::_C_category_name(int) const::string
    locale.o(i._ZNKSt6locale13_C_make_facetERKNS_2idEbiPFPN4__rw15__rw_facet_baseEiPKcjE.clean) refers to locale.o(i._ZNSt6localeD1Ev) for std::locale::~locale()
    locale.o(i._ZNKSt6locale13_C_make_facetERKNS_2idEbiPFPN4__rw15__rw_facet_baseEiPKcjE.clean) refers to arm_exceptions_cleanup.o(.emb_text) for __cxa_end_cleanup
    locale.o(i._ZNKSt6locale16_C_install_facetEPN4__rw15__rw_facet_baseERKNS_2idE) refers to locale.o(t._ZN4__rw18__rw_locale_vectorIPNS_15__rw_facet_baseEE6resizeEjRKS2_) for __rw::__rw_locale_vector<__rw::__rw_facet_base*>::resize(unsigned, __rw::__rw_facet_base*const &)
    locale.o(i._ZNKSt6locale16_C_install_facetEPN4__rw15__rw_facet_baseERKNS_2idE) refers to locale.o(.data__ZZNKSt6locale2id7_C_initEvE9_C_id_gen) for std::locale::id::_C_init() const::_C_id_gen
    locale.o(i._ZNKSt6locale4nameEv) refers to locale.o(t._ZNSsC1EPKcRKSaIcE) for std::basic_string<char, std::char_traits<char>, std::allocator<char>>::basic_string(const char*, const std::allocator<char>&)
    locale.o(i._ZNSt6locale6globalERKS_) refers to locale.o(i._ZNKSt6locale4nameEv) for std::locale::name() const
    locale.o(i._ZNSt6locale6globalERKS_) refers to locale.o(.text) for setlocale
    locale.o(i._ZNSt6locale6globalERKS_) refers to char.o(t._ZNSsD1Ev) for std::basic_string<char, std::char_traits<char>, std::allocator<char>>::~basic_string()
    locale.o(i._ZNSt6locale6globalERKS_) refers to rwstdexcept.o(i._ZN4__rw10__rw_throwEiz) for __rw::__rw_throw(int, ...)
    locale.o(i._ZNSt6locale6globalERKS_) refers to locale.o(i._ZNSt6localeC1EPN4__rw15__rw_locale_impE) for std::locale::locale(__rw::__rw_locale_imp*)
    locale.o(i._ZNSt6locale6globalERKS_) refers to locale.o(.data) for .data
    locale.o(i._ZNSt6locale6globalERKS_.clean) refers to char.o(t._ZNSsD1Ev) for std::basic_string<char, std::char_traits<char>, std::allocator<char>>::~basic_string()
    locale.o(i._ZNSt6locale6globalERKS_.clean) refers to arm_exceptions_cleanup.o(.emb_text) for __cxa_end_cleanup
    locale.o(i._ZNSt6locale7_C_initEv) refers to new.o(i._Znwj) for operator new(unsigned)
    locale.o(i._ZNSt6locale7_C_initEv) refers to locale.o(i._ZN4__rw15__rw_locale_impC1EPKcjj) for __rw::__rw_locale_imp::__rw_locale_imp(const char*, unsigned, unsigned)
    locale.o(i._ZNSt6locale7_C_initEv) refers to locale.o(t._ZNSsaSEPKc) for std::basic_string<char, std::char_traits<char>, std::allocator<char>>::operator =(const char*)
    locale.o(i._ZNSt6locale7_C_initEv) refers to locale.o(i._ZN4__rw15__rw_locale_impD1Ev) for __rw::__rw_locale_imp::~__rw_locale_imp()
    locale.o(i._ZNSt6locale7_C_initEv) refers to delete.o(i._ZdlPv) for operator delete (void*)
    locale.o(i._ZNSt6locale7_C_initEv) refers to locale.o(.data) for .data
    locale.o(i._ZNSt6locale7_C_initEv.clean) refers to delete.o(i._ZdlPv) for operator delete (void*)
    locale.o(i._ZNSt6locale7_C_initEv.clean) refers to arm_exceptions_cleanup.o(.emb_text) for __cxa_end_cleanup
    locale.o(i._ZNSt6locale7classicEv) refers to locale.o(i._ZNSt6locale7_C_initEv) for std::locale::_C_init()
    locale.o(i._ZNSt6locale7classicEv) refers to cxa_guard_acquire.o(i.__cxa_guard_acquire) for __cxa_guard_acquire
    locale.o(i._ZNSt6locale7classicEv) refers to locale.o(i._ZNSt6localeC1EPN4__rw15__rw_locale_impE) for std::locale::locale(__rw::__rw_locale_imp*)
    locale.o(i._ZNSt6locale7classicEv) refers to aeabi_atexit.o(.text) for __aeabi_atexit
    locale.o(i._ZNSt6locale7classicEv) refers to locale.o(.data) for .data
    locale.o(i._ZNSt6locale7classicEv) refers to locale.o(i._ZNSt6localeD1Ev) for std::locale::~locale()
    locale.o(i._ZNSt6locale7classicEv.clean) refers to arm_exceptions_cleanup.o(.emb_text) for __cxa_end_cleanup
    locale.o(i._ZNSt6locale7classicEv.clean) refers to locale.o(.data) for .data
    locale.o(i._ZNSt6localeC1EPKc) refers to rwstdexcept.o(i._ZN4__rw10__rw_throwEiz) for __rw::__rw_throw(int, ...)
    locale.o(i._ZNSt6localeC1EPKc) refers to locale.o(i._ZNSt6locale7_C_initEv) for std::locale::_C_init()
    locale.o(i._ZNSt6localeC1EPKc) refers to strcmpv7m.o(.text) for strcmp
    locale.o(i._ZNSt6localeC1EPKc) refers to new.o(i._Znwj) for operator new(unsigned)
    locale.o(i._ZNSt6localeC1EPKc) refers to locale.o(i._ZN4__rw15__rw_locale_impC1EPKcjj) for __rw::__rw_locale_imp::__rw_locale_imp(const char*, unsigned, unsigned)
    locale.o(i._ZNSt6localeC1EPKc) refers to vendor.o(i._ZN4__rw15__rw_locale_imp13_C_parse_nameERNS_18__rw_locale_vectorISsEEPKc) for __rw::__rw_locale_imp::_C_parse_name(__rw::__rw_locale_vector<std::basic_string<char, std::char_traits<char>, std::allocator<char>>>&, const char*)
    locale.o(i._ZNSt6localeC1EPKc) refers to locale.o(i._ZN4__rw15__rw_locale_impD1Ev) for __rw::__rw_locale_imp::~__rw_locale_imp()
    locale.o(i._ZNSt6localeC1EPKc) refers to delete.o(i._ZdlPv) for operator delete (void*)
    locale.o(i._ZNSt6localeC1EPKc) refers to locale.o(.data) for .data
    locale.o(i._ZNSt6localeC1EPKc.clean) refers to delete.o(i._ZdlPv) for operator delete (void*)
    locale.o(i._ZNSt6localeC1EPKc.clean) refers to arm_exceptions_cleanup.o(.emb_text) for __cxa_end_cleanup
    locale.o(i._ZNSt6localeC1ERKS_PKci) refers to rwstdexcept.o(i._ZN4__rw10__rw_throwEiz) for __rw::__rw_throw(int, ...)
    locale.o(i._ZNSt6localeC1ERKS_PKci) refers to new.o(i._Znwj) for operator new(unsigned)
    locale.o(i._ZNSt6localeC1ERKS_PKci) refers to locale.o(i._ZN4__rw15__rw_locale_impC1ERKS0_PKcj) for __rw::__rw_locale_imp::__rw_locale_imp(const __rw::__rw_locale_imp&, const char*, unsigned)
    locale.o(i._ZNSt6localeC1ERKS_PKci) refers to vendor.o(i._ZN4__rw15__rw_locale_imp15_C_map_categoryEi) for __rw::__rw_locale_imp::_C_map_category(int)
    locale.o(i._ZNSt6localeC1ERKS_PKci) refers to locale.o(i._ZNSt6locale16_C_remove_facetsEi) for std::locale::_C_remove_facets(int)
    locale.o(i._ZNSt6localeC1ERKS_PKci) refers to aeabi_vec_new_cookie.o(i.__aeabi_vec_new_cookie) for __aeabi_vec_new_cookie
    locale.o(i._ZNSt6localeC1ERKS_PKci) refers to vendor.o(i._ZN4__rw15__rw_locale_imp13_C_parse_nameERNS_18__rw_locale_vectorISsEEPKc) for __rw::__rw_locale_imp::_C_parse_name(__rw::__rw_locale_vector<std::basic_string<char, std::char_traits<char>, std::allocator<char>>>&, const char*)
    locale.o(i._ZNSt6localeC1ERKS_PKci) refers to locale.o(t._ZNSsaSEPKc) for std::basic_string<char, std::char_traits<char>, std::allocator<char>>::operator =(const char*)
    locale.o(i._ZNSt6localeC1ERKS_PKci) refers to locale.o(t._ZN4__rw18__rw_locale_vectorISsED1Ev) for __rw::__rw_locale_vector<std::basic_string<char, std::char_traits<char>, std::allocator<char>>>::~__rw_locale_vector()
    locale.o(i._ZNSt6localeC1ERKS_PKci) refers to char.o(t._ZNSsD1Ev) for std::basic_string<char, std::char_traits<char>, std::allocator<char>>::~basic_string()
    locale.o(i._ZNSt6localeC1ERKS_PKci) refers to locale.o(i.<Func5>) for <Func5>
    locale.o(i._ZNSt6localeC1ERKS_PKci.clean) refers to delete.o(i._ZdlPv) for operator delete (void*)
    locale.o(i._ZNSt6localeC1ERKS_PKci.clean) refers to arm_exceptions_cleanup.o(.emb_text) for __cxa_end_cleanup
    locale.o(i._ZNSt6localeC1ERKS_PKci.clean) refers to locale.o(t._ZN4__rw18__rw_locale_vectorISsED1Ev) for __rw::__rw_locale_vector<std::basic_string<char, std::char_traits<char>, std::allocator<char>>>::~__rw_locale_vector()
    locale.o(i._ZNSt6localeC1ERKS_S1_i) refers to new.o(i._Znwj) for operator new(unsigned)
    locale.o(i._ZNSt6localeC1ERKS_S1_i) refers to locale.o(i._ZN4__rw15__rw_locale_impC1ERKS0_PKcj) for __rw::__rw_locale_imp::__rw_locale_imp(const __rw::__rw_locale_imp&, const char*, unsigned)
    locale.o(i._ZNSt6localeC1ERKS_S1_i) refers to vendor.o(i._ZN4__rw15__rw_locale_imp15_C_map_categoryEi) for __rw::__rw_locale_imp::_C_map_category(int)
    locale.o(i._ZNSt6localeC1ERKS_S1_i) refers to locale.o(t._ZNSsaSERKSs) for std::basic_string<char, std::char_traits<char>, std::allocator<char>>::operator =(const std::basic_string<char, std::char_traits<char>, std::allocator<char>>&)
    locale.o(i._ZNSt6localeC1ERKS_S1_i) refers to locale.o(i._ZNSt6locale16_C_remove_facetsEi) for std::locale::_C_remove_facets(int)
    locale.o(i._ZNSt6localeC1ERKS_S1_i.clean) refers to delete.o(i._ZdlPv) for operator delete (void*)
    locale.o(i._ZNSt6localeC1ERKS_S1_i.clean) refers to arm_exceptions_cleanup.o(.emb_text) for __cxa_end_cleanup
    locale.o(i._ZNSt6localeaSERKS_) refers to locale.o(i._ZN4__rw15__rw_locale_impD1Ev) for __rw::__rw_locale_imp::~__rw_locale_imp()
    locale.o(i._ZNSt6localeaSERKS_) refers to delete.o(i._ZdlPv) for operator delete (void*)
    locale.o(i.__sti___10_locale_cpp_ff99fc7b) refers to locale.o(.data) for .data
    locale.o(.ARM.exidx) refers to locale.o(i.<Func5>) for i.<Func5>
    locale.o(.ARM.exidx) refers to unwind_pr0.o(.text) for __aeabi_unwind_cpp_pr0
    locale.o(.ARM.exidx) refers to locale.o(i._ZNSt6locale7_C_initEv) for i._ZNSt6locale7_C_initEv
    locale.o(.ARM.exidx) refers to unwind_pr0.o(.text) for __aeabi_unwind_cpp_pr0
    locale.o(.ARM.exidx) refers to locale.o(.ARM.extab) for .extab._ZNSt6locale7_C_initEv
    locale.o(.ARM.exidx) refers to locale.o(i._ZNSt6locale7_C_initEv.clean) for i._ZNSt6locale7_C_initEv.clean
    locale.o(.ARM.exidx) refers to locale.o(i._ZNSt6localeC1EPKc) for i._ZNSt6localeC1EPKc
    locale.o(.ARM.exidx) refers to unwind_pr0.o(.text) for __aeabi_unwind_cpp_pr0
    locale.o(.ARM.exidx) refers to locale.o(.ARM.extab) for .extab._ZNSt6localeC1EPKc
    locale.o(.ARM.exidx) refers to locale.o(i._ZNSt6localeC1EPKc.clean) for i._ZNSt6localeC1EPKc.clean
    locale.o(.ARM.exidx) refers to locale.o(i._ZNSt6localeC1ERKS_PKci) for i._ZNSt6localeC1ERKS_PKci
    locale.o(.ARM.exidx) refers to unwind_pr0.o(.text) for __aeabi_unwind_cpp_pr0
    locale.o(.ARM.exidx) refers to locale.o(.ARM.extab) for .extab._ZNSt6localeC1ERKS_PKci
    locale.o(.ARM.exidx) refers to locale.o(i._ZNSt6localeC1ERKS_PKci.clean) for i._ZNSt6localeC1ERKS_PKci.clean
    locale.o(.ARM.exidx) refers to locale.o(i._ZNSt6localeC1ERKS_S1_i) for i._ZNSt6localeC1ERKS_S1_i
    locale.o(.ARM.exidx) refers to unwind_pr0.o(.text) for __aeabi_unwind_cpp_pr0
    locale.o(.ARM.exidx) refers to locale.o(.ARM.extab) for .extab._ZNSt6localeC1ERKS_S1_i
    locale.o(.ARM.exidx) refers to locale.o(i._ZNSt6localeC1ERKS_S1_i.clean) for i._ZNSt6localeC1ERKS_S1_i.clean
    locale.o(.ARM.exidx) refers to locale.o(i._ZNSt6localeaSERKS_) for i._ZNSt6localeaSERKS_
    locale.o(.ARM.exidx) refers to locale.o(i._ZNKSt6locale4nameEv) for i._ZNKSt6locale4nameEv
    locale.o(.ARM.exidx) refers to unwind_pr0.o(.text) for __aeabi_unwind_cpp_pr0
    locale.o(.ARM.exidx) refers to locale.o(i._ZNSt6locale6globalERKS_) for i._ZNSt6locale6globalERKS_
    locale.o(.ARM.exidx) refers to unwind_pr0.o(.text) for __aeabi_unwind_cpp_pr0
    locale.o(.ARM.exidx) refers to locale.o(.ARM.extab) for .extab._ZNSt6locale6globalERKS_
    locale.o(.ARM.exidx) refers to locale.o(i._ZNSt6locale6globalERKS_.clean) for i._ZNSt6locale6globalERKS_.clean
    locale.o(.ARM.exidx) refers to locale.o(i._ZNSt6locale7classicEv) for i._ZNSt6locale7classicEv
    locale.o(.ARM.exidx) refers to unwind_pr0.o(.text) for __aeabi_unwind_cpp_pr0
    locale.o(.ARM.exidx) refers to locale.o(.ARM.extab) for .extab._ZNSt6locale7classicEv
    locale.o(.ARM.exidx) refers to locale.o(i._ZNSt6locale7classicEv.clean) for i._ZNSt6locale7classicEv.clean
    locale.o(.ARM.exidx) refers to locale.o(i._ZNKSt6locale16_C_install_facetEPN4__rw15__rw_facet_baseERKNS_2idE) for i._ZNKSt6locale16_C_install_facetEPN4__rw15__rw_facet_baseERKNS_2idE
    locale.o(.ARM.exidx) refers to unwind_pr0.o(.text) for __aeabi_unwind_cpp_pr0
    locale.o(.ARM.exidx) refers to locale.o(i._ZNKSt6locale13_C_make_facetERKNS_2idEbiPFPN4__rw15__rw_facet_baseEiPKcjE) for i._ZNKSt6locale13_C_make_facetERKNS_2idEbiPFPN4__rw15__rw_facet_baseEiPKcjE
    locale.o(.ARM.exidx) refers to unwind_pr0.o(.text) for __aeabi_unwind_cpp_pr0
    locale.o(.ARM.exidx) refers to locale.o(.ARM.extab) for .extab._ZNKSt6locale13_C_make_facetERKNS_2idEbiPFPN4__rw15__rw_facet_baseEiPKcjE
    locale.o(.ARM.exidx) refers to locale.o(i._ZNKSt6locale13_C_make_facetERKNS_2idEbiPFPN4__rw15__rw_facet_baseEiPKcjE.clean) for i._ZNKSt6locale13_C_make_facetERKNS_2idEbiPFPN4__rw15__rw_facet_baseEiPKcjE.clean
    locale.o(.ARM.exidx) refers to locale.o(i._ZNKSt14codecvt_bynameIwcSt11__mbstate_tE6do_outERS0_PKwS4_RS4_PcS6_RS6_) for i._ZNKSt14codecvt_bynameIwcSt11__mbstate_tE6do_outERS0_PKwS4_RS4_PcS6_RS6_
    locale.o(.ARM.exidx) refers to unwind_pr0.o(.text) for __aeabi_unwind_cpp_pr0
    locale.o(.ARM.exidx) refers to locale.o(i._ZNKSt14codecvt_bynameIwcSt11__mbstate_tE5do_inERS0_PKcS4_RS4_PwS6_RS6_) for i._ZNKSt14codecvt_bynameIwcSt11__mbstate_tE5do_inERS0_PKcS4_RS4_PwS6_RS6_
    locale.o(.ARM.exidx) refers to unwind_pr0.o(.text) for __aeabi_unwind_cpp_pr0
    locale.o(.ARM.exidx) refers to locale.o(i._ZN4__rw21__rw_use_c_lib_localeC1EPKci) for i._ZN4__rw21__rw_use_c_lib_localeC1EPKci
    locale.o(.ARM.exidx) refers to unwind_pr0.o(.text) for __aeabi_unwind_cpp_pr0
    locale.o(.ARM.exidx) refers to locale.o(i._ZN4__rw23__rw_numpunct_impl_base18_C_get_named_init_EPKc) for i._ZN4__rw23__rw_numpunct_impl_base18_C_get_named_init_EPKc
    locale.o(.ARM.exidx) refers to unwind_pr0.o(.text) for __aeabi_unwind_cpp_pr0
    locale.o(.ARM.exidx) refers to locale.o(.ARM.extab) for .extab._ZN4__rw23__rw_numpunct_impl_base18_C_get_named_init_EPKc
    locale.o(.ARM.exidx) refers to locale.o(i._ZN4__rw23__rw_numpunct_impl_base18_C_get_named_init_EPKc.clean) for i._ZN4__rw23__rw_numpunct_impl_base18_C_get_named_init_EPKc.clean
    locale.o(.ARM.exidx) refers to locale.o(i.__sti___10_locale_cpp_ff99fc7b) for i.__sti___10_locale_cpp_ff99fc7b
    locale.o(.ARM.extab) refers to locale.o(i._ZNSt6locale7_C_initEv.clean) for i._ZNSt6locale7_C_initEv.clean
    locale.o(.ARM.extab) refers to locale.o(i._ZNSt6locale7_C_initEv) for i._ZNSt6locale7_C_initEv
    locale.o(.ARM.extab) refers to locale.o(i._ZNSt6localeC1EPKc.clean) for i._ZNSt6localeC1EPKc.clean
    locale.o(.ARM.extab) refers to locale.o(i._ZNSt6localeC1ERKS_PKci.clean) for i._ZNSt6localeC1ERKS_PKci.clean
    locale.o(.ARM.extab) refers to locale.o(i._ZNSt6localeC1ERKS_S1_i.clean) for i._ZNSt6localeC1ERKS_S1_i.clean
    locale.o(.ARM.extab) refers to locale.o(i._ZNSt6locale6globalERKS_.clean) for i._ZNSt6locale6globalERKS_.clean
    locale.o(.ARM.extab) refers to locale.o(i._ZNSt6locale7classicEv.clean) for i._ZNSt6locale7classicEv.clean
    locale.o(.ARM.extab) refers to locale.o(i._ZNKSt6locale13_C_make_facetERKNS_2idEbiPFPN4__rw15__rw_facet_baseEiPKcjE.clean) for i._ZNKSt6locale13_C_make_facetERKNS_2idEbiPFPN4__rw15__rw_facet_baseEiPKcjE.clean
    locale.o(.ARM.extab) refers to locale.o(i._ZN4__rw23__rw_numpunct_impl_base18_C_get_named_init_EPKc.clean) for i._ZN4__rw23__rw_numpunct_impl_base18_C_get_named_init_EPKc.clean
    locale.o(.init_array) refers to locale.o(i.__sti___10_locale_cpp_ff99fc7b) for __sti___10_locale_cpp_ff99fc7b
    locale.o(.init_array) refers to init_aeabi.o(.text) for __cpp_initialize__aeabi_
    messages.o(i._ZNKSt18__rw_messages_base11_C_cat_openERKSsRKSt6locale) refers to locale.o(i._ZN4__rw21__rw_use_c_lib_localeC1EPKci) for __rw::__rw_use_c_lib_locale::__rw_use_c_lib_locale(const char*, int)
    messages.o(i._ZNKSt18__rw_messages_base11_C_cat_openERKSsRKSt6locale) refers to rwcats.o(i._Z7catopenPKci) for catopen(const char*, int)
    messages.o(i._ZNKSt18__rw_messages_base11_C_cat_openERKSsRKSt6locale) refers to messages.o(i._ZSt13__rw_get_catsv) for std::__rw_get_cats()
    messages.o(i._ZNKSt18__rw_messages_base11_C_cat_openERKSsRKSt6locale) refers to messages.o(t._ZN4__rw18__rw_locale_vectorISt18__rw_open_cat_dataE6resizeEj) for __rw::__rw_locale_vector<std::__rw_open_cat_data>::resize(unsigned)
    messages.o(i._ZNKSt18__rw_messages_base11_C_cat_openERKSsRKSt6locale) refers to char.o(i._ZN4__rw21__rw_use_c_lib_localeD1Ev) for __rw::__rw_use_c_lib_locale::~__rw_use_c_lib_locale()
    messages.o(i._ZNKSt18__rw_messages_base11_C_cat_openERKSsRKSt6locale) refers to locale.o(i._ZNSt6localeaSERKS_) for std::locale::operator =(const std::locale&)
    messages.o(i._ZNKSt18__rw_messages_base11_C_cat_openERKSsRKSt6locale.clean) refers to char.o(i._ZN4__rw21__rw_use_c_lib_localeD1Ev) for __rw::__rw_use_c_lib_locale::~__rw_use_c_lib_locale()
    messages.o(i._ZNKSt18__rw_messages_base11_C_cat_openERKSsRKSt6locale.clean) refers to arm_exceptions_cleanup.o(.emb_text) for __cxa_end_cleanup
    messages.o(i._ZNKSt18__rw_messages_base12_C_cat_closeEi) refers to messages.o(i._ZSt13__rw_get_catsv) for std::__rw_get_cats()
    messages.o(i._ZNKSt18__rw_messages_base12_C_cat_closeEi) refers to rwcats.o(i._Z8catclosePN4__rw8__rw_catE) for catclose(__rw::__rw_cat*)
    messages.o(i._ZNKSt18__rw_messages_base12_C_cat_closeEi) refers to locale.o(i._ZNSt6locale7classicEv) for std::locale::classic()
    messages.o(i._ZNKSt18__rw_messages_base12_C_cat_closeEi) refers to locale.o(i._ZNSt6localeaSERKS_) for std::locale::operator =(const std::locale&)
    messages.o(i._ZNKSt18__rw_messages_base13_C_get_localeEi) refers to messages.o(i._ZSt13__rw_get_catsv) for std::__rw_get_cats()
    messages.o(i._ZNKSt18__rw_messages_base13_C_get_localeEi) refers to locale.o(i._ZNSt6locale7classicEv) for std::locale::classic()
    messages.o(i._ZNKSt18__rw_messages_base14_C_get_messageEiii) refers to messages.o(i._ZSt13__rw_get_catsv) for std::__rw_get_cats()
    messages.o(i._ZNKSt18__rw_messages_base14_C_get_messageEiii) refers to rwcats.o(i._Z7catgetsPN4__rw8__rw_catEiiPKc) for catgets(__rw::__rw_cat*, int, int, const char*)
    messages.o(i._ZNSt18__rw_messages_base18_C_get_locale_nameEPKc) refers to locale.o(i._ZN4__rw21__rw_use_c_lib_localeC1EPKci) for __rw::__rw_use_c_lib_locale::__rw_use_c_lib_locale(const char*, int)
    messages.o(i._ZNSt18__rw_messages_base18_C_get_locale_nameEPKc) refers to locale.o(.text) for setlocale
    messages.o(i._ZNSt18__rw_messages_base18_C_get_locale_nameEPKc) refers to strlen.o(.text) for strlen
    messages.o(i._ZNSt18__rw_messages_base18_C_get_locale_nameEPKc) refers to locale.o(t._ZNSs11_C_allocateEjjj) for std::basic_string<char, std::char_traits<char>, std::allocator<char>>::_C_allocate(unsigned, unsigned, unsigned)
    messages.o(i._ZNSt18__rw_messages_base18_C_get_locale_nameEPKc) refers to char.o(i._ZNSt11char_traitsIcE4copyEPcPKcj) for std::char_traits<char>::copy(char*, const char*, unsigned)
    messages.o(i._ZNSt18__rw_messages_base18_C_get_locale_nameEPKc) refers to char.o(i._ZN4__rw21__rw_use_c_lib_localeD1Ev) for __rw::__rw_use_c_lib_locale::~__rw_use_c_lib_locale()
    messages.o(i._ZNSt18__rw_messages_base18_C_get_locale_nameEPKc) refers to vendor.o(.bss__ZNSs9__nullrefE) for std::basic_string<char, std::char_traits<char>, std::allocator<char>>::__nullref
    messages.o(i._ZNSt18__rw_messages_base18_C_get_locale_nameEPKc.clean) refers to char.o(i._ZN4__rw21__rw_use_c_lib_localeD1Ev) for __rw::__rw_use_c_lib_locale::~__rw_use_c_lib_locale()
    messages.o(i._ZNSt18__rw_messages_base18_C_get_locale_nameEPKc.clean) refers to arm_exceptions_cleanup.o(.emb_text) for __cxa_end_cleanup
    messages.o(.ARM.exidx) refers to messages.o(i._ZNKSt18__rw_messages_base11_C_cat_openERKSsRKSt6locale) for i._ZNKSt18__rw_messages_base11_C_cat_openERKSsRKSt6locale
    messages.o(.ARM.exidx) refers to unwind_pr0.o(.text) for __aeabi_unwind_cpp_pr0
    messages.o(.ARM.exidx) refers to messages.o(.ARM.extab) for .extab._ZNKSt18__rw_messages_base11_C_cat_openERKSsRKSt6locale
    messages.o(.ARM.exidx) refers to messages.o(i._ZNKSt18__rw_messages_base11_C_cat_openERKSsRKSt6locale.clean) for i._ZNKSt18__rw_messages_base11_C_cat_openERKSsRKSt6locale.clean
    messages.o(.ARM.exidx) refers to messages.o(i._ZNKSt18__rw_messages_base14_C_get_messageEiii) for i._ZNKSt18__rw_messages_base14_C_get_messageEiii
    messages.o(.ARM.exidx) refers to unwind_pr0.o(.text) for __aeabi_unwind_cpp_pr0
    messages.o(.ARM.exidx) refers to messages.o(i._ZNKSt18__rw_messages_base13_C_get_localeEi) for i._ZNKSt18__rw_messages_base13_C_get_localeEi
    messages.o(.ARM.exidx) refers to unwind_pr0.o(.text) for __aeabi_unwind_cpp_pr0
    messages.o(.ARM.exidx) refers to messages.o(i._ZNKSt18__rw_messages_base12_C_cat_closeEi) for i._ZNKSt18__rw_messages_base12_C_cat_closeEi
    messages.o(.ARM.exidx) refers to unwind_pr0.o(.text) for __aeabi_unwind_cpp_pr0
    messages.o(.ARM.exidx) refers to messages.o(i._ZNSt18__rw_messages_base18_C_get_locale_nameEPKc) for i._ZNSt18__rw_messages_base18_C_get_locale_nameEPKc
    messages.o(.ARM.exidx) refers to unwind_pr0.o(.text) for __aeabi_unwind_cpp_pr0
    messages.o(.ARM.exidx) refers to messages.o(.ARM.extab) for .extab._ZNSt18__rw_messages_base18_C_get_locale_nameEPKc
    messages.o(.ARM.exidx) refers to messages.o(i._ZNSt18__rw_messages_base18_C_get_locale_nameEPKc.clean) for i._ZNSt18__rw_messages_base18_C_get_locale_nameEPKc.clean
    messages.o(.ARM.extab) refers to messages.o(i._ZNKSt18__rw_messages_base11_C_cat_openERKSsRKSt6locale.clean) for i._ZNKSt18__rw_messages_base11_C_cat_openERKSsRKSt6locale.clean
    messages.o(.ARM.extab) refers to messages.o(i._ZNSt18__rw_messages_base18_C_get_locale_nameEPKc.clean) for i._ZNSt18__rw_messages_base18_C_get_locale_nameEPKc.clean
    rwthrowproc_noex.o(.data) refers to rwthrowproc_impl_noex.o(i._ZN4__rw25__rw_throw_exception_noexEiPc) for __rw::__rw_throw_exception_noex(int, char*)
    bad_alloc_what.o(.ARM.exidx) refers to bad_alloc_what.o(i._ZNKSt9bad_alloc4whatEv) for i._ZNKSt9bad_alloc4whatEv
    exception_ctor.o(i._ZNSt9exceptionC1Ev) refers to exception_dtor.o(.constdata__ZTVSt9exception) for vtable for std::exception
    exception_ctor.o(.ARM.exidx) refers to exception_ctor.o(i._ZNSt9exceptionC1Ev) for i._ZNSt9exceptionC1Ev
    exception_dtor.o(i._ZNSt9exceptionD0Ev) refers to delete.o(i._ZdlPv) for operator delete (void*)
    exception_dtor.o(.ARM.exidx) refers to exception_dtor.o(i._ZNSt9exceptionD1Ev) for i._ZNSt9exceptionD1Ev
    exception_dtor.o(.ARM.exidx) refers to exception_dtor.o(i._ZNSt9exceptionD0Ev) for i._ZNSt9exceptionD0Ev
    type_info_name.o(.ARM.exidx) refers to type_info_name.o(i._ZNKSt9type_info4nameEv) for i._ZNKSt9type_info4nameEv
    aeabi_vec_delete_noexceptions.o(.text) refers to aeabi_vec_dtor_cookie.o(i.__aeabi_vec_dtor_cookie) for __aeabi_vec_dtor_cookie
    aeabi_vec_delete_noexceptions.o(.text) refers to array_del.o(i._ZdaPv) for operator delete[] (void*)
    aeabi_vec_delete_noexceptions.o(.ARM.exidx) refers to aeabi_vec_delete_noexceptions.o(.text) for .text
    arm_exceptions_support.o(.text) refers to arm_exceptions_support.o(.constdata) for .constdata
    arm_exceptions_support.o(.ARM.exidx) refers to arm_exceptions_support.o(.text) for .text
    arm_exceptions_free.o(.text) refers to arm_exceptions_globs.o(.text) for __cxa_get_globals
    arm_exceptions_free.o(.text) refers to arm_exceptions_mem.o(.text) for __ARM_exceptions_buffer_free
    arm_exceptions_free.o(.text) refers to h1_free.o(.text) for free
    arm_exceptions_free.o(.ARM.exidx) refers to arm_exceptions_free.o(.text) for .text
    arm_exceptions_terminate.o(.text) refers to arm_exceptions_globs.o(.text) for __cxa_get_globals
    arm_exceptions_terminate.o(.text) refers to abort.o(.text) for abort
    arm_exceptions_terminate.o(.ARM.exidx) refers to arm_exceptions_terminate.o(.text) for .text
    arm_exceptions_globs.o(.text) refers to abort.o(.text) for abort
    arm_exceptions_globs.o(.text) refers to rt_eh_globals_addr.o(.text) for __rt_eh_globals_addr
    arm_exceptions_globs.o(.text) refers to h1_alloc.o(.text) for malloc
    arm_exceptions_globs.o(.text) refers to arm_exceptions_mem.o(.text) for __ARM_exceptions_buffer_init
    arm_exceptions_globs.o(.ARM.exidx) refers to arm_exceptions_globs.o(.text) for .text
    arm_exceptions_foreign.o(.text) refers to arm_exceptions_support.o(.text) for __ARM::same_exceptions_class(const void*, const void*)
    arm_exceptions_foreign.o(.text) refers to arm_exceptions_alloc.o(.text) for __cxa_allocate_exception
    arm_exceptions_foreign.o(.ARM.exidx) refers to arm_exceptions_foreign.o(.text) for .text
    unwind_prcommon.o(.text) refers to unwinder.o(.text) for _Unwind_VRS_Get
    unwind_prcommon.o(.text) refers (Weak) to arm_exceptions_cleanup.o(.text) for __cxa_begin_cleanup
    unwind_prcommon.o(.text) refers to unwind_activity.o(.emb_text) for _Unwind_Activity
    unwind_prcommon.o(.text) refers (Weak) to arm_callunex_noexceptions.o(.text) for __cxa_call_unexpected
    unwind_prcommon.o(.ARM.exidx) refers to unwind_prcommon.o(.text) for .text
    fcheck1.o(x$fpl$fcheck1) refers (Special) to usenofp.o(x$fpl$usenofp) for __I$use$fp
    fcheck1.o(x$fpl$fcheck1) refers to retnan.o(x$fpl$retnan) for __fpl_return_NaN
    rt_eh_globals_addr.o(.text) refers to rt_eh_globals_addr.o(.bss) for __rt_eh_globals_addr_data
    rt_eh_globals_addr_intlibspace.o(.text) refers to libspace.o(.bss) for __libspace_start
    maybetermalloc2.o(.emb_text) refers (Special) to term_alloc.o(.text) for _terminate_alloc
    h1_extend.o(.text) refers to h1_free.o(.text) for free
    h1_extend_mt.o(.text) refers to h1_free_mt.o(.text) for _free_internal
    _printf_fp_infnan.o(.text) refers (Weak) to _printf_pad.o(.text) for _printf_pre_padding
    _printf_fp_infnan.o(.text) refers (Weak) to _printf_pad.o(.text) for _printf_post_padding
    bigflt0.o(.text) refers (Special) to usenofp.o(x$fpl$usenofp) for __I$use$fp
    bigflt0.o(.text) refers to btod.o(CL$$btod_emul) for _btod_emul
    bigflt0.o(.text) refers to btod.o(CL$$btod_ediv) for _btod_ediv
    bigflt0.o(.text) refers to bigflt0.o(.constdata) for .constdata
    bigflt0.o(.constdata) refers (Special) to usenofp.o(x$fpl$usenofp) for __I$use$fp
    btod.o(CL$$btod_d2e) refers (Special) to usenofp.o(x$fpl$usenofp) for __I$use$fp
    btod.o(CL$$btod_d2e) refers to btod.o(CL$$btod_d2e_norm_op1) for _d2e_norm_op1
    btod.o(CL$$btod_d2e_norm_op1) refers (Special) to usenofp.o(x$fpl$usenofp) for __I$use$fp
    btod.o(CL$$btod_d2e_norm_op1) refers to btod.o(CL$$btod_d2e_denorm_low) for _d2e_denorm_low
    btod.o(CL$$btod_d2e_denorm_low) refers (Special) to usenofp.o(x$fpl$usenofp) for __I$use$fp
    btod.o(CL$$btod_emul) refers (Special) to usenofp.o(x$fpl$usenofp) for __I$use$fp
    btod.o(CL$$btod_emul) refers to btod.o(CL$$btod_mult_common) for __btod_mult_common
    btod.o(CL$$btod_emul) refers to btod.o(CL$$btod_e2e) for _e2e
    btod.o(CL$$btod_ediv) refers (Special) to usenofp.o(x$fpl$usenofp) for __I$use$fp
    btod.o(CL$$btod_ediv) refers to btod.o(CL$$btod_div_common) for __btod_div_common
    btod.o(CL$$btod_ediv) refers to btod.o(CL$$btod_e2e) for _e2e
    btod.o(CL$$btod_emuld) refers (Special) to usenofp.o(x$fpl$usenofp) for __I$use$fp
    btod.o(CL$$btod_emuld) refers to btod.o(CL$$btod_mult_common) for __btod_mult_common
    btod.o(CL$$btod_emuld) refers to btod.o(CL$$btod_e2d) for _e2d
    btod.o(CL$$btod_edivd) refers (Special) to usenofp.o(x$fpl$usenofp) for __I$use$fp
    btod.o(CL$$btod_edivd) refers to btod.o(CL$$btod_div_common) for __btod_div_common
    btod.o(CL$$btod_edivd) refers to btod.o(CL$$btod_e2d) for _e2d
    btod.o(CL$$btod_e2e) refers (Special) to usenofp.o(x$fpl$usenofp) for __I$use$fp
    btod.o(CL$$btod_e2d) refers (Special) to usenofp.o(x$fpl$usenofp) for __I$use$fp
    btod.o(CL$$btod_e2d) refers to btod.o(CL$$btod_e2e) for _e2e
    btod.o(CL$$btod_mult_common) refers (Special) to usenofp.o(x$fpl$usenofp) for __I$use$fp
    btod.o(CL$$btod_div_common) refers (Special) to usenofp.o(x$fpl$usenofp) for __I$use$fp
    locale.o(.text) refers to locale_r.o(.text) for _setlocale_r
    locale.o(.text) refers to locale.o(.bss) for .bss
    localeconv.o(.text) refers to _lconv.o(.text) for _get_lconv
    localeconv.o(.text) refers to localeconv.o(.bss) for .bss
    mbrtowc.o(.text) refers to _mbrtowc.o(.text) for _mbrtowc
    mbrtowc.o(.text) refers to rt_errno_addr.o(.text) for __aeabi_errno_addr
    wcrtomb.o(.text) refers to _wcrtomb.o(.text) for _wcrtomb
    wcrtomb.o(.text) refers to rt_memcpy_v6.o(.text) for __aeabi_memcpy
    wcrtomb.o(.text) refers to rt_errno_addr.o(.text) for __aeabi_errno_addr
    _mbcurmax.o(.text) refers to rt_ctype_table.o(.text) for __rt_ctype_table
    lc_numeric_c.o(locale$$data) refers (Special) to libinit2.o(.ARM.Collect$$libinit$$00000016) for __rt_lib_init_lc_numeric_2
    lc_numeric_c.o(locale$$code) refers (Special) to libinit2.o(.ARM.Collect$$libinit$$00000016) for __rt_lib_init_lc_numeric_2
    lc_numeric_c.o(locale$$code) refers to strcmpv7m.o(.text) for strcmp
    lc_numeric_c.o(locale$$code) refers to lc_numeric_c.o(locale$$data) for __lcnum_c_name
    __raise.o(.text) refers to defsig.o(CL$$defsig) for __default_signal_handler
    defsig_general.o(.text) refers to sys_wrch.o(.text) for _ttywrch
    defsig_abrt_inner.o(.text) refers to defsig_general.o(.text) for __default_signal_display
    defsig_fpe_outer.o(.text) refers to defsig_fpe_inner.o(.text) for __rt_SIGFPE_inner
    defsig_fpe_outer.o(.text) refers to defsig_exit.o(.text) for __sig_exit
    defsig_fpe_formal.o(.text) refers to rt_raise.o(.text) for __rt_raise
    defsig_rtred_inner.o(.text) refers to defsig_general.o(.text) for __default_signal_display
    defsig_rtmem_outer.o(.text) refers to defsig_rtmem_inner.o(.text) for __rt_SIGRTMEM_inner
    defsig_rtmem_outer.o(.text) refers to defsig_exit.o(.text) for __sig_exit
    defsig_rtmem_formal.o(.text) refers to rt_raise.o(.text) for __rt_raise
    strcoll.o(.text) refers (Special) to lc_collate_c.o(locale$$code) for _get_lc_collate
    strcoll.o(.text) refers to rt_locale.o(.text) for __rt_locale
    strcoll.o(.text) refers to strcmpv7m.o(.text) for strcmp
    strxfrm.o(.text) refers (Special) to lc_collate_c.o(locale$$code) for _get_lc_collate
    strxfrm.o(.text) refers to strlen.o(.text) for strlen
    strxfrm.o(.text) refers to rt_locale.o(.text) for __rt_locale
    memcpy.o(.text) refers to rt_memcpy_v6.o(.text) for __aeabi_memcpy
    heapauxa.o(.text) refers to heapauxa.o(.data) for .data
    _get_argv_nomalloc.o(.text) refers (Special) to hrguard.o(.text) for __heap_region$guard
    _get_argv_nomalloc.o(.text) refers to defsig_rtmem_outer.o(.text) for __rt_SIGRTMEM
    _get_argv_nomalloc.o(.text) refers to stdio.cpp.lpc1768.arm.o(i._sys_command_string) for _sys_command_string
    libinit.o(.ARM.Collect$$libinit$$00000000) refers (Special) to libinit2.o(.ARM.Collect$$libinit$$0000002E) for __rt_lib_init_alloca_1
    libinit.o(.ARM.Collect$$libinit$$00000000) refers (Special) to libinit2.o(.ARM.Collect$$libinit$$0000002C) for __rt_lib_init_argv_1
    libinit.o(.ARM.Collect$$libinit$$00000000) refers (Special) to libinit2.o(.ARM.Collect$$libinit$$0000001B) for __rt_lib_init_atexit_1
    libinit.o(.ARM.Collect$$libinit$$00000000) refers (Special) to libinit2.o(.ARM.Collect$$libinit$$00000021) for __rt_lib_init_clock_1
    libinit.o(.ARM.Collect$$libinit$$00000000) refers (Special) to libinit2.o(.ARM.Collect$$libinit$$00000032) for __rt_lib_init_cpp_1
    libinit.o(.ARM.Collect$$libinit$$00000000) refers (Special) to libinit2.o(.ARM.Collect$$libinit$$00000030) for __rt_lib_init_exceptions_1
    libinit.o(.ARM.Collect$$libinit$$00000000) refers (Special) to libinit2.o(.ARM.Collect$$libinit$$00000002) for __rt_lib_init_fp_1
    libinit.o(.ARM.Collect$$libinit$$00000000) refers (Special) to libinit2.o(.ARM.Collect$$libinit$$0000001F) for __rt_lib_init_fp_trap_1
    libinit.o(.ARM.Collect$$libinit$$00000000) refers (Special) to libinit2.o(.ARM.Collect$$libinit$$00000023) for __rt_lib_init_getenv_1
    libinit.o(.ARM.Collect$$libinit$$00000000) refers (Special) to libinit2.o(.ARM.Collect$$libinit$$0000000A) for __rt_lib_init_heap_1
    libinit.o(.ARM.Collect$$libinit$$00000000) refers (Special) to libinit2.o(.ARM.Collect$$libinit$$00000011) for __rt_lib_init_lc_collate_1
    libinit.o(.ARM.Collect$$libinit$$00000000) refers (Special) to libinit2.o(.ARM.Collect$$libinit$$00000013) for __rt_lib_init_lc_ctype_1
    libinit.o(.ARM.Collect$$libinit$$00000000) refers (Special) to libinit2.o(.ARM.Collect$$libinit$$00000015) for __rt_lib_init_lc_monetary_1
    libinit.o(.ARM.Collect$$libinit$$00000000) refers (Special) to libinit2.o(.ARM.Collect$$libinit$$00000017) for __rt_lib_init_lc_numeric_1
    libinit.o(.ARM.Collect$$libinit$$00000000) refers (Special) to libinit2.o(.ARM.Collect$$libinit$$00000019) for __rt_lib_init_lc_time_1
    libinit.o(.ARM.Collect$$libinit$$00000000) refers (Special) to libinit2.o(.ARM.Collect$$libinit$$00000004) for __rt_lib_init_preinit_1
    libinit.o(.ARM.Collect$$libinit$$00000000) refers (Special) to libinit2.o(.ARM.Collect$$libinit$$0000000E) for __rt_lib_init_rand_1
    libinit.o(.ARM.Collect$$libinit$$00000000) refers (Special) to libinit2.o(.ARM.Collect$$libinit$$00000033) for __rt_lib_init_return
    libinit.o(.ARM.Collect$$libinit$$00000000) refers (Special) to libinit2.o(.ARM.Collect$$libinit$$0000001D) for __rt_lib_init_signal_1
    libinit.o(.ARM.Collect$$libinit$$00000000) refers (Special) to libinit2.o(.ARM.Collect$$libinit$$00000025) for __rt_lib_init_stdio_1
    libinit.o(.ARM.Collect$$libinit$$00000000) refers (Special) to libinit2.o(.ARM.Collect$$libinit$$0000000C) for __rt_lib_init_user_alloc_1
    rwcats.o(i._Z7catgetsPN4__rw8__rw_catEiiPKc) refers to rwcats.o(i._ZN4__rw9__catfindEPNS_8__rw_catE) for __rw::__catfind(__rw::__rw_cat*)
    rwcats.o(i._Z7catgetsPN4__rw8__rw_catEiiPKc) refers to rwcats.o(.data) for .data
    rwcats.o(i._Z7catopenPKci) refers to new.o(i._Znwj) for operator new(unsigned)
    rwcats.o(i._Z7catopenPKci) refers to delete.o(i._ZdlPv) for operator delete (void*)
    rwcats.o(i._Z7catopenPKci.clean) refers to arm_exceptions_cleanup.o(.emb_text) for __cxa_end_cleanup
    rwcats.o(i._Z8catclosePN4__rw8__rw_catE) refers to rwcats.o(i._ZN4__rw9__catfindEPNS_8__rw_catE) for __rw::__catfind(__rw::__rw_cat*)
    rwcats.o(i._Z8catclosePN4__rw8__rw_catE) refers to delete.o(i._ZdlPv) for operator delete (void*)
    rwcats.o(i._Z8catclosePN4__rw8__rw_catE) refers to rwcats.o(.data) for .data
    rwcats.o(i._ZN4__rw9__catfindEPNS_8__rw_catE) refers to rwcats.o(.data) for .data
    rwcats.o(i.__sti___10_rwcats_cpp_64e8068e) refers to array_new.o(i._Znaj) for operator new[] (unsigned)
    rwcats.o(i.__sti___10_rwcats_cpp_64e8068e) refers to aeabi_atexit.o(.text) for __aeabi_atexit
    rwcats.o(i.__sti___10_rwcats_cpp_64e8068e) refers to rwcats.o(.data) for .data
    rwcats.o(i.__sti___10_rwcats_cpp_64e8068e) refers to rwcats.o(t._ZN4__rw18__rw_locale_vectorIPNS_8__rw_catEED1Ev) for __rw::__rw_locale_vector<__rw::__rw_cat*>::~__rw_locale_vector()
    rwcats.o(.ARM.exidx) refers to rwcats.o(i._Z7catopenPKci) for i._Z7catopenPKci
    rwcats.o(.ARM.exidx) refers to unwind_pr0.o(.text) for __aeabi_unwind_cpp_pr0
    rwcats.o(.ARM.exidx) refers to rwcats.o(.ARM.extab) for .extab._Z7catopenPKci
    rwcats.o(.ARM.exidx) refers to rwcats.o(i._Z7catopenPKci.clean) for i._Z7catopenPKci.clean
    rwcats.o(.ARM.exidx) refers to rwcats.o(i._ZN4__rw9__catfindEPNS_8__rw_catE) for i._ZN4__rw9__catfindEPNS_8__rw_catE
    rwcats.o(.ARM.exidx) refers to rwcats.o(i._Z7catgetsPN4__rw8__rw_catEiiPKc) for i._Z7catgetsPN4__rw8__rw_catEiiPKc
    rwcats.o(.ARM.exidx) refers to unwind_pr0.o(.text) for __aeabi_unwind_cpp_pr0
    rwcats.o(.ARM.exidx) refers to rwcats.o(.ARM.extab) for .extab._Z7catgetsPN4__rw8__rw_catEiiPKc
    rwcats.o(.ARM.exidx) refers to rwcats.o(i._Z8catclosePN4__rw8__rw_catE) for i._Z8catclosePN4__rw8__rw_catE
    rwcats.o(.ARM.exidx) refers to unwind_pr0.o(.text) for __aeabi_unwind_cpp_pr0
    rwcats.o(.ARM.exidx) refers to rwcats.o(i.__sti___10_rwcats_cpp_64e8068e) for i.__sti___10_rwcats_cpp_64e8068e
    rwcats.o(.ARM.exidx) refers to unwind_pr0.o(.text) for __aeabi_unwind_cpp_pr0
    rwcats.o(.ARM.extab) refers to rwcats.o(i._Z7catopenPKci) for i._Z7catopenPKci
    rwcats.o(.ARM.extab) refers to rwcats.o(i._Z7catgetsPN4__rw8__rw_catEiiPKc) for i._Z7catgetsPN4__rw8__rw_catEiiPKc
    rwcats.o(.init_array) refers to rwcats.o(i.__sti___10_rwcats_cpp_64e8068e) for __sti___10_rwcats_cpp_64e8068e
    rwcats.o(.init_array) refers to init_aeabi.o(.text) for __cpp_initialize__aeabi_
    rwthrowproc_impl_noex.o(i._ZN4__rw25__rw_throw_exception_noexEiPc) refers to fprintf.o(.text) for fprintf
    rwthrowproc_impl_noex.o(i._ZN4__rw25__rw_throw_exception_noexEiPc) refers to array_del.o(i._ZdaPv) for operator delete[] (void*)
    rwthrowproc_impl_noex.o(i._ZN4__rw25__rw_throw_exception_noexEiPc) refers to abort.o(.text) for abort
    rwthrowproc_impl_noex.o(i._ZN4__rw25__rw_throw_exception_noexEiPc) refers to stdio_streams.o(.bss) for __stderr
    rwthrowproc_impl_noex.o(.ARM.exidx) refers to rwthrowproc_impl_noex.o(i._ZN4__rw25__rw_throw_exception_noexEiPc) for i._ZN4__rw25__rw_throw_exception_noexEiPc
    vendor.o(i._ZN4__rw15__rw_locale_imp13_C_parse_nameERNS_18__rw_locale_vectorISsEEPKc) refers to locale.o(.text) for setlocale
    vendor.o(i._ZN4__rw15__rw_locale_imp13_C_parse_nameERNS_18__rw_locale_vectorISsEEPKc) refers to strlen.o(.text) for strlen
    vendor.o(i._ZN4__rw15__rw_locale_imp13_C_parse_nameERNS_18__rw_locale_vectorISsEEPKc) refers to locale.o(t._ZNSs11_C_allocateEjjj) for std::basic_string<char, std::char_traits<char>, std::allocator<char>>::_C_allocate(unsigned, unsigned, unsigned)
    vendor.o(i._ZN4__rw15__rw_locale_imp13_C_parse_nameERNS_18__rw_locale_vectorISsEEPKc) refers to char.o(i._ZNSt11char_traitsIcE4copyEPcPKcj) for std::char_traits<char>::copy(char*, const char*, unsigned)
    vendor.o(i._ZN4__rw15__rw_locale_imp13_C_parse_nameERNS_18__rw_locale_vectorISsEEPKc) refers to locale.o(t._ZNSsaSEPKc) for std::basic_string<char, std::char_traits<char>, std::allocator<char>>::operator =(const char*)
    vendor.o(i._ZN4__rw15__rw_locale_imp13_C_parse_nameERNS_18__rw_locale_vectorISsEEPKc) refers to char.o(t._ZNSsD1Ev) for std::basic_string<char, std::char_traits<char>, std::allocator<char>>::~basic_string()
    vendor.o(i._ZN4__rw15__rw_locale_imp13_C_parse_nameERNS_18__rw_locale_vectorISsEEPKc) refers to vendor.o(.bss__ZNSs9__nullrefE) for std::basic_string<char, std::char_traits<char>, std::allocator<char>>::__nullref
    vendor.o(i._ZN4__rw15__rw_locale_imp13_C_parse_nameERNS_18__rw_locale_vectorISsEEPKc.clean) refers to char.o(t._ZNSsD1Ev) for std::basic_string<char, std::char_traits<char>, std::allocator<char>>::~basic_string()
    vendor.o(i._ZN4__rw15__rw_locale_imp13_C_parse_nameERNS_18__rw_locale_vectorISsEEPKc.clean) refers to arm_exceptions_cleanup.o(.emb_text) for __cxa_end_cleanup
    vendor.o(i._ZN4__rw22__rw_digit_reader_base10_C_reallocERPcS1_Rj) refers to array_new.o(i._Znaj) for operator new[] (unsigned)
    vendor.o(i._ZN4__rw22__rw_digit_reader_base10_C_reallocERPcS1_Rj) refers to array_del.o(i._ZdaPv) for operator delete[] (void*)
    vendor.o(i._ZN4__rw22__rw_digit_reader_base10_C_reallocERPcS1_Rj) refers to arm_rethrow_noexceptions.o(.text) for __cxa_rethrow
    vendor.o(i._ZN4__rw22__rw_digit_reader_base10_C_reallocERPcS1_Rj.clean) refers to arm_exceptions_cleanup.o(.emb_text) for __cxa_end_cleanup
    vendor.o(i._ZN4__rw22__rw_digit_reader_base14_C_parse_floatEPKcS2_Pv) refers to vendor.o(i._ZN4__rw22__rw_digit_reader_base10_C_reallocERPcS1_Rj) for __rw::__rw_digit_reader_base::_C_realloc(char*&, char*, unsigned&)
    vendor.o(i._ZN4__rw22__rw_digit_reader_base14_C_parse_floatEPKcS2_Pv) refers to locale.o(i._ZN4__rw21__rw_use_c_lib_localeC1EPKci) for __rw::__rw_use_c_lib_locale::__rw_use_c_lib_locale(const char*, int)
    vendor.o(i._ZN4__rw22__rw_digit_reader_base14_C_parse_floatEPKcS2_Pv) refers to char.o(i._ZN4__rw21__rw_use_c_lib_localeD1Ev) for __rw::__rw_use_c_lib_locale::~__rw_use_c_lib_locale()
    vendor.o(i._ZN4__rw22__rw_digit_reader_base14_C_parse_floatEPKcS2_Pv) refers to sscanf.o(.text) for sscanf
    vendor.o(i._ZN4__rw22__rw_digit_reader_base14_C_parse_floatEPKcS2_Pv) refers to array_del.o(i._ZdaPv) for operator delete[] (void*)
    vendor.o(i._ZN4__rw22__rw_digit_reader_base14_C_parse_floatEPKcS2_Pv) refers to locale.o(.constdata) for __rw::__rw_digit_map_base::_C_digit_chars
    vendor.o(i._ZN4__rw22__rw_digit_reader_base8_C_parseEPKcPv) refers to vendor.o(i._ZN4__rw22__rw_digit_reader_base10_C_reallocERPcS1_Rj) for __rw::__rw_digit_reader_base::_C_realloc(char*&, char*, unsigned&)
    vendor.o(i._ZN4__rw22__rw_digit_reader_base8_C_parseEPKcPv) refers to sscanf.o(.text) for sscanf
    vendor.o(i._ZN4__rw22__rw_digit_reader_base8_C_parseEPKcPv) refers to array_del.o(i._ZdaPv) for operator delete[] (void*)
    vendor.o(i._ZN4__rw22__rw_digit_reader_base8_C_parseEPKcPv) refers to locale.o(.constdata) for __rw::__rw_digit_map_base::_C_digit_chars
    vendor.o(i._ZN4__rw22__rw_digit_reader_base8_C_parseEPKcm) refers to vendor.o(i._ZN4__rw22__rw_digit_reader_base16_C_parse_decimalEPKcS2_) for __rw::__rw_digit_reader_base::_C_parse_decimal(const char*, const char*)
    vendor.o(i._ZN4__rw22__rw_digit_reader_base8_C_parseEPKcy) refers to vendor.o(i._ZN4__rw22__rw_digit_reader_base10_C_reallocERPcS1_Rj) for __rw::__rw_digit_reader_base::_C_realloc(char*&, char*, unsigned&)
    vendor.o(i._ZN4__rw22__rw_digit_reader_base8_C_parseEPKcy) refers to strtoull.o(.text) for strtoull
    vendor.o(i._ZN4__rw22__rw_digit_reader_base8_C_parseEPKcy) refers to array_del.o(i._ZdaPv) for operator delete[] (void*)
    vendor.o(i._ZN4__rw22__rw_digit_writer_base11_C_digitizeEPKv) refers to sprintf.o(.text) for sprintf
    vendor.o(i._ZN4__rw22__rw_digit_writer_base11_C_digitizeEPKv) refers to rt_memmove_v6.o(.text) for __aeabi_memmove
    vendor.o(i._ZN4__rw22__rw_digit_writer_base11_C_digitizeEd) refers to _printf_pad.o(.text) for _printf_pre_padding
    vendor.o(i._ZN4__rw22__rw_digit_writer_base11_C_digitizeEd) refers to _printf_truncate.o(.text) for _printf_truncate_unsigned
    vendor.o(i._ZN4__rw22__rw_digit_writer_base11_C_digitizeEd) refers to _printf_percent.o(.ARM.Collect$$_printf_percent$$00000000) for _printf_percent
    vendor.o(i._ZN4__rw22__rw_digit_writer_base11_C_digitizeEd) refers to _printf_d.o(.ARM.Collect$$_printf_percent$$00000009) for _printf_d
    vendor.o(i._ZN4__rw22__rw_digit_writer_base11_C_digitizeEd) refers to _printf_i.o(.ARM.Collect$$_printf_percent$$00000008) for _printf_i
    vendor.o(i._ZN4__rw22__rw_digit_writer_base11_C_digitizeEd) refers to _printf_u.o(.ARM.Collect$$_printf_percent$$0000000A) for _printf_u
    vendor.o(i._ZN4__rw22__rw_digit_writer_base11_C_digitizeEd) refers to _printf_o.o(.ARM.Collect$$_printf_percent$$0000000B) for _printf_o
    vendor.o(i._ZN4__rw22__rw_digit_writer_base11_C_digitizeEd) refers to _printf_x.o(.ARM.Collect$$_printf_percent$$0000000C) for _printf_x
    vendor.o(i._ZN4__rw22__rw_digit_writer_base11_C_digitizeEd) refers to _printf_f.o(.ARM.Collect$$_printf_percent$$00000003) for _printf_f
    vendor.o(i._ZN4__rw22__rw_digit_writer_base11_C_digitizeEd) refers to _printf_e.o(.ARM.Collect$$_printf_percent$$00000004) for _printf_e
    vendor.o(i._ZN4__rw22__rw_digit_writer_base11_C_digitizeEd) refers to _printf_g.o(.ARM.Collect$$_printf_percent$$00000005) for _printf_g
    vendor.o(i._ZN4__rw22__rw_digit_writer_base11_C_digitizeEd) refers to _printf_c.o(.ARM.Collect$$_printf_percent$$00000013) for _printf_c
    vendor.o(i._ZN4__rw22__rw_digit_writer_base11_C_digitizeEd) refers to _printf_lc.o(.ARM.Collect$$_printf_percent$$00000015) for _printf_lc
    vendor.o(i._ZN4__rw22__rw_digit_writer_base11_C_digitizeEd) refers to _printf_a.o(.ARM.Collect$$_printf_percent$$00000006) for _printf_a
    vendor.o(i._ZN4__rw22__rw_digit_writer_base11_C_digitizeEd) refers to printf2.o(x$fpl$printf2) for _printf_fp_hex
    vendor.o(i._ZN4__rw22__rw_digit_writer_base11_C_digitizeEd) refers to _printf_dec.o(.text) for _printf_int_dec
    vendor.o(i._ZN4__rw22__rw_digit_writer_base11_C_digitizeEd) refers to _printf_oct_int_ll.o(.text) for _printf_longlong_oct
    vendor.o(i._ZN4__rw22__rw_digit_writer_base11_C_digitizeEd) refers to _printf_hex_int_ll_ptr.o(.text) for _printf_longlong_hex
    vendor.o(i._ZN4__rw22__rw_digit_writer_base11_C_digitizeEd) refers to printf1.o(x$fpl$printf1) for _printf_fp_dec
    vendor.o(i._ZN4__rw22__rw_digit_writer_base11_C_digitizeEd) refers to _printf_str.o(.text) for _printf_str
    vendor.o(i._ZN4__rw22__rw_digit_writer_base11_C_digitizeEd) refers to _printf_wctomb.o(.text) for _printf_wctomb
    vendor.o(i._ZN4__rw22__rw_digit_writer_base11_C_digitizeEd) refers to vendor.o(i._ZN4__rw22__rw_digit_writer_base16_C_get_f_patternEPcc) for __rw::__rw_digit_writer_base::_C_get_f_pattern(char*, char)
    vendor.o(i._ZN4__rw22__rw_digit_writer_base11_C_digitizeEd) refers to deqf.o(x$fpl$deqf) for __aeabi_cdcmpeq
    vendor.o(i._ZN4__rw22__rw_digit_writer_base11_C_digitizeEd) refers to dleqf.o(x$fpl$dleqf) for __aeabi_cdcmple
    vendor.o(i._ZN4__rw22__rw_digit_writer_base11_C_digitizeEd) refers to array_new.o(i._Znaj) for operator new[] (unsigned)
    vendor.o(i._ZN4__rw22__rw_digit_writer_base11_C_digitizeEd) refers to __2sprintf.o(.text) for __2sprintf
    vendor.o(i._ZN4__rw22__rw_digit_writer_base11_C_digitizeEe) refers to _printf_pad.o(.text) for _printf_pre_padding
    vendor.o(i._ZN4__rw22__rw_digit_writer_base11_C_digitizeEe) refers to _printf_truncate.o(.text) for _printf_truncate_unsigned
    vendor.o(i._ZN4__rw22__rw_digit_writer_base11_C_digitizeEe) refers to _printf_percent.o(.ARM.Collect$$_printf_percent$$00000000) for _printf_percent
    vendor.o(i._ZN4__rw22__rw_digit_writer_base11_C_digitizeEe) refers to _printf_d.o(.ARM.Collect$$_printf_percent$$00000009) for _printf_d
    vendor.o(i._ZN4__rw22__rw_digit_writer_base11_C_digitizeEe) refers to _printf_i.o(.ARM.Collect$$_printf_percent$$00000008) for _printf_i
    vendor.o(i._ZN4__rw22__rw_digit_writer_base11_C_digitizeEe) refers to _printf_u.o(.ARM.Collect$$_printf_percent$$0000000A) for _printf_u
    vendor.o(i._ZN4__rw22__rw_digit_writer_base11_C_digitizeEe) refers to _printf_o.o(.ARM.Collect$$_printf_percent$$0000000B) for _printf_o
    vendor.o(i._ZN4__rw22__rw_digit_writer_base11_C_digitizeEe) refers to _printf_x.o(.ARM.Collect$$_printf_percent$$0000000C) for _printf_x
    vendor.o(i._ZN4__rw22__rw_digit_writer_base11_C_digitizeEe) refers to _printf_f.o(.ARM.Collect$$_printf_percent$$00000003) for _printf_f
    vendor.o(i._ZN4__rw22__rw_digit_writer_base11_C_digitizeEe) refers to _printf_e.o(.ARM.Collect$$_printf_percent$$00000004) for _printf_e
    vendor.o(i._ZN4__rw22__rw_digit_writer_base11_C_digitizeEe) refers to _printf_g.o(.ARM.Collect$$_printf_percent$$00000005) for _printf_g
    vendor.o(i._ZN4__rw22__rw_digit_writer_base11_C_digitizeEe) refers to _printf_c.o(.ARM.Collect$$_printf_percent$$00000013) for _printf_c
    vendor.o(i._ZN4__rw22__rw_digit_writer_base11_C_digitizeEe) refers to _printf_lc.o(.ARM.Collect$$_printf_percent$$00000015) for _printf_lc
    vendor.o(i._ZN4__rw22__rw_digit_writer_base11_C_digitizeEe) refers to _printf_a.o(.ARM.Collect$$_printf_percent$$00000006) for _printf_a
    vendor.o(i._ZN4__rw22__rw_digit_writer_base11_C_digitizeEe) refers to printf2.o(x$fpl$printf2) for _printf_fp_hex
    vendor.o(i._ZN4__rw22__rw_digit_writer_base11_C_digitizeEe) refers to _printf_dec.o(.text) for _printf_int_dec
    vendor.o(i._ZN4__rw22__rw_digit_writer_base11_C_digitizeEe) refers to _printf_oct_int_ll.o(.text) for _printf_longlong_oct
    vendor.o(i._ZN4__rw22__rw_digit_writer_base11_C_digitizeEe) refers to _printf_hex_int_ll_ptr.o(.text) for _printf_longlong_hex
    vendor.o(i._ZN4__rw22__rw_digit_writer_base11_C_digitizeEe) refers to printf1.o(x$fpl$printf1) for _printf_fp_dec
    vendor.o(i._ZN4__rw22__rw_digit_writer_base11_C_digitizeEe) refers to _printf_str.o(.text) for _printf_str
    vendor.o(i._ZN4__rw22__rw_digit_writer_base11_C_digitizeEe) refers to _printf_wctomb.o(.text) for _printf_wctomb
    vendor.o(i._ZN4__rw22__rw_digit_writer_base11_C_digitizeEe) refers to vendor.o(i._ZN4__rw22__rw_digit_writer_base16_C_get_f_patternEPcc) for __rw::__rw_digit_writer_base::_C_get_f_pattern(char*, char)
    vendor.o(i._ZN4__rw22__rw_digit_writer_base11_C_digitizeEe) refers to deqf.o(x$fpl$deqf) for __aeabi_cdcmpeq
    vendor.o(i._ZN4__rw22__rw_digit_writer_base11_C_digitizeEe) refers to dleqf.o(x$fpl$dleqf) for __aeabi_cdcmple
    vendor.o(i._ZN4__rw22__rw_digit_writer_base11_C_digitizeEe) refers to array_new.o(i._Znaj) for operator new[] (unsigned)
    vendor.o(i._ZN4__rw22__rw_digit_writer_base11_C_digitizeEe) refers to __2sprintf.o(.text) for __2sprintf
    vendor.o(i._ZN4__rw22__rw_digit_writer_base11_C_digitizeEmbPKc) refers to _printf_pad.o(.text) for _printf_pre_padding
    vendor.o(i._ZN4__rw22__rw_digit_writer_base11_C_digitizeEmbPKc) refers to _printf_truncate.o(.text) for _printf_truncate_unsigned
    vendor.o(i._ZN4__rw22__rw_digit_writer_base11_C_digitizeEmbPKc) refers to _printf_percent.o(.ARM.Collect$$_printf_percent$$00000000) for _printf_percent
    vendor.o(i._ZN4__rw22__rw_digit_writer_base11_C_digitizeEmbPKc) refers to _printf_d.o(.ARM.Collect$$_printf_percent$$00000009) for _printf_d
    vendor.o(i._ZN4__rw22__rw_digit_writer_base11_C_digitizeEmbPKc) refers to _printf_i.o(.ARM.Collect$$_printf_percent$$00000008) for _printf_i
    vendor.o(i._ZN4__rw22__rw_digit_writer_base11_C_digitizeEmbPKc) refers to _printf_u.o(.ARM.Collect$$_printf_percent$$0000000A) for _printf_u
    vendor.o(i._ZN4__rw22__rw_digit_writer_base11_C_digitizeEmbPKc) refers to _printf_o.o(.ARM.Collect$$_printf_percent$$0000000B) for _printf_o
    vendor.o(i._ZN4__rw22__rw_digit_writer_base11_C_digitizeEmbPKc) refers to _printf_x.o(.ARM.Collect$$_printf_percent$$0000000C) for _printf_x
    vendor.o(i._ZN4__rw22__rw_digit_writer_base11_C_digitizeEmbPKc) refers to _printf_c.o(.ARM.Collect$$_printf_percent$$00000013) for _printf_c
    vendor.o(i._ZN4__rw22__rw_digit_writer_base11_C_digitizeEmbPKc) refers to _printf_lc.o(.ARM.Collect$$_printf_percent$$00000015) for _printf_lc
    vendor.o(i._ZN4__rw22__rw_digit_writer_base11_C_digitizeEmbPKc) refers to _printf_dec.o(.text) for _printf_int_dec
    vendor.o(i._ZN4__rw22__rw_digit_writer_base11_C_digitizeEmbPKc) refers to _printf_oct_int_ll.o(.text) for _printf_longlong_oct
    vendor.o(i._ZN4__rw22__rw_digit_writer_base11_C_digitizeEmbPKc) refers to _printf_hex_int_ll_ptr.o(.text) for _printf_longlong_hex
    vendor.o(i._ZN4__rw22__rw_digit_writer_base11_C_digitizeEmbPKc) refers to _printf_str.o(.text) for _printf_str
    vendor.o(i._ZN4__rw22__rw_digit_writer_base11_C_digitizeEmbPKc) refers to _printf_wctomb.o(.text) for _printf_wctomb
    vendor.o(i._ZN4__rw22__rw_digit_writer_base11_C_digitizeEmbPKc) refers to vendor.o(i._ZN4__rw22__rw_digit_writer_base14_C_get_patternEPcPKcb) for __rw::__rw_digit_writer_base::_C_get_pattern(char*, const char*, bool)
    vendor.o(i._ZN4__rw22__rw_digit_writer_base11_C_digitizeEmbPKc) refers to __2sprintf.o(.text) for __2sprintf
    vendor.o(i._ZN4__rw22__rw_digit_writer_base11_C_digitizeEmbPKc) refers to vendor.o(i._ZN4__rw22__rw_digit_writer_base12_C_to_binaryEm) for __rw::__rw_digit_writer_base::_C_to_binary(unsigned long)
    vendor.o(i._ZN4__rw22__rw_digit_writer_base11_C_digitizeEyb) refers to _printf_pad.o(.text) for _printf_pre_padding
    vendor.o(i._ZN4__rw22__rw_digit_writer_base11_C_digitizeEyb) refers to _printf_truncate.o(.text) for _printf_truncate_unsigned
    vendor.o(i._ZN4__rw22__rw_digit_writer_base11_C_digitizeEyb) refers to _printf_percent.o(.ARM.Collect$$_printf_percent$$00000000) for _printf_percent
    vendor.o(i._ZN4__rw22__rw_digit_writer_base11_C_digitizeEyb) refers to _printf_d.o(.ARM.Collect$$_printf_percent$$00000009) for _printf_d
    vendor.o(i._ZN4__rw22__rw_digit_writer_base11_C_digitizeEyb) refers to _printf_i.o(.ARM.Collect$$_printf_percent$$00000008) for _printf_i
    vendor.o(i._ZN4__rw22__rw_digit_writer_base11_C_digitizeEyb) refers to _printf_u.o(.ARM.Collect$$_printf_percent$$0000000A) for _printf_u
    vendor.o(i._ZN4__rw22__rw_digit_writer_base11_C_digitizeEyb) refers to _printf_lld.o(.ARM.Collect$$_printf_percent$$0000000E) for _printf_lld
    vendor.o(i._ZN4__rw22__rw_digit_writer_base11_C_digitizeEyb) refers to _printf_lli.o(.ARM.Collect$$_printf_percent$$0000000D) for _printf_lli
    vendor.o(i._ZN4__rw22__rw_digit_writer_base11_C_digitizeEyb) refers to _printf_llu.o(.ARM.Collect$$_printf_percent$$0000000F) for _printf_llu
    vendor.o(i._ZN4__rw22__rw_digit_writer_base11_C_digitizeEyb) refers to _printf_o.o(.ARM.Collect$$_printf_percent$$0000000B) for _printf_o
    vendor.o(i._ZN4__rw22__rw_digit_writer_base11_C_digitizeEyb) refers to _printf_llo.o(.ARM.Collect$$_printf_percent$$00000010) for _printf_llo
    vendor.o(i._ZN4__rw22__rw_digit_writer_base11_C_digitizeEyb) refers to _printf_x.o(.ARM.Collect$$_printf_percent$$0000000C) for _printf_x
    vendor.o(i._ZN4__rw22__rw_digit_writer_base11_C_digitizeEyb) refers to _printf_llx.o(.ARM.Collect$$_printf_percent$$00000011) for _printf_llx
    vendor.o(i._ZN4__rw22__rw_digit_writer_base11_C_digitizeEyb) refers to _printf_c.o(.ARM.Collect$$_printf_percent$$00000013) for _printf_c
    vendor.o(i._ZN4__rw22__rw_digit_writer_base11_C_digitizeEyb) refers to _printf_lc.o(.ARM.Collect$$_printf_percent$$00000015) for _printf_lc
    vendor.o(i._ZN4__rw22__rw_digit_writer_base11_C_digitizeEyb) refers to _printf_dec.o(.text) for _printf_int_dec
    vendor.o(i._ZN4__rw22__rw_digit_writer_base11_C_digitizeEyb) refers to _printf_longlong_dec.o(.text) for _printf_longlong_dec
    vendor.o(i._ZN4__rw22__rw_digit_writer_base11_C_digitizeEyb) refers to _printf_oct_int_ll.o(.text) for _printf_longlong_oct
    vendor.o(i._ZN4__rw22__rw_digit_writer_base11_C_digitizeEyb) refers to _printf_hex_int_ll_ptr.o(.text) for _printf_longlong_hex
    vendor.o(i._ZN4__rw22__rw_digit_writer_base11_C_digitizeEyb) refers to _printf_str.o(.text) for _printf_str
    vendor.o(i._ZN4__rw22__rw_digit_writer_base11_C_digitizeEyb) refers to _printf_wctomb.o(.text) for _printf_wctomb
    vendor.o(i._ZN4__rw22__rw_digit_writer_base11_C_digitizeEyb) refers to vendor.o(i._ZN4__rw22__rw_digit_writer_base14_C_get_patternEPcPKcb) for __rw::__rw_digit_writer_base::_C_get_pattern(char*, const char*, bool)
    vendor.o(i._ZN4__rw22__rw_digit_writer_base11_C_digitizeEyb) refers to __2sprintf.o(.text) for __2sprintf
    vendor.o(i._ZN4__rw22__rw_digit_writer_base11_C_digitizeEyb) refers to vendor.o(i._ZN4__rw22__rw_digit_writer_base12_C_to_binaryEy) for __rw::__rw_digit_writer_base::_C_to_binary(unsigned long long)
    vendor.o(i._ZN4__rw22__rw_digit_writer_base12_C_to_binaryEy) refers to vendor.o(.data) for .data
    vendor.o(i._ZN4__rw22__rw_digit_writer_base12_C_to_binaryEy) refers to locale.o(.constdata) for __rw::__rw_digit_map_base::_C_digit_chars
    vendor.o(.ARM.exidx) refers to vendor.o(i._ZN4__rw15__rw_locale_imp15_C_map_categoryEi) for i._ZN4__rw15__rw_locale_imp15_C_map_categoryEi
    vendor.o(.ARM.exidx) refers to vendor.o(i._ZN4__rw15__rw_locale_imp13_C_parse_nameERNS_18__rw_locale_vectorISsEEPKc) for i._ZN4__rw15__rw_locale_imp13_C_parse_nameERNS_18__rw_locale_vectorISsEEPKc
    vendor.o(.ARM.exidx) refers to unwind_pr0.o(.text) for __aeabi_unwind_cpp_pr0
    vendor.o(.ARM.exidx) refers to vendor.o(.ARM.extab) for .extab._ZN4__rw15__rw_locale_imp13_C_parse_nameERNS_18__rw_locale_vectorISsEEPKc
    vendor.o(.ARM.exidx) refers to vendor.o(i._ZN4__rw15__rw_locale_imp13_C_parse_nameERNS_18__rw_locale_vectorISsEEPKc.clean) for i._ZN4__rw15__rw_locale_imp13_C_parse_nameERNS_18__rw_locale_vectorISsEEPKc.clean
    vendor.o(.ARM.exidx) refers to vendor.o(i._ZN4__rw22__rw_digit_reader_base16_C_parse_decimalEPKcS2_) for i._ZN4__rw22__rw_digit_reader_base16_C_parse_decimalEPKcS2_
    vendor.o(.ARM.exidx) refers to vendor.o(i._ZN4__rw22__rw_digit_reader_base8_C_parseEPKcm) for i._ZN4__rw22__rw_digit_reader_base8_C_parseEPKcm
    vendor.o(.ARM.exidx) refers to unwind_pr0.o(.text) for __aeabi_unwind_cpp_pr0
    vendor.o(.ARM.exidx) refers to vendor.o(i._ZN4__rw22__rw_digit_reader_base10_C_reallocERPcS1_Rj) for i._ZN4__rw22__rw_digit_reader_base10_C_reallocERPcS1_Rj
    vendor.o(.ARM.exidx) refers to unwind_pr0.o(.text) for __aeabi_unwind_cpp_pr0
    vendor.o(.ARM.exidx) refers to vendor.o(.ARM.extab) for .extab._ZN4__rw22__rw_digit_reader_base10_C_reallocERPcS1_Rj
    vendor.o(.ARM.exidx) refers to vendor.o(i._ZN4__rw22__rw_digit_reader_base10_C_reallocERPcS1_Rj.clean) for i._ZN4__rw22__rw_digit_reader_base10_C_reallocERPcS1_Rj.clean
    vendor.o(.ARM.exidx) refers to vendor.o(i._ZN4__rw22__rw_digit_reader_base8_C_parseEPKcy) for i._ZN4__rw22__rw_digit_reader_base8_C_parseEPKcy
    vendor.o(.ARM.exidx) refers to unwind_pr0.o(.text) for __aeabi_unwind_cpp_pr0
    vendor.o(.ARM.exidx) refers to vendor.o(i._ZN4__rw22__rw_digit_reader_base8_C_parseEPKcPv) for i._ZN4__rw22__rw_digit_reader_base8_C_parseEPKcPv
    vendor.o(.ARM.exidx) refers to unwind_pr0.o(.text) for __aeabi_unwind_cpp_pr0
    vendor.o(.ARM.exidx) refers to vendor.o(i._ZN4__rw22__rw_digit_reader_base14_C_parse_floatEPKcS2_Pv) for i._ZN4__rw22__rw_digit_reader_base14_C_parse_floatEPKcS2_Pv
    vendor.o(.ARM.exidx) refers to unwind_pr0.o(.text) for __aeabi_unwind_cpp_pr0
    vendor.o(.ARM.exidx) refers to vendor.o(i._ZN4__rw22__rw_digit_writer_base14_C_get_patternEPcPKcb) for i._ZN4__rw22__rw_digit_writer_base14_C_get_patternEPcPKcb
    vendor.o(.ARM.exidx) refers to vendor.o(i._ZN4__rw22__rw_digit_writer_base16_C_get_f_patternEPcc) for i._ZN4__rw22__rw_digit_writer_base16_C_get_f_patternEPcc
    vendor.o(.ARM.exidx) refers to vendor.o(i._ZN4__rw22__rw_digit_writer_base12_C_to_binaryEm) for i._ZN4__rw22__rw_digit_writer_base12_C_to_binaryEm
    vendor.o(.ARM.exidx) refers to vendor.o(i._ZN4__rw22__rw_digit_writer_base11_C_digitizeEmbPKc) for i._ZN4__rw22__rw_digit_writer_base11_C_digitizeEmbPKc
    vendor.o(.ARM.exidx) refers to unwind_pr0.o(.text) for __aeabi_unwind_cpp_pr0
    vendor.o(.ARM.exidx) refers to vendor.o(i._ZN4__rw22__rw_digit_writer_base11_C_digitizeEPKv) for i._ZN4__rw22__rw_digit_writer_base11_C_digitizeEPKv
    vendor.o(.ARM.exidx) refers to vendor.o(i._ZN4__rw22__rw_digit_writer_base12_C_to_binaryEy) for i._ZN4__rw22__rw_digit_writer_base12_C_to_binaryEy
    vendor.o(.ARM.exidx) refers to vendor.o(i._ZN4__rw22__rw_digit_writer_base11_C_digitizeEyb) for i._ZN4__rw22__rw_digit_writer_base11_C_digitizeEyb
    vendor.o(.ARM.exidx) refers to unwind_pr0.o(.text) for __aeabi_unwind_cpp_pr0
    vendor.o(.ARM.exidx) refers to vendor.o(i._ZN4__rw22__rw_digit_writer_base11_C_digitizeEd) for i._ZN4__rw22__rw_digit_writer_base11_C_digitizeEd
    vendor.o(.ARM.exidx) refers to unwind_pr0.o(.text) for __aeabi_unwind_cpp_pr0
    vendor.o(.ARM.exidx) refers to vendor.o(i._ZN4__rw22__rw_digit_writer_base11_C_digitizeEe) for i._ZN4__rw22__rw_digit_writer_base11_C_digitizeEe
    vendor.o(.ARM.exidx) refers to unwind_pr0.o(.text) for __aeabi_unwind_cpp_pr0
    vendor.o(.ARM.exidx) refers to vendor.o(i._ZN4__rw22__rw_digit_writer_base14_C_calc_groupsEiPKc) for i._ZN4__rw22__rw_digit_writer_base14_C_calc_groupsEiPKc
    vendor.o(.ARM.extab) refers to vendor.o(i._ZN4__rw15__rw_locale_imp13_C_parse_nameERNS_18__rw_locale_vectorISsEEPKc.clean) for i._ZN4__rw15__rw_locale_imp13_C_parse_nameERNS_18__rw_locale_vectorISsEEPKc.clean
    vendor.o(.ARM.extab) refers to vendor.o(i._ZN4__rw22__rw_digit_reader_base10_C_reallocERPcS1_Rj) for i._ZN4__rw22__rw_digit_reader_base10_C_reallocERPcS1_Rj
    vendor.o(.ARM.extab) refers to vendor.o(i._ZN4__rw22__rw_digit_reader_base10_C_reallocERPcS1_Rj.clean) for i._ZN4__rw22__rw_digit_reader_base10_C_reallocERPcS1_Rj.clean
    cxa_guard_abort.o(.ARM.exidx) refers to cxa_guard_abort.o(i.__cxa_guard_abort) for i.__cxa_guard_abort
    cxa_guard_acquire.o(.ARM.exidx) refers to cxa_guard_acquire.o(i.__cxa_guard_acquire) for i.__cxa_guard_acquire
    cxa_guard_release.o(.ARM.exidx) refers to cxa_guard_release.o(i.__cxa_guard_release) for i.__cxa_guard_release
    cxa_throw_bad_array_new_length.o(.ARM.exidx) refers to cxa_throw_bad_array_new_length.o(i.__cxa_throw_bad_array_new_length) for i.__cxa_throw_bad_array_new_length
    exception_what.o(.ARM.exidx) refers to exception_what.o(i._ZNKSt9exception4whatEv) for i._ZNKSt9exception4whatEv
    aeabi_vec_new_cookie.o(i.__aeabi_vec_new_cookie) refers to cxa_vec_new.o(i.__cxa_vec_new) for __cxa_vec_new
    aeabi_vec_new_cookie.o(.ARM.exidx) refers to aeabi_vec_new_cookie.o(i.__aeabi_vec_new_cookie) for i.__aeabi_vec_new_cookie
    aeabi_vec_new_cookie.o(.ARM.exidx) refers to unwind_pr0.o(.text) for __aeabi_unwind_cpp_pr0
    aeabi_vec_dtor_cookie.o(i.__aeabi_vec_dtor_cookie) refers to aeabi_vec_dtor_noexceptions.o(.text) for __aeabi_vec_dtor
    aeabi_vec_dtor_cookie.o(.ARM.exidx) refers to aeabi_vec_dtor_cookie.o(i.__aeabi_vec_dtor_cookie) for i.__aeabi_vec_dtor_cookie
    arm_exceptions_mem.o(.text) refers to h1_alloc.o(.text) for malloc
    arm_exceptions_mem.o(.ARM.exidx) refers to arm_exceptions_mem.o(.text) for .text
    arm_exceptions_alloc.o(.text) refers to arm_exceptions_globs.o(.text) for __cxa_get_globals
    arm_exceptions_alloc.o(.text) refers to h1_alloc.o(.text) for malloc
    arm_exceptions_alloc.o(.text) refers to arm_exceptions_mem.o(.text) for __ARM_exceptions_buffer_allocate
    arm_exceptions_alloc.o(.text) refers to arm_exceptions_callterm.o(.text) for __ARM::call_terminate_handler(_Unwind_Control_Block*)
    arm_exceptions_alloc.o(.ARM.exidx) refers to arm_exceptions_alloc.o(.text) for .text
    unwinder.o(.emb_text) refers to unwinder.o(.text) for __ARM_Unwind_RaiseException
    unwinder.o(.text) refers to bsearchnoex.o(.text) for bsearch
    unwinder.o(.text) refers to unwind_activity.o(.emb_text) for _Unwind_Activity
    unwinder.o(.text) refers to abort.o(.text) for abort
    unwinder.o(.text) refers to unwinder.o(.emb_text) for __ARM_Unwind_VRS_corerestore
    unwinder.o(.text) refers to h1_alloc.o(.text) for malloc
    unwinder.o(.text) refers to rt_memcpy_w.o(.text) for __aeabi_memcpy4
    unwinder.o(.text) refers to h1_free.o(.text) for free
    unwinder.o(.text) refers (Weak) to unwind_pr0.o(.text) for __aeabi_unwind_cpp_pr0
    unwinder.o(.text) refers (Weak) to unwind_pr1.o(.text) for __aeabi_unwind_cpp_pr1
    unwinder.o(.ARM.exidx) refers to unwinder.o(.text) for .text
    fpconst.o(c$$dinf) refers (Special) to usenofp.o(x$fpl$usenofp) for __I$use$fp
    fpconst.o(c$$dnan) refers (Special) to usenofp.o(x$fpl$usenofp) for __I$use$fp
    fpconst.o(c$$finf) refers (Special) to usenofp.o(x$fpl$usenofp) for __I$use$fp
    retnan.o(x$fpl$retnan) refers (Special) to usenofp.o(x$fpl$usenofp) for __I$use$fp
    retnan.o(x$fpl$retnan) refers to trapv.o(x$fpl$trapveneer) for __fpl_cmpreturn
    scanf2.o(x$fpl$scanf2) refers to scanf_hexfp.o(.text) for _scanf_really_hex_real
    scanf2.o(x$fpl$scanf2) refers to scanf_infnan.o(.text) for _scanf_really_infnan
    scanf2b.o(x$fpl$scanf2) refers to scanf_hexfp.o(.text) for _scanf_really_hex_real
    scanf2b.o(x$fpl$scanf2) refers to scanf_infnan.o(.text) for _scanf_really_infnan
    fpclassify.o(i.__ARM_fpclassify) refers (Special) to usenofp.o(x$fpl$usenofp) for __I$use$fp
    narrow.o(i.__mathlib_narrow) refers (Special) to usenofp.o(x$fpl$usenofp) for __I$use$fp
    narrow.o(i.__mathlib_narrow) refers to narrow.o(i.__mathlib_tofloat) for __mathlib_tofloat
    narrow.o(i.__mathlib_tofloat) refers (Special) to usenofp.o(x$fpl$usenofp) for __I$use$fp
    narrow.o(i.__mathlib_tofloat) refers to frexp.o(i.frexp) for frexp
    narrow.o(i.__mathlib_tofloat) refers to deqf.o(x$fpl$deqf) for __aeabi_cdcmpeq
    narrow.o(i.__mathlib_tofloat) refers to d2f.o(x$fpl$d2f) for __aeabi_d2f
    narrow.o(i.__mathlib_tofloat) refers to _rserrno.o(.text) for __set_errno
    narrow.o(i.__mathlib_tofloat) refers to drleqf.o(x$fpl$drleqf) for __aeabi_cdrcmple
    narrow.o(i.__softfp___mathlib_tofloat) refers (Special) to usenofp.o(x$fpl$usenofp) for __I$use$fp
    narrow.o(i.__softfp___mathlib_tofloat) refers to narrow.o(i.__mathlib_tofloat) for __mathlib_tofloat
    term_alloc.o(.text) refers (Special) to libshutdown2.o(.ARM.Collect$$libshutdown$$0000000F) for __rt_lib_shutdown_heap_2
    term_alloc.o(.text) refers to rt_heap_descriptor.o(.text) for __rt_heap_descriptor
    term_alloc.o(.text) refers to h1_final.o(.text) for __Heap_Finalize
    scanf_hexfp.o(.text) refers to _chval.o(.text) for _chval
    scanf_hexfp.o(.text) refers to llshl.o(.text) for __aeabi_llsl
    scanf_hexfp.o(.text) refers to ldexp.o(i.__support_ldexp) for __support_ldexp
    scanf_hexfp.o(.text) refers to narrow.o(i.__mathlib_narrow) for __mathlib_narrow
    strtoull.o(.text) refers to __strtoull.o(.text) for __strtoull
    _lconv.o(.text) refers (Special) to lc_monetary_c.o(locale$$code) for _get_lc_monetary
    _lconv.o(.text) refers (Special) to lc_numeric_c.o(locale$$code) for _get_lc_numeric
    _lconv.o(.text) refers to rt_locale.o(.text) for __rt_locale
    locale_r.o(.text) refers to rt_locale.o(.text) for __rt_locale
    locale_r.o(.text) refers (Weak) to lc_ctype_c.o(locale$$code) for _get_lc_ctype
    locale_r.o(.text) refers (Weak) to lc_collate_c.o(locale$$code) for _get_lc_collate
    locale_r.o(.text) refers (Weak) to lc_monetary_c.o(locale$$code) for _get_lc_monetary
    locale_r.o(.text) refers (Weak) to lc_numeric_c.o(locale$$code) for _get_lc_numeric
    locale_r.o(.text) refers to null_locale.o(locale$$data) for __lcnull_start
    lc_collate_c.o(locale$$data) refers (Special) to libinit2.o(.ARM.Collect$$libinit$$00000010) for __rt_lib_init_lc_collate_2
    lc_collate_c.o(locale$$code) refers (Special) to libinit2.o(.ARM.Collect$$libinit$$00000010) for __rt_lib_init_lc_collate_2
    lc_collate_c.o(locale$$code) refers to strcmpv7m.o(.text) for strcmp
    lc_collate_c.o(locale$$code) refers to lc_collate_c.o(locale$$data) for __lccoll_c_name
    defsig_fpe_inner.o(.text) refers to defsig_general.o(.text) for __default_signal_display
    defsig_rtmem_inner.o(.text) refers to defsig_general.o(.text) for __default_signal_display
    defsig.o(CL$$defsig) refers to defsig_abrt_inner.o(.text) for __rt_SIGABRT_inner
    defsig.o(CL$$defsig) refers to defsig_fpe_inner.o(.text) for __rt_SIGFPE_inner
    defsig.o(CL$$defsig) refers to defsig_rtred_inner.o(.text) for __rt_SIGRTRED_inner
    defsig.o(CL$$defsig) refers to defsig_rtmem_inner.o(.text) for __rt_SIGRTMEM_inner
    defsig.o(CL$$defsig) refers to defsig_pvfn_inner.o(.text) for __rt_SIGPVFN_inner
    arm_rethrow_noexceptions.o(.ARM.exidx) refers to arm_rethrow_noexceptions.o(.text) for .text
    cxa_vec_new.o(i.__cxa_vec_new) refers to array_new_general.o(i.__ARM_array_new_general) for __ARM_array_new_general
    cxa_vec_new.o(i.__cxa_vec_new) refers to array_del.o(i._ZdaPv) for operator delete[] (void*)
    cxa_vec_new.o(.ARM.exidx) refers to cxa_vec_new.o(i.__cxa_vec_new) for i.__cxa_vec_new
    cxa_vec_new.o(.ARM.exidx) refers to unwind_pr0.o(.text) for __aeabi_unwind_cpp_pr0
    aeabi_vec_dtor_noexceptions.o(.ARM.exidx) refers to aeabi_vec_dtor_noexceptions.o(.text) for .text
    d2f.o(x$fpl$d2f) refers (Special) to usenofp.o(x$fpl$usenofp) for __I$use$fp
    d2f.o(x$fpl$d2f) refers to fretinf.o(x$fpl$fretinf) for __fpl_fretinf
    d2f.o(x$fpl$d2f) refers to dnaninf.o(x$fpl$dnaninf) for __fpl_dnaninf
    deqf.o(x$fpl$deqf) refers (Special) to usenofp.o(x$fpl$usenofp) for __I$use$fp
    deqf.o(x$fpl$deqf) refers to dnaninf.o(x$fpl$dnaninf) for __fpl_dnaninf
    deqf.o(x$fpl$deqf) refers to dcmpi.o(x$fpl$dcmpinf) for __fpl_dcmp_Inf
    dleqf.o(x$fpl$dleqf) refers (Special) to usenofp.o(x$fpl$usenofp) for __I$use$fp
    dleqf.o(x$fpl$dleqf) refers to dnaninf.o(x$fpl$dnaninf) for __fpl_dnaninf
    dleqf.o(x$fpl$dleqf) refers to dcmpi.o(x$fpl$dcmpinf) for __fpl_dcmp_Inf
    drleqf.o(x$fpl$drleqf) refers (Special) to usenofp.o(x$fpl$usenofp) for __I$use$fp
    drleqf.o(x$fpl$drleqf) refers to dleqf.o(x$fpl$dleqf) for __fpl_dcmple_InfNaN
    trapv.o(x$fpl$trapveneer) refers (Special) to usenofp.o(x$fpl$usenofp) for __I$use$fp
    frexp.o(i.__softfp_frexp) refers (Special) to usenofp.o(x$fpl$usenofp) for __I$use$fp
    frexp.o(i.__softfp_frexp) refers to scalbn.o(x$fpl$scalbn) for __ARM_scalbn
    frexp.o(i.frexp) refers (Special) to usenofp.o(x$fpl$usenofp) for __I$use$fp
    frexp.o(i.frexp) refers to scalbn.o(x$fpl$scalbn) for __ARM_scalbn
    __strtoull.o(.text) refers to rt_errno_addr.o(.text) for __aeabi_errno_addr
    __strtoull.o(.text) refers to rt_ctype_table.o(.text) for __rt_ctype_table
    __strtoull.o(.text) refers to _strtoull.o(.text) for _strtoull
    lc_monetary_c.o(locale$$data) refers (Special) to libinit2.o(.ARM.Collect$$libinit$$00000014) for __rt_lib_init_lc_monetary_2
    lc_monetary_c.o(locale$$code) refers (Special) to libinit2.o(.ARM.Collect$$libinit$$00000014) for __rt_lib_init_lc_monetary_2
    lc_monetary_c.o(locale$$code) refers to strcmpv7m.o(.text) for strcmp
    lc_monetary_c.o(locale$$code) refers to lc_monetary_c.o(locale$$data) for __lcmon_c_name
    defsig_stak_inner.o(.text) refers to defsig_general.o(.text) for __default_signal_display
    defsig_cppl_inner.o(.text) refers to defsig_general.o(.text) for __default_signal_display
    defsig_segv_inner.o(.text) refers to defsig_general.o(.text) for __default_signal_display
    defsig_other.o(.text) refers to defsig_general.o(.text) for __default_signal_display
    array_new_general.o(i.__ARM_array_new_general) refers to array_new.o(i._Znaj) for operator new[] (unsigned)
    array_new_general.o(i.__ARM_array_new_general) refers to ARM_vec_cleanup_noexceptions.o(.text) for __ARM_vec_cleanup
    array_new_general.o(i.__ARM_array_new_general) refers to arm_exceptions_terminate.o(.text) for std::terminate()
    array_new_general.o(i.__ARM_array_new_general) refers to arm_rethrow_noexceptions.o(.text) for __cxa_rethrow
    array_new_general.o(i.__ARM_array_new_general.clean) refers to arm_exceptions_cleanup.o(.emb_text) for __cxa_end_cleanup
    array_new_general.o(.ARM.exidx) refers to array_new_general.o(i.__ARM_array_new_general) for i.__ARM_array_new_general
    array_new_general.o(.ARM.exidx) refers to unwind_pr0.o(.text) for __aeabi_unwind_cpp_pr0
    array_new_general.o(.ARM.exidx) refers to array_new_general.o(.ARM.extab) for .extab.__ARM_array_new_general
    array_new_general.o(.ARM.exidx) refers to array_new_general.o(i.__ARM_array_new_general.clean) for i.__ARM_array_new_general.clean
    array_new_general.o(.ARM.extab) refers to array_new_general.o(i.__ARM_array_new_general) for i.__ARM_array_new_general
    array_new_general.o(.ARM.extab) refers to array_new_general.o(i.__ARM_array_new_general.clean) for i.__ARM_array_new_general.clean
    dcmpi.o(x$fpl$dcmpinf) refers (Special) to usenofp.o(x$fpl$usenofp) for __I$use$fp
    scalbn.o(x$fpl$scalbn) refers (Special) to usenofp.o(x$fpl$usenofp) for __I$use$fp
    scalbn.o(x$fpl$scalbn) refers to dcheck1.o(x$fpl$dcheck1) for __fpl_dcheck_NaN1
    ldexp.o(i.__softfp_ldexp) refers (Special) to usenofp.o(x$fpl$usenofp) for __I$use$fp
    ldexp.o(i.__softfp_ldexp) refers to ldexp.o(i.ldexp) for ldexp
    ldexp.o(i.__support_ldexp) refers (Special) to usenofp.o(x$fpl$usenofp) for __I$use$fp
    ldexp.o(i.__support_ldexp) refers to ldexp.o(i.ldexp) for ldexp
    ldexp.o(i.ldexp) refers (Special) to usenofp.o(x$fpl$usenofp) for __I$use$fp
    ldexp.o(i.ldexp) refers to deqf.o(x$fpl$deqf) for __aeabi_cdcmpeq
    ldexp.o(i.ldexp) refers to scalbn.o(x$fpl$scalbn) for __ARM_scalbn
    ldexp.o(i.ldexp) refers to _rserrno.o(.text) for __set_errno
    ldexp.o(i.ldexp) refers to dunder.o(i.__mathlib_dbl_underflow) for __mathlib_dbl_underflow
    ldexp.o(i.ldexp) refers to dunder.o(i.__mathlib_dbl_overflow) for __mathlib_dbl_overflow
    ldexp_x.o(i.____softfp_ldexp$lsc) refers (Special) to usenofp.o(x$fpl$usenofp) for __I$use$fp
    ldexp_x.o(i.____softfp_ldexp$lsc) refers to ldexp_x.o(i.__ldexp$lsc) for __ldexp$lsc
    ldexp_x.o(i.____support_ldexp$lsc) refers (Special) to usenofp.o(x$fpl$usenofp) for __I$use$fp
    ldexp_x.o(i.____support_ldexp$lsc) refers to ldexp_x.o(i.__ldexp$lsc) for __ldexp$lsc
    ldexp_x.o(i.__ldexp$lsc) refers (Special) to usenofp.o(x$fpl$usenofp) for __I$use$fp
    ldexp_x.o(i.__ldexp$lsc) refers to deqf.o(x$fpl$deqf) for __aeabi_cdcmpeq
    ldexp_x.o(i.__ldexp$lsc) refers to scalbn.o(x$fpl$scalbn) for __ARM_scalbn
    ldexp_x.o(i.__ldexp$lsc) refers to _rserrno.o(.text) for __set_errno
    ldexp_x.o(i.__ldexp$lsc) refers to qnan.o(.constdata) for __mathlib_zero
    _strtoull.o(.text) refers to _chval.o(.text) for _chval
    _strtoull.o(.text) refers to rt_errno_addr.o(.text) for __aeabi_errno_addr
    ARM_vec_cleanup_noexceptions.o(.ARM.exidx) refers to ARM_vec_cleanup_noexceptions.o(.text) for .text
    dcheck1.o(x$fpl$dcheck1) refers (Special) to usenofp.o(x$fpl$usenofp) for __I$use$fp
    dcheck1.o(x$fpl$dcheck1) refers to retnan.o(x$fpl$retnan) for __fpl_return_NaN
    dunder.o(i.__mathlib_dbl_divzero) refers to ddiv.o(x$fpl$ddiv) for __aeabi_ddiv
    dunder.o(i.__mathlib_dbl_infnan) refers to scalbn.o(x$fpl$scalbn) for __ARM_scalbn
    dunder.o(i.__mathlib_dbl_infnan2) refers to daddsub_clz.o(x$fpl$dadd) for __aeabi_dadd
    dunder.o(i.__mathlib_dbl_invalid) refers to ddiv.o(x$fpl$ddiv) for __aeabi_ddiv
    dunder.o(i.__mathlib_dbl_overflow) refers to scalbn.o(x$fpl$scalbn) for __ARM_scalbn
    dunder.o(i.__mathlib_dbl_posinfnan) refers to dmul.o(x$fpl$dmul) for __aeabi_dmul
    dunder.o(i.__mathlib_dbl_underflow) refers to scalbn.o(x$fpl$scalbn) for __ARM_scalbn
    qnan.o(.constdata) refers (Special) to usenofp.o(x$fpl$usenofp) for __I$use$fp
    daddsub_clz.o(x$fpl$dadd) refers (Special) to usenofp.o(x$fpl$usenofp) for __I$use$fp
    daddsub_clz.o(x$fpl$dadd) refers to daddsub_clz.o(x$fpl$dsub) for _dsub1
    daddsub_clz.o(x$fpl$dadd) refers to dretinf.o(x$fpl$dretinf) for __fpl_dretinf
    daddsub_clz.o(x$fpl$dadd) refers to dnaninf.o(x$fpl$dnaninf) for __fpl_dnaninf
    daddsub_clz.o(x$fpl$drsb) refers (Special) to usenofp.o(x$fpl$usenofp) for __I$use$fp
    daddsub_clz.o(x$fpl$drsb) refers to daddsub_clz.o(x$fpl$dadd) for _dadd1
    daddsub_clz.o(x$fpl$drsb) refers to daddsub_clz.o(x$fpl$dsub) for _dsub1
    daddsub_clz.o(x$fpl$dsub) refers (Special) to usenofp.o(x$fpl$usenofp) for __I$use$fp
    daddsub_clz.o(x$fpl$dsub) refers to daddsub_clz.o(x$fpl$dadd) for _dadd1
    daddsub_clz.o(x$fpl$dsub) refers to dnaninf.o(x$fpl$dnaninf) for __fpl_dnaninf
    ddiv.o(x$fpl$drdiv) refers (Special) to usenofp.o(x$fpl$usenofp) for __I$use$fp
    ddiv.o(x$fpl$drdiv) refers to ddiv.o(x$fpl$ddiv) for ddiv_entry
    ddiv.o(x$fpl$ddiv) refers (Special) to usenofp.o(x$fpl$usenofp) for __I$use$fp
    ddiv.o(x$fpl$ddiv) refers to dretinf.o(x$fpl$dretinf) for __fpl_dretinf
    ddiv.o(x$fpl$ddiv) refers to dnaninf.o(x$fpl$dnaninf) for __fpl_dnaninf
    nrk_task.o(i._Z23_nrk_wait_for_schedulerv) refers to nrk.o(.data) for nrk_cur_task_TCB
    nrk_task.o(.ARM.exidx) refers to nrk_task.o(i._Z23_nrk_wait_for_schedulerv) for i._Z23_nrk_wait_for_schedulerv
    main.o(t._Z11rprint_taskILi3EEvv) refers to Stream.cpp.lpc1768.arm.o(i._ZN4mbed6Stream6printfEPKcz) for mbed::Stream::printf(const char*, ...)
    main.o(t._Z11rprint_taskILi3EEvv) refers to nrk_task.o(i._Z26nrk_wait_until_next_periodv) for nrk_wait_until_next_period()
    main.o(t._Z11rprint_taskILi3EEvv) refers to main.o(.constdata__ZZ11rprint_taskILi3EEvvEs) for void rprint_task<(int)3>()::string
    main.o(t._Z11rprint_taskILi3EEvv) refers to main.o(.bss) for .bss
    main.o(t._Z11rprint_taskILi3EEvv) refers to main.o(.data) for .data
    main.o(t._Z11rprint_taskILi3EEvv) refers to main.o(.constdata__ZZ11rprint_taskILi3EEvvEs_0) for void rprint_task<(int)3>()::string (instance 2)
    main.o(.ARM.exidx) refers to main.o(t._Z11rprint_taskILi3EEvv) for t._Z11rprint_taskILi3EEvv
    main.o(t._ZNSt6vectorI9relay_msgSaIS0_EED1Ev) refers to rwalloc.o(i._ZN4__rw15__rw_deallocateEPvji) for __rw::__rw_deallocate(void*, unsigned, int)
    main.o(.ARM.exidx) refers to main.o(t._ZNSt6vectorI9relay_msgSaIS0_EED1Ev) for t._ZNSt6vectorI9relay_msgSaIS0_EED1Ev
    Serial.cpp.lpc1768.arm.o(.constdata__ZTVN4mbed6SerialE) refers to Serial.cpp.lpc1768.arm.o(.constdata__ZTIN4mbed6SerialE) for typeinfo for mbed::Serial
    Serial.cpp.lpc1768.arm.o(.constdata__ZTVN4mbed6SerialE) refers to Serial.cpp.lpc1768.arm.o(i._ZN4mbed6SerialD1Ev) for mbed::Serial::~Serial()
    Serial.cpp.lpc1768.arm.o(.constdata__ZTVN4mbed6SerialE) refers to Serial.cpp.lpc1768.arm.o(i._ZN4mbed6SerialD0Ev) for mbed::Serial::~Serial__deallocating()
    Serial.cpp.lpc1768.arm.o(.constdata__ZTVN4mbed6SerialE) refers to Base.cpp.lpc1768.arm.o(i._ZN4mbed4Base3rpcEPKcS2_Pc) for mbed::Base::rpc(const char*, const char*, char*)
    Serial.cpp.lpc1768.arm.o(.constdata__ZTVN4mbed6SerialE) refers to Serial.cpp.lpc1768.arm.o(i._ZN4mbed6Serial15get_rpc_methodsEv) for mbed::Serial::get_rpc_methods()
    Serial.cpp.lpc1768.arm.o(.constdata__ZTVN4mbed6SerialE) refers to Stream.cpp.lpc1768.arm.o(i._ZN4mbed6Stream5closeEv) for mbed::Stream::close()
    Serial.cpp.lpc1768.arm.o(.constdata__ZTVN4mbed6SerialE) refers to Stream.cpp.lpc1768.arm.o(i._ZN4mbed6Stream5writeEPKvj) for mbed::Stream::write(const void*, unsigned)
    Serial.cpp.lpc1768.arm.o(.constdata__ZTVN4mbed6SerialE) refers to Stream.cpp.lpc1768.arm.o(i._ZN4mbed6Stream4readEPvj) for mbed::Stream::read(void*, unsigned)
    Serial.cpp.lpc1768.arm.o(.constdata__ZTVN4mbed6SerialE) refers to Stream.cpp.lpc1768.arm.o(i._ZN4mbed6Stream5lseekEli) for mbed::Stream::lseek(long, int)
    Serial.cpp.lpc1768.arm.o(.constdata__ZTVN4mbed6SerialE) refers to Stream.cpp.lpc1768.arm.o(i._ZN4mbed6Stream6isattyEv) for mbed::Stream::isatty()
    Serial.cpp.lpc1768.arm.o(.constdata__ZTVN4mbed6SerialE) refers to Stream.cpp.lpc1768.arm.o(i._ZN4mbed6Stream5fsyncEv) for mbed::Stream::fsync()
    Serial.cpp.lpc1768.arm.o(.constdata__ZTVN4mbed6SerialE) refers to Stream.cpp.lpc1768.arm.o(i._ZN4mbed6Stream4flenEv) for mbed::Stream::flen()
    Serial.cpp.lpc1768.arm.o(.constdata__ZTVN4mbed6SerialE) refers to Serial.cpp.lpc1768.arm.o(i._ZN4mbed6Serial5_putcEi) for mbed::Serial::_putc(int)
    Serial.cpp.lpc1768.arm.o(.constdata__ZTVN4mbed6SerialE) refers to Serial.cpp.lpc1768.arm.o(i._ZN4mbed6Serial5_getcEv) for mbed::Serial::_getc()
    Serial.cpp.lpc1768.arm.o(.constdata__ZTVN4mbed6SerialE) refers to Stream.cpp.lpc1768.arm.o(i._ZThn16_N4mbed6Stream5writeEPKvj) for thunk{-16} to mbed::Stream::write(const void*, unsigned)
    Serial.cpp.lpc1768.arm.o(.constdata__ZTVN4mbed6SerialE) refers to Stream.cpp.lpc1768.arm.o(i._ZThn16_N4mbed6Stream5closeEv) for thunk{-16} to mbed::Stream::close()
    Serial.cpp.lpc1768.arm.o(.constdata__ZTVN4mbed6SerialE) refers to Stream.cpp.lpc1768.arm.o(i._ZThn16_N4mbed6Stream4readEPvj) for thunk{-16} to mbed::Stream::read(void*, unsigned)
    Serial.cpp.lpc1768.arm.o(.constdata__ZTVN4mbed6SerialE) refers to Stream.cpp.lpc1768.arm.o(i._ZThn16_N4mbed6Stream6isattyEv) for thunk{-16} to mbed::Stream::isatty()
    Serial.cpp.lpc1768.arm.o(.constdata__ZTVN4mbed6SerialE) refers to Stream.cpp.lpc1768.arm.o(i._ZThn16_N4mbed6Stream5lseekEli) for thunk{-16} to mbed::Stream::lseek(long, int)
    Serial.cpp.lpc1768.arm.o(.constdata__ZTVN4mbed6SerialE) refers to Stream.cpp.lpc1768.arm.o(i._ZThn16_N4mbed6Stream5fsyncEv) for thunk{-16} to mbed::Stream::fsync()
    Serial.cpp.lpc1768.arm.o(.constdata__ZTVN4mbed6SerialE) refers to Stream.cpp.lpc1768.arm.o(i._ZThn16_N4mbed6Stream4flenEv) for thunk{-16} to mbed::Stream::flen()
    Serial.cpp.lpc1768.arm.o(i._ZN4mbed6SerialD1Ev) refers to Stream.cpp.lpc1768.arm.o(i._ZN4mbed6StreamD2Ev) for mbed::Stream::~Stream__sub_object()
    Serial.cpp.lpc1768.arm.o(.ARM.exidx) refers to Serial.cpp.lpc1768.arm.o(i._ZN4mbed6SerialD1Ev) for i._ZN4mbed6SerialD1Ev
    Serial.cpp.lpc1768.arm.o(t._ZN4mbed17rpc_method_callerINS_6SerialEiXadL_ZNS1_4baudEiEEEEvPNS_4BaseEPKcPc) refers to Serial.cpp.lpc1768.arm.o(i._ZN4mbed10parse_charEPKcPS1_) for mbed::parse_char(const char*, const char**)
    Serial.cpp.lpc1768.arm.o(t._ZN4mbed17rpc_method_callerINS_6SerialEiXadL_ZNS1_4baudEiEEEEvPNS_4BaseEPKcPc) refers to strtol.o(.text) for strtol
    Serial.cpp.lpc1768.arm.o(t._ZN4mbed17rpc_method_callerINS_6SerialEiXadL_ZNS1_4baudEiEEEEvPNS_4BaseEPKcPc) refers to Serial.cpp.lpc1768.arm.o(.constdata) for .constdata
    Serial.cpp.lpc1768.arm.o(.ARM.exidx) refers to Serial.cpp.lpc1768.arm.o(t._ZN4mbed17rpc_method_callerINS_6SerialEiXadL_ZNS1_4baudEiEEEEvPNS_4BaseEPKcPc) for t._ZN4mbed17rpc_method_callerINS_6SerialEiXadL_ZNS1_4baudEiEEEEvPNS_4BaseEPKcPc
    Serial.cpp.lpc1768.arm.o(t._ZN4mbed17rpc_method_callerIiNS_6SerialEXadL_ZNS1_8readableEvEEEEvPNS_4BaseEPKcPc) refers to sprintf.o(.text) for sprintf
    Serial.cpp.lpc1768.arm.o(t._ZN4mbed17rpc_method_callerIiNS_6SerialEXadL_ZNS1_8readableEvEEEEvPNS_4BaseEPKcPc) refers to Serial.cpp.lpc1768.arm.o(.constdata) for .constdata
    Serial.cpp.lpc1768.arm.o(t._ZN4mbed17rpc_method_callerIiNS_6SerialEXadL_ZNS1_8readableEvEEEEvPNS_4BaseEPKcPc) refers to Serial.cpp.lpc1768.arm.o(.constdata___ARM__ZN4mbed12write_resultIiEEvT_Pc_anon0) for __ARM__ZN4mbed12write_resultIiEEvT_Pc_anon0
    Serial.cpp.lpc1768.arm.o(.ARM.exidx) refers to Serial.cpp.lpc1768.arm.o(t._ZN4mbed17rpc_method_callerIiNS_6SerialEXadL_ZNS1_8readableEvEEEEvPNS_4BaseEPKcPc) for t._ZN4mbed17rpc_method_callerIiNS_6SerialEXadL_ZNS1_8readableEvEEEEvPNS_4BaseEPKcPc
    Serial.cpp.lpc1768.arm.o(t._ZN4mbed17rpc_method_callerIiNS_6SerialEXadL_ZNS1_9writeableEvEEEEvPNS_4BaseEPKcPc) refers to sprintf.o(.text) for sprintf
    Serial.cpp.lpc1768.arm.o(t._ZN4mbed17rpc_method_callerIiNS_6SerialEXadL_ZNS1_9writeableEvEEEEvPNS_4BaseEPKcPc) refers to Serial.cpp.lpc1768.arm.o(.constdata) for .constdata
    Serial.cpp.lpc1768.arm.o(t._ZN4mbed17rpc_method_callerIiNS_6SerialEXadL_ZNS1_9writeableEvEEEEvPNS_4BaseEPKcPc) refers to Serial.cpp.lpc1768.arm.o(.constdata___ARM__ZN4mbed12write_resultIiEEvT_Pc_anon0) for __ARM__ZN4mbed12write_resultIiEEvT_Pc_anon0
    Serial.cpp.lpc1768.arm.o(.ARM.exidx) refers to Serial.cpp.lpc1768.arm.o(t._ZN4mbed17rpc_method_callerIiNS_6SerialEXadL_ZNS1_9writeableEvEEEEvPNS_4BaseEPKcPc) for t._ZN4mbed17rpc_method_callerIiNS_6SerialEXadL_ZNS1_9writeableEvEEEEvPNS_4BaseEPKcPc
    Serial.cpp.lpc1768.arm.o(t._ZN4mbed9rpc_superINS_6StreamEEEPKNS_10rpc_methodEPNS_4BaseE) refers to Stream.cpp.lpc1768.arm.o(i._ZN4mbed6Stream15get_rpc_methodsEv) for mbed::Stream::get_rpc_methods()
    Serial.cpp.lpc1768.arm.o(.ARM.exidx) refers to Serial.cpp.lpc1768.arm.o(t._ZN4mbed9rpc_superINS_6StreamEEEPKNS_10rpc_methodEPNS_4BaseE) for t._ZN4mbed9rpc_superINS_6StreamEEEPKNS_10rpc_methodEPNS_4BaseE
    Serial.cpp.lpc1768.arm.o(t._ZN4mbed19rpc_function_callerIPKc7PinNameS3_S2_XadL_ZNS_4Base9constructINS_6SerialES3_S3_S2_EES2_T0_T1_T2_EEEEvS2_Pc) refers to Serial.cpp.lpc1768.arm.o(i._ZN4mbed9parse_argI7PinNameEET_PKcPS4_) for T1 mbed::parse_arg<PinName>(const char*, const char**)
    Serial.cpp.lpc1768.arm.o(t._ZN4mbed19rpc_function_callerIPKc7PinNameS3_S2_XadL_ZNS_4Base9constructINS_6SerialES3_S3_S2_EES2_T0_T1_T2_EEEEvS2_Pc) refers to array_new.o(i._Znaj) for operator new[] (unsigned)
    Serial.cpp.lpc1768.arm.o(t._ZN4mbed19rpc_function_callerIPKc7PinNameS3_S2_XadL_ZNS_4Base9constructINS_6SerialES3_S3_S2_EES2_T0_T1_T2_EEEEvS2_Pc) refers to strtol.o(.text) for strtol
    Serial.cpp.lpc1768.arm.o(t._ZN4mbed19rpc_function_callerIPKc7PinNameS3_S2_XadL_ZNS_4Base9constructINS_6SerialES3_S3_S2_EES2_T0_T1_T2_EEEEvS2_Pc) refers to rt_memcpy_v6.o(.text) for __aeabi_memcpy
    Serial.cpp.lpc1768.arm.o(t._ZN4mbed19rpc_function_callerIPKc7PinNameS3_S2_XadL_ZNS_4Base9constructINS_6SerialES3_S3_S2_EES2_T0_T1_T2_EEEEvS2_Pc) refers to new.o(i._Znwj) for operator new(unsigned)
    Serial.cpp.lpc1768.arm.o(t._ZN4mbed19rpc_function_callerIPKc7PinNameS3_S2_XadL_ZNS_4Base9constructINS_6SerialES3_S3_S2_EES2_T0_T1_T2_EEEEvS2_Pc) refers to Stream.cpp.lpc1768.arm.o(i._ZN4mbed6StreamC2EPKc) for mbed::Stream::Stream__sub_object(const char*)
    Serial.cpp.lpc1768.arm.o(t._ZN4mbed19rpc_function_callerIPKc7PinNameS3_S2_XadL_ZNS_4Base9constructINS_6SerialES3_S3_S2_EES2_T0_T1_T2_EEEEvS2_Pc) refers to FunctionPointer.cpp.lpc1768.arm.o(i._ZN4mbed15FunctionPointerC1EPFvvE) for mbed::FunctionPointer::FunctionPointer(void(*)())
    Serial.cpp.lpc1768.arm.o(t._ZN4mbed19rpc_function_callerIPKc7PinNameS3_S2_XadL_ZNS_4Base9constructINS_6SerialES3_S3_S2_EES2_T0_T1_T2_EEEEvS2_Pc) refers to serial_api.c.lpc1768.arm.o(i.serial_init) for serial_init
    Serial.cpp.lpc1768.arm.o(t._ZN4mbed19rpc_function_callerIPKc7PinNameS3_S2_XadL_ZNS_4Base9constructINS_6SerialES3_S3_S2_EES2_T0_T1_T2_EEEEvS2_Pc) refers to Base.cpp.lpc1768.arm.o(i._ZN4mbed4Base8new_nameEPS0_) for mbed::Base::new_name(mbed::Base*)
    Serial.cpp.lpc1768.arm.o(t._ZN4mbed19rpc_function_callerIPKc7PinNameS3_S2_XadL_ZNS_4Base9constructINS_6SerialES3_S3_S2_EES2_T0_T1_T2_EEEEvS2_Pc) refers to Base.cpp.lpc1768.arm.o(i._ZN4mbed4Base15register_objectEPKc) for mbed::Base::register_object(const char*)
    Serial.cpp.lpc1768.arm.o(t._ZN4mbed19rpc_function_callerIPKc7PinNameS3_S2_XadL_ZNS_4Base9constructINS_6SerialES3_S3_S2_EES2_T0_T1_T2_EEEEvS2_Pc) refers to strcpy.o(.text) for strcpy
    Serial.cpp.lpc1768.arm.o(t._ZN4mbed19rpc_function_callerIPKc7PinNameS3_S2_XadL_ZNS_4Base9constructINS_6SerialES3_S3_S2_EES2_T0_T1_T2_EEEEvS2_Pc) refers to aeabi_ctype_def.o(.constdata) for __aeabi_ctype_table_
    Serial.cpp.lpc1768.arm.o(t._ZN4mbed19rpc_function_callerIPKc7PinNameS3_S2_XadL_ZNS_4Base9constructINS_6SerialES3_S3_S2_EES2_T0_T1_T2_EEEEvS2_Pc) refers to Serial.cpp.lpc1768.arm.o(.constdata__ZTVN4mbed6SerialE) for vtable for mbed::Serial
    Serial.cpp.lpc1768.arm.o(.ARM.exidx) refers to Serial.cpp.lpc1768.arm.o(t._ZN4mbed19rpc_function_callerIPKc7PinNameS3_S2_XadL_ZNS_4Base9constructINS_6SerialES3_S3_S2_EES2_T0_T1_T2_EEEEvS2_Pc) for t._ZN4mbed19rpc_function_callerIPKc7PinNameS3_S2_XadL_ZNS_4Base9constructINS_6SerialES3_S3_S2_EES2_T0_T1_T2_EEEEvS2_Pc
    Serial.cpp.lpc1768.arm.o(i._ZN4mbed6SerialD0Ev) refers to Stream.cpp.lpc1768.arm.o(i._ZN4mbed6StreamD2Ev) for mbed::Stream::~Stream__sub_object()
    Serial.cpp.lpc1768.arm.o(i._ZN4mbed6SerialD0Ev) refers to delete.o(i._ZdlPv) for operator delete (void*)
    Serial.cpp.lpc1768.arm.o(.ARM.exidx) refers to Serial.cpp.lpc1768.arm.o(i._ZN4mbed6SerialD0Ev) for i._ZN4mbed6SerialD0Ev
    Serial.cpp.lpc1768.arm.o(i._ZN4mbed10parse_charEPKcPS1_) refers to strtol.o(.text) for strtol
    Serial.cpp.lpc1768.arm.o(.ARM.exidx) refers to Serial.cpp.lpc1768.arm.o(i._ZN4mbed10parse_charEPKcPS1_) for i._ZN4mbed10parse_charEPKcPS1_
    Serial.cpp.lpc1768.arm.o(i._ZN4mbed9parse_argI7PinNameEET_PKcPS4_) refers to rt_memcpy_w.o(.text) for __aeabi_memcpy4
    Serial.cpp.lpc1768.arm.o(i._ZN4mbed9parse_argI7PinNameEET_PKcPS4_) refers to aeabi_ctype_def.o(.constdata) for __aeabi_ctype_table_
    Serial.cpp.lpc1768.arm.o(i._ZN4mbed9parse_argI7PinNameEET_PKcPS4_) refers to Serial.cpp.lpc1768.arm.o(.constdata___ARM__ZN4mbed10parse_pinsEPKc_anon0) for __ARM__ZN4mbed10parse_pinsEPKc_anon0
    Serial.cpp.lpc1768.arm.o(.ARM.exidx) refers to Serial.cpp.lpc1768.arm.o(i._ZN4mbed9parse_argI7PinNameEET_PKcPS4_) for i._ZN4mbed9parse_argI7PinNameEET_PKcPS4_
    Serial.cpp.lpc1768.arm.o(.constdata__ZTIN4mbed6SerialE) refers to lib_rtti_impl.o(.constdata__ZTVN10__cxxabiv120__si_class_type_infoE) for vtable for __cxxabiv1::__si_class_type_info
    Serial.cpp.lpc1768.arm.o(.constdata__ZTIN4mbed6SerialE) refers to Serial.cpp.lpc1768.arm.o(.constdata__ZTSN4mbed6SerialE) for typeinfo name for mbed::Serial
    Serial.cpp.lpc1768.arm.o(.constdata__ZTIN4mbed6SerialE) refers to Stream.cpp.lpc1768.arm.o(.constdata__ZTIN4mbed6StreamE) for typeinfo for mbed::Stream
    Stream.cpp.lpc1768.arm.o(.constdata__ZTVN4mbed6StreamE) refers to Stream.cpp.lpc1768.arm.o(.constdata__ZTIN4mbed6StreamE) for typeinfo for mbed::Stream
    Stream.cpp.lpc1768.arm.o(.constdata__ZTVN4mbed6StreamE) refers to Stream.cpp.lpc1768.arm.o(i._ZN4mbed6StreamD2Ev) for mbed::Stream::~Stream__sub_object()
    Stream.cpp.lpc1768.arm.o(.constdata__ZTVN4mbed6StreamE) refers to Stream.cpp.lpc1768.arm.o(i._ZN4mbed6StreamD0Ev) for mbed::Stream::~Stream__deallocating()
    Stream.cpp.lpc1768.arm.o(.constdata__ZTVN4mbed6StreamE) refers to Base.cpp.lpc1768.arm.o(i._ZN4mbed4Base3rpcEPKcS2_Pc) for mbed::Base::rpc(const char*, const char*, char*)
    Stream.cpp.lpc1768.arm.o(.constdata__ZTVN4mbed6StreamE) refers to Stream.cpp.lpc1768.arm.o(i._ZN4mbed6Stream15get_rpc_methodsEv) for mbed::Stream::get_rpc_methods()
    Stream.cpp.lpc1768.arm.o(.constdata__ZTVN4mbed6StreamE) refers to Stream.cpp.lpc1768.arm.o(i._ZN4mbed6Stream5closeEv) for mbed::Stream::close()
    Stream.cpp.lpc1768.arm.o(.constdata__ZTVN4mbed6StreamE) refers to Stream.cpp.lpc1768.arm.o(i._ZN4mbed6Stream5writeEPKvj) for mbed::Stream::write(const void*, unsigned)
    Stream.cpp.lpc1768.arm.o(.constdata__ZTVN4mbed6StreamE) refers to Stream.cpp.lpc1768.arm.o(i._ZN4mbed6Stream4readEPvj) for mbed::Stream::read(void*, unsigned)
    Stream.cpp.lpc1768.arm.o(.constdata__ZTVN4mbed6StreamE) refers to Stream.cpp.lpc1768.arm.o(i._ZN4mbed6Stream5lseekEli) for mbed::Stream::lseek(long, int)
    Stream.cpp.lpc1768.arm.o(.constdata__ZTVN4mbed6StreamE) refers to Stream.cpp.lpc1768.arm.o(i._ZN4mbed6Stream6isattyEv) for mbed::Stream::isatty()
    Stream.cpp.lpc1768.arm.o(.constdata__ZTVN4mbed6StreamE) refers to Stream.cpp.lpc1768.arm.o(i._ZN4mbed6Stream5fsyncEv) for mbed::Stream::fsync()
    Stream.cpp.lpc1768.arm.o(.constdata__ZTVN4mbed6StreamE) refers to Stream.cpp.lpc1768.arm.o(i._ZN4mbed6Stream4flenEv) for mbed::Stream::flen()
    Stream.cpp.lpc1768.arm.o(.constdata__ZTVN4mbed6StreamE) refers to pure_virt.o(i.__cxa_pure_virtual) for __cxa_pure_virtual
    Stream.cpp.lpc1768.arm.o(.constdata__ZTVN4mbed6StreamE) refers to Stream.cpp.lpc1768.arm.o(i._ZThn16_N4mbed6Stream5writeEPKvj) for thunk{-16} to mbed::Stream::write(const void*, unsigned)
    Stream.cpp.lpc1768.arm.o(.constdata__ZTVN4mbed6StreamE) refers to Stream.cpp.lpc1768.arm.o(i._ZThn16_N4mbed6Stream5closeEv) for thunk{-16} to mbed::Stream::close()
    Stream.cpp.lpc1768.arm.o(.constdata__ZTVN4mbed6StreamE) refers to Stream.cpp.lpc1768.arm.o(i._ZThn16_N4mbed6Stream4readEPvj) for thunk{-16} to mbed::Stream::read(void*, unsigned)
    Stream.cpp.lpc1768.arm.o(.constdata__ZTVN4mbed6StreamE) refers to Stream.cpp.lpc1768.arm.o(i._ZThn16_N4mbed6Stream6isattyEv) for thunk{-16} to mbed::Stream::isatty()
    Stream.cpp.lpc1768.arm.o(.constdata__ZTVN4mbed6StreamE) refers to Stream.cpp.lpc1768.arm.o(i._ZThn16_N4mbed6Stream5lseekEli) for thunk{-16} to mbed::Stream::lseek(long, int)
    Stream.cpp.lpc1768.arm.o(.constdata__ZTVN4mbed6StreamE) refers to Stream.cpp.lpc1768.arm.o(i._ZThn16_N4mbed6Stream5fsyncEv) for thunk{-16} to mbed::Stream::fsync()
    Stream.cpp.lpc1768.arm.o(.constdata__ZTVN4mbed6StreamE) refers to Stream.cpp.lpc1768.arm.o(i._ZThn16_N4mbed6Stream4flenEv) for thunk{-16} to mbed::Stream::flen()
    Stream.cpp.lpc1768.arm.o(t._ZN4mbed17rpc_method_callerIiNS_6StreamEiXadL_ZNS1_4putcEiEEEEvPNS_4BaseEPKcPc) refers to Serial.cpp.lpc1768.arm.o(i._ZN4mbed10parse_charEPKcPS1_) for mbed::parse_char(const char*, const char**)
    Stream.cpp.lpc1768.arm.o(t._ZN4mbed17rpc_method_callerIiNS_6StreamEiXadL_ZNS1_4putcEiEEEEvPNS_4BaseEPKcPc) refers to strtol.o(.text) for strtol
    Stream.cpp.lpc1768.arm.o(t._ZN4mbed17rpc_method_callerIiNS_6StreamEiXadL_ZNS1_4putcEiEEEEvPNS_4BaseEPKcPc) refers to sprintf.o(.text) for sprintf
    Stream.cpp.lpc1768.arm.o(t._ZN4mbed17rpc_method_callerIiNS_6StreamEiXadL_ZNS1_4putcEiEEEEvPNS_4BaseEPKcPc) refers to Stream.cpp.lpc1768.arm.o(.constdata) for .constdata
    Stream.cpp.lpc1768.arm.o(t._ZN4mbed17rpc_method_callerIiNS_6StreamEiXadL_ZNS1_4putcEiEEEEvPNS_4BaseEPKcPc) refers to Serial.cpp.lpc1768.arm.o(.constdata___ARM__ZN4mbed12write_resultIiEEvT_Pc_anon0) for __ARM__ZN4mbed12write_resultIiEEvT_Pc_anon0
    Stream.cpp.lpc1768.arm.o(.ARM.exidx) refers to Stream.cpp.lpc1768.arm.o(t._ZN4mbed17rpc_method_callerIiNS_6StreamEiXadL_ZNS1_4putcEiEEEEvPNS_4BaseEPKcPc) for t._ZN4mbed17rpc_method_callerIiNS_6StreamEiXadL_ZNS1_4putcEiEEEEvPNS_4BaseEPKcPc
    Stream.cpp.lpc1768.arm.o(t._ZN4mbed17rpc_method_callerIiNS_6StreamEXadL_ZNS1_4getcEvEEEEvPNS_4BaseEPKcPc) refers to sprintf.o(.text) for sprintf
    Stream.cpp.lpc1768.arm.o(t._ZN4mbed17rpc_method_callerIiNS_6StreamEXadL_ZNS1_4getcEvEEEEvPNS_4BaseEPKcPc) refers to Stream.cpp.lpc1768.arm.o(.constdata) for .constdata
    Stream.cpp.lpc1768.arm.o(t._ZN4mbed17rpc_method_callerIiNS_6StreamEXadL_ZNS1_4getcEvEEEEvPNS_4BaseEPKcPc) refers to Serial.cpp.lpc1768.arm.o(.constdata___ARM__ZN4mbed12write_resultIiEEvT_Pc_anon0) for __ARM__ZN4mbed12write_resultIiEEvT_Pc_anon0
    Stream.cpp.lpc1768.arm.o(.ARM.exidx) refers to Stream.cpp.lpc1768.arm.o(t._ZN4mbed17rpc_method_callerIiNS_6StreamEXadL_ZNS1_4getcEvEEEEvPNS_4BaseEPKcPc) for t._ZN4mbed17rpc_method_callerIiNS_6StreamEXadL_ZNS1_4getcEvEEEEvPNS_4BaseEPKcPc
    Stream.cpp.lpc1768.arm.o(t._ZN4mbed17rpc_method_callerIiNS_6StreamEPKcXadL_ZNS1_4putsES3_EEEEvPNS_4BaseES3_Pc) refers to array_new.o(i._Znaj) for operator new[] (unsigned)
    Stream.cpp.lpc1768.arm.o(t._ZN4mbed17rpc_method_callerIiNS_6StreamEPKcXadL_ZNS1_4putsES3_EEEEvPNS_4BaseES3_Pc) refers to strtol.o(.text) for strtol
    Stream.cpp.lpc1768.arm.o(t._ZN4mbed17rpc_method_callerIiNS_6StreamEPKcXadL_ZNS1_4putsES3_EEEEvPNS_4BaseES3_Pc) refers to rt_memcpy_v6.o(.text) for __aeabi_memcpy
    Stream.cpp.lpc1768.arm.o(t._ZN4mbed17rpc_method_callerIiNS_6StreamEPKcXadL_ZNS1_4putsES3_EEEEvPNS_4BaseES3_Pc) refers to sprintf.o(.text) for sprintf
    Stream.cpp.lpc1768.arm.o(t._ZN4mbed17rpc_method_callerIiNS_6StreamEPKcXadL_ZNS1_4putsES3_EEEEvPNS_4BaseES3_Pc) refers to aeabi_ctype_def.o(.constdata) for __aeabi_ctype_table_
    Stream.cpp.lpc1768.arm.o(t._ZN4mbed17rpc_method_callerIiNS_6StreamEPKcXadL_ZNS1_4putsES3_EEEEvPNS_4BaseES3_Pc) refers to Stream.cpp.lpc1768.arm.o(.constdata) for .constdata
    Stream.cpp.lpc1768.arm.o(t._ZN4mbed17rpc_method_callerIiNS_6StreamEPKcXadL_ZNS1_4putsES3_EEEEvPNS_4BaseES3_Pc) refers to Serial.cpp.lpc1768.arm.o(.constdata___ARM__ZN4mbed12write_resultIiEEvT_Pc_anon0) for __ARM__ZN4mbed12write_resultIiEEvT_Pc_anon0
    Stream.cpp.lpc1768.arm.o(.ARM.exidx) refers to Stream.cpp.lpc1768.arm.o(t._ZN4mbed17rpc_method_callerIiNS_6StreamEPKcXadL_ZNS1_4putsES3_EEEEvPNS_4BaseES3_Pc) for t._ZN4mbed17rpc_method_callerIiNS_6StreamEPKcXadL_ZNS1_4putsES3_EEEEvPNS_4BaseES3_Pc
    Stream.cpp.lpc1768.arm.o(t._ZN4mbed9rpc_superINS_4BaseEEEPKNS_10rpc_methodEPS1_) refers to Base.cpp.lpc1768.arm.o(i._ZN4mbed4Base15get_rpc_methodsEv) for mbed::Base::get_rpc_methods()
    Stream.cpp.lpc1768.arm.o(.ARM.exidx) refers to Stream.cpp.lpc1768.arm.o(t._ZN4mbed9rpc_superINS_4BaseEEEPKNS_10rpc_methodEPS1_) for t._ZN4mbed9rpc_superINS_4BaseEEEPKNS_10rpc_methodEPS1_
    Stream.cpp.lpc1768.arm.o(i._ZN4mbed6Stream4putcEi) refers to fflush.o(.text) for fflush
    Stream.cpp.lpc1768.arm.o(i._ZN4mbed6Stream4putcEi) refers to fputc.o(i.fputc) for fputc
    Stream.cpp.lpc1768.arm.o(.ARM.exidx) refers to Stream.cpp.lpc1768.arm.o(i._ZN4mbed6Stream4putcEi) for i._ZN4mbed6Stream4putcEi
    Stream.cpp.lpc1768.arm.o(i._ZN4mbed6Stream4putsEPKc) refers to fflush.o(.text) for fflush
    Stream.cpp.lpc1768.arm.o(i._ZN4mbed6Stream4putsEPKc) refers to fputs.o(.text) for fputs
    Stream.cpp.lpc1768.arm.o(.ARM.exidx) refers to Stream.cpp.lpc1768.arm.o(i._ZN4mbed6Stream4putsEPKc) for i._ZN4mbed6Stream4putsEPKc
    Stream.cpp.lpc1768.arm.o(i._ZN4mbed6Stream4getcEv) refers to fflush.o(.text) for fflush
    Stream.cpp.lpc1768.arm.o(i._ZN4mbed6Stream4getcEv) refers to fgetc.o(i.fgetc) for fgetc
    Stream.cpp.lpc1768.arm.o(.ARM.exidx) refers to Stream.cpp.lpc1768.arm.o(i._ZN4mbed6Stream4getcEv) for i._ZN4mbed6Stream4getcEv
    Stream.cpp.lpc1768.arm.o(.constdata__ZTIN4mbed6StreamE) refers to lib_rtti_impl.o(.constdata__ZTVN10__cxxabiv120__si_class_type_infoE) for vtable for __cxxabiv1::__si_class_type_info
    Stream.cpp.lpc1768.arm.o(.constdata__ZTIN4mbed6StreamE) refers to Stream.cpp.lpc1768.arm.o(.constdata__ZTSN4mbed6StreamE) for typeinfo name for mbed::Stream
    Stream.cpp.lpc1768.arm.o(.constdata__ZTIN4mbed6StreamE) refers to stdio.cpp.lpc1768.arm.o(.constdata__ZTIN4mbed8FileLikeE) for typeinfo for mbed::FileLike
    Base.cpp.lpc1768.arm.o(.constdata__ZTVN4mbed4BaseE) refers to Base.cpp.lpc1768.arm.o(.constdata__ZTIN4mbed4BaseE) for typeinfo for mbed::Base
    Base.cpp.lpc1768.arm.o(.constdata__ZTVN4mbed4BaseE) refers to Base.cpp.lpc1768.arm.o(i._ZN4mbed4BaseD1Ev) for mbed::Base::~Base()
    Base.cpp.lpc1768.arm.o(.constdata__ZTVN4mbed4BaseE) refers to Base.cpp.lpc1768.arm.o(i._ZN4mbed4BaseD0Ev) for mbed::Base::~Base__deallocating()
    Base.cpp.lpc1768.arm.o(.constdata__ZTVN4mbed4BaseE) refers to Base.cpp.lpc1768.arm.o(i._ZN4mbed4Base3rpcEPKcS2_Pc) for mbed::Base::rpc(const char*, const char*, char*)
    Base.cpp.lpc1768.arm.o(.constdata__ZTVN4mbed4BaseE) refers to Base.cpp.lpc1768.arm.o(i._ZN4mbed4Base15get_rpc_methodsEv) for mbed::Base::get_rpc_methods()
    Base.cpp.lpc1768.arm.o(t._ZN4mbed17rpc_method_callerINS_4BaseEXadL_ZNS1_11delete_selfEvEEEEvPS1_PKcPc) refers to Base.cpp.lpc1768.arm.o(.constdata) for .constdata
    Base.cpp.lpc1768.arm.o(.ARM.exidx) refers to Base.cpp.lpc1768.arm.o(t._ZN4mbed17rpc_method_callerINS_4BaseEXadL_ZNS1_11delete_selfEvEEEEvPS1_PKcPc) for t._ZN4mbed17rpc_method_callerINS_4BaseEXadL_ZNS1_11delete_selfEvEEEEvPS1_PKcPc
    Base.cpp.lpc1768.arm.o(.constdata__ZTIN4mbed4BaseE) refers to lib_rtti_impl.o(.constdata__ZTVN10__cxxabiv117__class_type_infoE) for vtable for __cxxabiv1::__class_type_info
    Base.cpp.lpc1768.arm.o(.constdata__ZTIN4mbed4BaseE) refers to Base.cpp.lpc1768.arm.o(.constdata__ZTSN4mbed4BaseE) for typeinfo name for mbed::Base
    Base.cpp.lpc1768.arm.o(.constdata__ZTVN4mbed13BaseDirHandleE) refers to Base.cpp.lpc1768.arm.o(.constdata__ZTIN4mbed13BaseDirHandleE) for typeinfo for mbed::BaseDirHandle
    Base.cpp.lpc1768.arm.o(.constdata__ZTVN4mbed13BaseDirHandleE) refers to Base.cpp.lpc1768.arm.o(i._ZN4mbed13BaseDirHandle8closedirEv) for mbed::BaseDirHandle::closedir()
    Base.cpp.lpc1768.arm.o(.constdata__ZTVN4mbed13BaseDirHandleE) refers to Base.cpp.lpc1768.arm.o(i._ZN4mbed13BaseDirHandle7readdirEv) for mbed::BaseDirHandle::readdir()
    Base.cpp.lpc1768.arm.o(.constdata__ZTVN4mbed13BaseDirHandleE) refers to Base.cpp.lpc1768.arm.o(i._ZN4mbed13BaseDirHandle9rewinddirEv) for mbed::BaseDirHandle::rewinddir()
    Base.cpp.lpc1768.arm.o(.constdata__ZTVN4mbed13BaseDirHandleE) refers to Base.cpp.lpc1768.arm.o(i._ZN4mbed13BaseDirHandle7telldirEv) for mbed::BaseDirHandle::telldir()
    Base.cpp.lpc1768.arm.o(.constdata__ZTVN4mbed13BaseDirHandleE) refers to Base.cpp.lpc1768.arm.o(i._ZN4mbed13BaseDirHandle7seekdirEl) for mbed::BaseDirHandle::seekdir(long)
    Base.cpp.lpc1768.arm.o(.constdata__ZTIN4mbed13BaseDirHandleE) refers to lib_rtti_impl.o(.constdata__ZTVN10__cxxabiv120__si_class_type_infoE) for vtable for __cxxabiv1::__si_class_type_info
    Base.cpp.lpc1768.arm.o(.constdata__ZTIN4mbed13BaseDirHandleE) refers to Base.cpp.lpc1768.arm.o(.constdata__ZTSN4mbed13BaseDirHandleE) for typeinfo name for mbed::BaseDirHandle
    Base.cpp.lpc1768.arm.o(.constdata__ZTIN4mbed13BaseDirHandleE) refers to Base.cpp.lpc1768.arm.o(.constdata__ZTIN4mbed9DirHandleE) for typeinfo for mbed::DirHandle
    Base.cpp.lpc1768.arm.o(.constdata__ZTIN4mbed9DirHandleE) refers to lib_rtti_impl.o(.constdata__ZTVN10__cxxabiv117__class_type_infoE) for vtable for __cxxabiv1::__class_type_info
    Base.cpp.lpc1768.arm.o(.constdata__ZTIN4mbed9DirHandleE) refers to Base.cpp.lpc1768.arm.o(.constdata__ZTSN4mbed9DirHandleE) for typeinfo name for mbed::DirHandle
    Base.cpp.lpc1768.arm.o(i._ZN4mbed13BaseDirHandle8closedirEv) refers to delete.o(i._ZdlPv) for operator delete (void*)
    Base.cpp.lpc1768.arm.o(.ARM.exidx) refers to Base.cpp.lpc1768.arm.o(i._ZN4mbed13BaseDirHandle8closedirEv) for i._ZN4mbed13BaseDirHandle8closedirEv
    Base.cpp.lpc1768.arm.o(i._ZN4mbed13BaseDirHandle7readdirEv) refers to rtti.o(i.__dynamic_cast) for __dynamic_cast
    Base.cpp.lpc1768.arm.o(i._ZN4mbed13BaseDirHandle7readdirEv) refers to strncpy.o(.text) for strncpy
    Base.cpp.lpc1768.arm.o(i._ZN4mbed13BaseDirHandle7readdirEv) refers to Base.cpp.lpc1768.arm.o(.data) for .data
    Base.cpp.lpc1768.arm.o(i._ZN4mbed13BaseDirHandle7readdirEv) refers to stdio.cpp.lpc1768.arm.o(.constdata__ZTIN4mbed8FileLikeE) for typeinfo for mbed::FileLike
    Base.cpp.lpc1768.arm.o(i._ZN4mbed13BaseDirHandle7readdirEv) refers to Base.cpp.lpc1768.arm.o(.constdata__ZTIN4mbed4BaseE) for typeinfo for mbed::Base
    Base.cpp.lpc1768.arm.o(i._ZN4mbed13BaseDirHandle7readdirEv) refers to Base.cpp.lpc1768.arm.o(.constdata__ZTIN4mbed14FileSystemLikeE) for typeinfo for mbed::FileSystemLike
    Base.cpp.lpc1768.arm.o(.ARM.exidx) refers to Base.cpp.lpc1768.arm.o(i._ZN4mbed13BaseDirHandle7readdirEv) for i._ZN4mbed13BaseDirHandle7readdirEv
    Base.cpp.lpc1768.arm.o(.ARM.exidx) refers to Base.cpp.lpc1768.arm.o(i._ZN4mbed13BaseDirHandle7telldirEv) for i._ZN4mbed13BaseDirHandle7telldirEv
    Base.cpp.lpc1768.arm.o(.ARM.exidx) refers to Base.cpp.lpc1768.arm.o(i._ZN4mbed13BaseDirHandle7seekdirEl) for i._ZN4mbed13BaseDirHandle7seekdirEl
    Base.cpp.lpc1768.arm.o(.ARM.exidx) refers to Base.cpp.lpc1768.arm.o(i._ZN4mbed13BaseDirHandle9rewinddirEv) for i._ZN4mbed13BaseDirHandle9rewinddirEv
    Base.cpp.lpc1768.arm.o(.constdata__ZTIN4mbed14FileSystemLikeE) refers to lib_rtti_impl.o(.constdata__ZTVN10__cxxabiv120__si_class_type_infoE) for vtable for __cxxabiv1::__si_class_type_info
    Base.cpp.lpc1768.arm.o(.constdata__ZTIN4mbed14FileSystemLikeE) refers to Base.cpp.lpc1768.arm.o(.constdata__ZTSN4mbed14FileSystemLikeE) for typeinfo name for mbed::FileSystemLike
    Base.cpp.lpc1768.arm.o(.constdata__ZTIN4mbed14FileSystemLikeE) refers to Base.cpp.lpc1768.arm.o(.constdata__ZTIN4mbed4BaseE) for typeinfo for mbed::Base
    stdio.cpp.lpc1768.arm.o(.constdata__ZTVN4mbed8FileLikeE) refers to stdio.cpp.lpc1768.arm.o(.constdata__ZTIN4mbed8FileLikeE) for typeinfo for mbed::FileLike
    stdio.cpp.lpc1768.arm.o(.constdata__ZTVN4mbed8FileLikeE) refers to stdio.cpp.lpc1768.arm.o(i._ZN4mbed8FileLikeD2Ev) for mbed::FileLike::~FileLike__sub_object()
    stdio.cpp.lpc1768.arm.o(.constdata__ZTVN4mbed8FileLikeE) refers to stdio.cpp.lpc1768.arm.o(i._ZN4mbed8FileLikeD0Ev) for mbed::FileLike::~FileLike__deallocating()
    stdio.cpp.lpc1768.arm.o(.constdata__ZTVN4mbed8FileLikeE) refers to Base.cpp.lpc1768.arm.o(i._ZN4mbed4Base3rpcEPKcS2_Pc) for mbed::Base::rpc(const char*, const char*, char*)
    stdio.cpp.lpc1768.arm.o(.constdata__ZTVN4mbed8FileLikeE) refers to Base.cpp.lpc1768.arm.o(i._ZN4mbed4Base15get_rpc_methodsEv) for mbed::Base::get_rpc_methods()
    stdio.cpp.lpc1768.arm.o(.constdata__ZTVN4mbed8FileLikeE) refers to pure_virt.o(i.__cxa_pure_virtual) for __cxa_pure_virtual
    stdio.cpp.lpc1768.arm.o(.constdata__ZTVN4mbed8FileLikeE) refers to stdio.cpp.lpc1768.arm.o(i._ZN4mbed10FileHandle4flenEv) for mbed::FileHandle::flen()
    stdio.cpp.lpc1768.arm.o(.ARM.exidx) refers to stdio.cpp.lpc1768.arm.o(i._ZN4mbed10FileHandle4flenEv) for i._ZN4mbed10FileHandle4flenEv
    stdio.cpp.lpc1768.arm.o(.constdata__ZTIN4mbed8FileLikeE) refers to lib_rtti_impl.o(.constdata__ZTVN10__cxxabiv121__vmi_class_type_infoE) for vtable for __cxxabiv1::__vmi_class_type_info
    stdio.cpp.lpc1768.arm.o(.constdata__ZTIN4mbed8FileLikeE) refers to stdio.cpp.lpc1768.arm.o(.constdata__ZTSN4mbed8FileLikeE) for typeinfo name for mbed::FileLike
    stdio.cpp.lpc1768.arm.o(.constdata__ZTIN4mbed8FileLikeE) refers to Base.cpp.lpc1768.arm.o(.constdata__ZTIN4mbed4BaseE) for typeinfo for mbed::Base
    stdio.cpp.lpc1768.arm.o(.constdata__ZTIN4mbed8FileLikeE) refers to stdio.cpp.lpc1768.arm.o(.constdata__ZTIN4mbed10FileHandleE) for typeinfo for mbed::FileHandle
    stdio.cpp.lpc1768.arm.o(.constdata__ZTIN4mbed10FileHandleE) refers to lib_rtti_impl.o(.constdata__ZTVN10__cxxabiv117__class_type_infoE) for vtable for __cxxabiv1::__class_type_info
    stdio.cpp.lpc1768.arm.o(.constdata__ZTIN4mbed10FileHandleE) refers to stdio.cpp.lpc1768.arm.o(.constdata__ZTSN4mbed10FileHandleE) for typeinfo name for mbed::FileHandle
    rtti.o(i.__ARM_common_get_typeid) refers to arm_bad_typeid_noexceptions.o(.text) for __cxa_bad_typeid
    rtti.o(.ARM.exidx) refers to rtti.o(i.__ARM_common_get_typeid) for i.__ARM_common_get_typeid
    rtti.o(.ARM.exidx) refers to unwind_pr0.o(.text) for __aeabi_unwind_cpp_pr0
    lib_rtti_impl.o(.constdata__ZTVN10__cxxabiv123__fundamental_type_infoE) refers to lib_rtti_impl.o(.constdata__ZTIN10__cxxabiv123__fundamental_type_infoE) for typeinfo for __cxxabiv1::__fundamental_type_info
    lib_rtti_impl.o(.constdata__ZTVN10__cxxabiv123__fundamental_type_infoE) refers to lib_rtti_impl.o(i._ZN10__cxxabiv123__fundamental_type_infoD1Ev) for __cxxabiv1::__fundamental_type_info::~__fundamental_type_info()
    lib_rtti_impl.o(.constdata__ZTVN10__cxxabiv123__fundamental_type_infoE) refers to lib_rtti_impl.o(i._ZN10__cxxabiv123__fundamental_type_infoD0Ev) for __cxxabiv1::__fundamental_type_info::~__fundamental_type_info__deallocating()
    lib_rtti_impl.o(.constdata__ZTVN10__cxxabiv117__array_type_infoE) refers to lib_rtti_impl.o(.constdata__ZTIN10__cxxabiv117__array_type_infoE) for typeinfo for __cxxabiv1::__array_type_info
    lib_rtti_impl.o(.constdata__ZTVN10__cxxabiv117__array_type_infoE) refers to lib_rtti_impl.o(i._ZN10__cxxabiv117__array_type_infoD1Ev) for __cxxabiv1::__array_type_info::~__array_type_info()
    lib_rtti_impl.o(.constdata__ZTVN10__cxxabiv117__array_type_infoE) refers to lib_rtti_impl.o(i._ZN10__cxxabiv117__array_type_infoD0Ev) for __cxxabiv1::__array_type_info::~__array_type_info__deallocating()
    lib_rtti_impl.o(.constdata__ZTVN10__cxxabiv120__function_type_infoE) refers to lib_rtti_impl.o(.constdata__ZTIN10__cxxabiv120__function_type_infoE) for typeinfo for __cxxabiv1::__function_type_info
    lib_rtti_impl.o(.constdata__ZTVN10__cxxabiv120__function_type_infoE) refers to lib_rtti_impl.o(i._ZN10__cxxabiv120__function_type_infoD1Ev) for __cxxabiv1::__function_type_info::~__function_type_info()
    lib_rtti_impl.o(.constdata__ZTVN10__cxxabiv120__function_type_infoE) refers to lib_rtti_impl.o(i._ZN10__cxxabiv120__function_type_infoD0Ev) for __cxxabiv1::__function_type_info::~__function_type_info__deallocating()
    lib_rtti_impl.o(.constdata__ZTVN10__cxxabiv116__enum_type_infoE) refers to lib_rtti_impl.o(.constdata__ZTIN10__cxxabiv116__enum_type_infoE) for typeinfo for __cxxabiv1::__enum_type_info
    lib_rtti_impl.o(.constdata__ZTVN10__cxxabiv116__enum_type_infoE) refers to lib_rtti_impl.o(i._ZN10__cxxabiv116__enum_type_infoD1Ev) for __cxxabiv1::__enum_type_info::~__enum_type_info()
    lib_rtti_impl.o(.constdata__ZTVN10__cxxabiv116__enum_type_infoE) refers to lib_rtti_impl.o(i._ZN10__cxxabiv116__enum_type_infoD0Ev) for __cxxabiv1::__enum_type_info::~__enum_type_info__deallocating()
    lib_rtti_impl.o(.constdata__ZTVN10__cxxabiv117__class_type_infoE) refers to lib_rtti_impl.o(.constdata__ZTIN10__cxxabiv117__class_type_infoE) for typeinfo for __cxxabiv1::__class_type_info
    lib_rtti_impl.o(.constdata__ZTVN10__cxxabiv117__class_type_infoE) refers to lib_rtti_impl.o(i._ZN10__cxxabiv117__class_type_infoD1Ev) for __cxxabiv1::__class_type_info::~__class_type_info()
    lib_rtti_impl.o(.constdata__ZTVN10__cxxabiv117__class_type_infoE) refers to lib_rtti_impl.o(i._ZN10__cxxabiv117__class_type_infoD0Ev) for __cxxabiv1::__class_type_info::~__class_type_info__deallocating()
    lib_rtti_impl.o(.constdata__ZTVN10__cxxabiv120__si_class_type_infoE) refers to lib_rtti_impl.o(.constdata__ZTIN10__cxxabiv120__si_class_type_infoE) for typeinfo for __cxxabiv1::__si_class_type_info
    lib_rtti_impl.o(.constdata__ZTVN10__cxxabiv120__si_class_type_infoE) refers to lib_rtti_impl.o(i._ZN10__cxxabiv120__si_class_type_infoD1Ev) for __cxxabiv1::__si_class_type_info::~__si_class_type_info()
    lib_rtti_impl.o(.constdata__ZTVN10__cxxabiv120__si_class_type_infoE) refers to lib_rtti_impl.o(i._ZN10__cxxabiv120__si_class_type_infoD0Ev) for __cxxabiv1::__si_class_type_info::~__si_class_type_info__deallocating()
    lib_rtti_impl.o(.constdata__ZTVN10__cxxabiv121__vmi_class_type_infoE) refers to lib_rtti_impl.o(.constdata__ZTIN10__cxxabiv121__vmi_class_type_infoE) for typeinfo for __cxxabiv1::__vmi_class_type_info
    lib_rtti_impl.o(.constdata__ZTVN10__cxxabiv121__vmi_class_type_infoE) refers to lib_rtti_impl.o(i._ZN10__cxxabiv121__vmi_class_type_infoD1Ev) for __cxxabiv1::__vmi_class_type_info::~__vmi_class_type_info()
    lib_rtti_impl.o(.constdata__ZTVN10__cxxabiv121__vmi_class_type_infoE) refers to lib_rtti_impl.o(i._ZN10__cxxabiv121__vmi_class_type_infoD0Ev) for __cxxabiv1::__vmi_class_type_info::~__vmi_class_type_info__deallocating()
    lib_rtti_impl.o(.constdata__ZTVN10__cxxabiv117__pbase_type_infoE) refers to lib_rtti_impl.o(.constdata__ZTIN10__cxxabiv117__pbase_type_infoE) for typeinfo for __cxxabiv1::__pbase_type_info
    lib_rtti_impl.o(.constdata__ZTVN10__cxxabiv117__pbase_type_infoE) refers to lib_rtti_impl.o(i._ZN10__cxxabiv117__pbase_type_infoD1Ev) for __cxxabiv1::__pbase_type_info::~__pbase_type_info()
    lib_rtti_impl.o(.constdata__ZTVN10__cxxabiv117__pbase_type_infoE) refers to lib_rtti_impl.o(i._ZN10__cxxabiv117__pbase_type_infoD0Ev) for __cxxabiv1::__pbase_type_info::~__pbase_type_info__deallocating()
    lib_rtti_impl.o(.constdata__ZTVN10__cxxabiv119__pointer_type_infoE) refers to lib_rtti_impl.o(.constdata__ZTIN10__cxxabiv119__pointer_type_infoE) for typeinfo for __cxxabiv1::__pointer_type_info
    lib_rtti_impl.o(.constdata__ZTVN10__cxxabiv119__pointer_type_infoE) refers to lib_rtti_impl.o(i._ZN10__cxxabiv119__pointer_type_infoD1Ev) for __cxxabiv1::__pointer_type_info::~__pointer_type_info()
    lib_rtti_impl.o(.constdata__ZTVN10__cxxabiv119__pointer_type_infoE) refers to lib_rtti_impl.o(i._ZN10__cxxabiv119__pointer_type_infoD0Ev) for __cxxabiv1::__pointer_type_info::~__pointer_type_info__deallocating()
    lib_rtti_impl.o(.constdata__ZTVN10__cxxabiv129__pointer_to_member_type_infoE) refers to lib_rtti_impl.o(.constdata__ZTIN10__cxxabiv129__pointer_to_member_type_infoE) for typeinfo for __cxxabiv1::__pointer_to_member_type_info
    lib_rtti_impl.o(.constdata__ZTVN10__cxxabiv129__pointer_to_member_type_infoE) refers to lib_rtti_impl.o(i._ZN10__cxxabiv129__pointer_to_member_type_infoD1Ev) for __cxxabiv1::__pointer_to_member_type_info::~__pointer_to_member_type_info()
    lib_rtti_impl.o(.constdata__ZTVN10__cxxabiv129__pointer_to_member_type_infoE) refers to lib_rtti_impl.o(i._ZN10__cxxabiv129__pointer_to_member_type_infoD0Ev) for __cxxabiv1::__pointer_to_member_type_info::~__pointer_to_member_type_info__deallocating()
    lib_rtti_impl.o(.ARM.exidx) refers to lib_rtti_impl.o(i._ZNSt9type_infodlEPv) for i._ZNSt9type_infodlEPv
    lib_rtti_impl.o(.constdata__ZTIN10__cxxabiv123__fundamental_type_infoE) refers to lib_rtti_impl.o(.constdata__ZTVN10__cxxabiv120__si_class_type_infoE) for vtable for __cxxabiv1::__si_class_type_info
    lib_rtti_impl.o(.constdata__ZTIN10__cxxabiv123__fundamental_type_infoE) refers to lib_rtti_impl.o(.constdata__ZTSN10__cxxabiv123__fundamental_type_infoE) for typeinfo name for __cxxabiv1::__fundamental_type_info
    lib_rtti_impl.o(.constdata__ZTIN10__cxxabiv123__fundamental_type_infoE) refers to type_info_dtor.o(.constdata__ZTISt9type_info) for typeinfo for std::type_info
    lib_rtti_impl.o(.constdata__ZTIN10__cxxabiv117__array_type_infoE) refers to lib_rtti_impl.o(.constdata__ZTVN10__cxxabiv120__si_class_type_infoE) for vtable for __cxxabiv1::__si_class_type_info
    lib_rtti_impl.o(.constdata__ZTIN10__cxxabiv117__array_type_infoE) refers to lib_rtti_impl.o(.constdata__ZTSN10__cxxabiv117__array_type_infoE) for typeinfo name for __cxxabiv1::__array_type_info
    lib_rtti_impl.o(.constdata__ZTIN10__cxxabiv117__array_type_infoE) refers to type_info_dtor.o(.constdata__ZTISt9type_info) for typeinfo for std::type_info
    lib_rtti_impl.o(.constdata__ZTIN10__cxxabiv120__function_type_infoE) refers to lib_rtti_impl.o(.constdata__ZTVN10__cxxabiv120__si_class_type_infoE) for vtable for __cxxabiv1::__si_class_type_info
    lib_rtti_impl.o(.constdata__ZTIN10__cxxabiv120__function_type_infoE) refers to lib_rtti_impl.o(.constdata__ZTSN10__cxxabiv120__function_type_infoE) for typeinfo name for __cxxabiv1::__function_type_info
    lib_rtti_impl.o(.constdata__ZTIN10__cxxabiv120__function_type_infoE) refers to type_info_dtor.o(.constdata__ZTISt9type_info) for typeinfo for std::type_info
    lib_rtti_impl.o(.constdata__ZTIN10__cxxabiv116__enum_type_infoE) refers to lib_rtti_impl.o(.constdata__ZTVN10__cxxabiv120__si_class_type_infoE) for vtable for __cxxabiv1::__si_class_type_info
    lib_rtti_impl.o(.constdata__ZTIN10__cxxabiv116__enum_type_infoE) refers to lib_rtti_impl.o(.constdata__ZTSN10__cxxabiv116__enum_type_infoE) for typeinfo name for __cxxabiv1::__enum_type_info
    lib_rtti_impl.o(.constdata__ZTIN10__cxxabiv116__enum_type_infoE) refers to type_info_dtor.o(.constdata__ZTISt9type_info) for typeinfo for std::type_info
    lib_rtti_impl.o(.constdata__ZTIN10__cxxabiv117__class_type_infoE) refers to lib_rtti_impl.o(.constdata__ZTVN10__cxxabiv120__si_class_type_infoE) for vtable for __cxxabiv1::__si_class_type_info
    lib_rtti_impl.o(.constdata__ZTIN10__cxxabiv117__class_type_infoE) refers to lib_rtti_impl.o(.constdata__ZTSN10__cxxabiv117__class_type_infoE) for typeinfo name for __cxxabiv1::__class_type_info
    lib_rtti_impl.o(.constdata__ZTIN10__cxxabiv117__class_type_infoE) refers to type_info_dtor.o(.constdata__ZTISt9type_info) for typeinfo for std::type_info
    lib_rtti_impl.o(.constdata__ZTIN10__cxxabiv120__si_class_type_infoE) refers to lib_rtti_impl.o(.constdata__ZTVN10__cxxabiv120__si_class_type_infoE) for vtable for __cxxabiv1::__si_class_type_info
    lib_rtti_impl.o(.constdata__ZTIN10__cxxabiv120__si_class_type_infoE) refers to lib_rtti_impl.o(.constdata__ZTSN10__cxxabiv120__si_class_type_infoE) for typeinfo name for __cxxabiv1::__si_class_type_info
    lib_rtti_impl.o(.constdata__ZTIN10__cxxabiv120__si_class_type_infoE) refers to lib_rtti_impl.o(.constdata__ZTIN10__cxxabiv117__class_type_infoE) for typeinfo for __cxxabiv1::__class_type_info
    lib_rtti_impl.o(.constdata__ZTIN10__cxxabiv121__vmi_class_type_infoE) refers to lib_rtti_impl.o(.constdata__ZTVN10__cxxabiv120__si_class_type_infoE) for vtable for __cxxabiv1::__si_class_type_info
    lib_rtti_impl.o(.constdata__ZTIN10__cxxabiv121__vmi_class_type_infoE) refers to lib_rtti_impl.o(.constdata__ZTSN10__cxxabiv121__vmi_class_type_infoE) for typeinfo name for __cxxabiv1::__vmi_class_type_info
    lib_rtti_impl.o(.constdata__ZTIN10__cxxabiv121__vmi_class_type_infoE) refers to lib_rtti_impl.o(.constdata__ZTIN10__cxxabiv117__class_type_infoE) for typeinfo for __cxxabiv1::__class_type_info
    lib_rtti_impl.o(.constdata__ZTIN10__cxxabiv117__pbase_type_infoE) refers to lib_rtti_impl.o(.constdata__ZTVN10__cxxabiv120__si_class_type_infoE) for vtable for __cxxabiv1::__si_class_type_info
    lib_rtti_impl.o(.constdata__ZTIN10__cxxabiv117__pbase_type_infoE) refers to lib_rtti_impl.o(.constdata__ZTSN10__cxxabiv117__pbase_type_infoE) for typeinfo name for __cxxabiv1::__pbase_type_info
    lib_rtti_impl.o(.constdata__ZTIN10__cxxabiv117__pbase_type_infoE) refers to type_info_dtor.o(.constdata__ZTISt9type_info) for typeinfo for std::type_info
    lib_rtti_impl.o(.constdata__ZTIN10__cxxabiv119__pointer_type_infoE) refers to lib_rtti_impl.o(.constdata__ZTVN10__cxxabiv120__si_class_type_infoE) for vtable for __cxxabiv1::__si_class_type_info
    lib_rtti_impl.o(.constdata__ZTIN10__cxxabiv119__pointer_type_infoE) refers to lib_rtti_impl.o(.constdata__ZTSN10__cxxabiv119__pointer_type_infoE) for typeinfo name for __cxxabiv1::__pointer_type_info
    lib_rtti_impl.o(.constdata__ZTIN10__cxxabiv119__pointer_type_infoE) refers to lib_rtti_impl.o(.constdata__ZTIN10__cxxabiv117__pbase_type_infoE) for typeinfo for __cxxabiv1::__pbase_type_info
    lib_rtti_impl.o(.constdata__ZTIN10__cxxabiv129__pointer_to_member_type_infoE) refers to lib_rtti_impl.o(.constdata__ZTVN10__cxxabiv120__si_class_type_infoE) for vtable for __cxxabiv1::__si_class_type_info
    lib_rtti_impl.o(.constdata__ZTIN10__cxxabiv129__pointer_to_member_type_infoE) refers to lib_rtti_impl.o(.constdata__ZTSN10__cxxabiv129__pointer_to_member_type_infoE) for typeinfo name for __cxxabiv1::__pointer_to_member_type_info
    lib_rtti_impl.o(.constdata__ZTIN10__cxxabiv129__pointer_to_member_type_infoE) refers to lib_rtti_impl.o(.constdata__ZTIN10__cxxabiv117__pbase_type_infoE) for typeinfo for __cxxabiv1::__pbase_type_info
    rwstdexcept.o(.constdata__ZTVSt8messagesIcE) refers to rwstdexcept.o(.constdata__ZTISt8messagesIcE) for typeinfo for std::messages<char>
    rwstdexcept.o(.constdata__ZTVSt8messagesIcE) refers to rwstdexcept.o(i._ZNSt8messagesIcED1Ev) for std::messages<char>::~messages()
    rwstdexcept.o(.constdata__ZTVSt8messagesIcE) refers to rwstdexcept.o(i._ZNSt8messagesIcED0Ev) for std::messages<char>::~messages__deallocating()
    rwstdexcept.o(.constdata__ZTVSt8messagesIcE) refers to char.o(i._ZN4__rw15__rw_facet_base12_C_initfacetERKSt6locale) for __rw::__rw_facet_base::_C_initfacet(const std::locale&)
    rwstdexcept.o(.constdata__ZTVSt8messagesIcE) refers to rwstdexcept.o(t._ZNKSt8messagesIcE7do_openERKSsRKSt6locale) for std::messages<char>::do_open(const std::basic_string<char, std::char_traits<char>, std::allocator<char>>&, const std::locale&) const
    rwstdexcept.o(.constdata__ZTVSt8messagesIcE) refers to rwstdexcept.o(t._ZNKSt8messagesIcE6do_getEiiiRKSs) for std::messages<char>::do_get(int, int, int, const std::basic_string<char, std::char_traits<char>, std::allocator<char>>&) const
    rwstdexcept.o(.constdata__ZTVSt8messagesIcE) refers to rwstdexcept.o(t._ZNKSt8messagesIcE8do_closeEi) for std::messages<char>::do_close(int) const
    rwstdexcept.o(t._ZNKSt8messagesIcE6do_getEiiiRKSs) refers to messages.o(i._ZNKSt18__rw_messages_base14_C_get_messageEiii) for std::__rw_messages_base::_C_get_message(int, int, int) const
    rwstdexcept.o(t._ZNKSt8messagesIcE6do_getEiiiRKSs) refers to messages.o(i._ZNKSt18__rw_messages_base13_C_get_localeEi) for std::__rw_messages_base::_C_get_locale(int) const
    rwstdexcept.o(t._ZNKSt8messagesIcE6do_getEiiiRKSs) refers to locale.o(i._ZNKSt6locale13_C_make_facetERKNS_2idEbiPFPN4__rw15__rw_facet_baseEiPKcjE) for std::locale::_C_make_facet(const std::locale::id&, bool, int, __rw::__rw_facet_base*(*)(int, const char*, unsigned)) const
    rwstdexcept.o(t._ZNKSt8messagesIcE6do_getEiiiRKSs) refers to locale.o(t._ZNSsC1EPKcRKSaIcE) for std::basic_string<char, std::char_traits<char>, std::allocator<char>>::basic_string(const char*, const std::allocator<char>&)
    rwstdexcept.o(t._ZNKSt8messagesIcE6do_getEiiiRKSs) refers to char.o(t._ZNSsC1ERKSs) for std::basic_string<char, std::char_traits<char>, std::allocator<char>>::basic_string(const std::basic_string<char, std::char_traits<char>, std::allocator<char>>&)
    rwstdexcept.o(t._ZNKSt8messagesIcE6do_getEiiiRKSs) refers to char.o(t._ZNSsD1Ev) for std::basic_string<char, std::char_traits<char>, std::allocator<char>>::~basic_string()
    rwstdexcept.o(t._ZNKSt8messagesIcE6do_getEiiiRKSs) refers to char.o(.data) for std::ctype<char>::id
    rwstdexcept.o(t._ZNKSt8messagesIcE6do_getEiiiRKSs) refers to rwstdexcept.o(t._ZN4__rw16__rw_facet_makerISt5ctypeIcEE13_C_maker_funcEiPKcj) for __rw::__rw_facet_maker<std::ctype<char>>::_C_maker_func(int, const char*, unsigned)
    rwstdexcept.o(t._ZNKSt8messagesIcE6do_getEiiiRKSs.clean) refers to char.o(t._ZNSsD1Ev) for std::basic_string<char, std::char_traits<char>, std::allocator<char>>::~basic_string()
    rwstdexcept.o(t._ZNKSt8messagesIcE6do_getEiiiRKSs.clean) refers to arm_exceptions_cleanup.o(.emb_text) for __cxa_end_cleanup
    rwstdexcept.o(.ARM.extab) refers to rwstdexcept.o(t._ZNKSt8messagesIcE6do_getEiiiRKSs.clean) for t._ZNKSt8messagesIcE6do_getEiiiRKSs.clean
    rwstdexcept.o(.ARM.exidx) refers to rwstdexcept.o(t._ZNKSt8messagesIcE6do_getEiiiRKSs) for t._ZNKSt8messagesIcE6do_getEiiiRKSs
    rwstdexcept.o(.ARM.exidx) refers to unwind_pr0.o(.text) for __aeabi_unwind_cpp_pr0
    rwstdexcept.o(.ARM.exidx) refers to rwstdexcept.o(.ARM.extab) for .extab._ZNKSt8messagesIcE6do_getEiiiRKSs
    rwstdexcept.o(.ARM.exidx) refers to rwstdexcept.o(t._ZNKSt8messagesIcE6do_getEiiiRKSs.clean) for t._ZNKSt8messagesIcE6do_getEiiiRKSs.clean
    rwstdexcept.o(i._ZNSt8messagesIcED1Ev) refers to rwstdexcept.o(i._ZNSt18__rw_messages_baseD1Ev) for std::__rw_messages_base::~__rw_messages_base()
    rwstdexcept.o(.ARM.exidx) refers to rwstdexcept.o(i._ZNSt8messagesIcED1Ev) for i._ZNSt8messagesIcED1Ev
    rwstdexcept.o(.ARM.exidx) refers to rwstdexcept.o(i._ZdlPvS_) for i._ZdlPvS_
    rwstdexcept.o(i._ZNSt6localeC1Ev) refers to locale.o(i._ZNSt6locale7_C_initEv) for std::locale::_C_init()
    rwstdexcept.o(i._ZNSt6localeC1Ev) refers to locale.o(.data) for std::locale::_C_global
    rwstdexcept.o(.ARM.extab) refers to arm_callunex_noexceptions.o(.text) for __cxa_call_unexpected
    rwstdexcept.o(.ARM.exidx) refers to rwstdexcept.o(i._ZNSt6localeC1Ev) for i._ZNSt6localeC1Ev
    rwstdexcept.o(.ARM.exidx) refers to unwind_pr0.o(.text) for __aeabi_unwind_cpp_pr0
    rwstdexcept.o(.ARM.exidx) refers to rwstdexcept.o(.ARM.extab) for .extab._ZNSt6localeC1Ev
    rwstdexcept.o(i._ZNSt18__rw_messages_baseD1Ev) refers to char.o(t._ZNSsD1Ev) for std::basic_string<char, std::char_traits<char>, std::allocator<char>>::~basic_string()
    rwstdexcept.o(.ARM.exidx) refers to rwstdexcept.o(i._ZNSt18__rw_messages_baseD1Ev) for i._ZNSt18__rw_messages_baseD1Ev
    rwstdexcept.o(i._ZNSt14__rw_exceptionC1Ev) refers to exception_ctor.o(i._ZNSt9exceptionC1Ev) for std::exception::exception()
    rwstdexcept.o(i._ZNSt14__rw_exceptionC1Ev) refers to rwstdexcept.o(.constdata__ZTVSt14__rw_exception) for vtable for std::__rw_exception
    rwstdexcept.o(.ARM.exidx) refers to rwstdexcept.o(i._ZNSt14__rw_exceptionC1Ev) for i._ZNSt14__rw_exceptionC1Ev
    rwstdexcept.o(t._ZNKSt8messagesIcE7do_openERKSsRKSt6locale) refers to messages.o(i._ZNKSt18__rw_messages_base11_C_cat_openERKSsRKSt6locale) for std::__rw_messages_base::_C_cat_open(const std::basic_string<char, std::char_traits<char>, std::allocator<char>>&, const std::locale&) const
    rwstdexcept.o(.ARM.exidx) refers to rwstdexcept.o(t._ZNKSt8messagesIcE7do_openERKSsRKSt6locale) for t._ZNKSt8messagesIcE7do_openERKSsRKSt6locale
    rwstdexcept.o(t._ZN4__rw16__rw_facet_makerISt5ctypeIcEE13_C_maker_funcEiPKcj) refers to new.o(i._Znwj) for operator new(unsigned)
    rwstdexcept.o(t._ZN4__rw16__rw_facet_makerISt5ctypeIcEE13_C_maker_funcEiPKcj) refers to char.o(i._ZNSt12ctype_bynameIcEC1EPKcj) for std::ctype_byname<char>::ctype_byname(const char*, unsigned)
    rwstdexcept.o(t._ZN4__rw16__rw_facet_makerISt5ctypeIcEE13_C_maker_funcEiPKcj) refers to char.o(i._ZNSt5ctypeIcEC1EPKNSt10ctype_base4maskEbj) for std::ctype<char>::ctype(const std::ctype_base::mask*, bool, unsigned)
    rwstdexcept.o(t._ZN4__rw16__rw_facet_makerISt5ctypeIcEE13_C_maker_funcEiPKcj.clean) refers to delete.o(i._ZdlPv) for operator delete (void*)
    rwstdexcept.o(t._ZN4__rw16__rw_facet_makerISt5ctypeIcEE13_C_maker_funcEiPKcj.clean) refers to arm_exceptions_cleanup.o(.emb_text) for __cxa_end_cleanup
    rwstdexcept.o(.ARM.extab) refers to rwstdexcept.o(t._ZN4__rw16__rw_facet_makerISt5ctypeIcEE13_C_maker_funcEiPKcj.clean) for t._ZN4__rw16__rw_facet_makerISt5ctypeIcEE13_C_maker_funcEiPKcj.clean
    rwstdexcept.o(.ARM.exidx) refers to rwstdexcept.o(t._ZN4__rw16__rw_facet_makerISt5ctypeIcEE13_C_maker_funcEiPKcj) for t._ZN4__rw16__rw_facet_makerISt5ctypeIcEE13_C_maker_funcEiPKcj
    rwstdexcept.o(.ARM.exidx) refers to unwind_pr0.o(.text) for __aeabi_unwind_cpp_pr0
    rwstdexcept.o(.ARM.exidx) refers to rwstdexcept.o(.ARM.extab) for .extab._ZN4__rw16__rw_facet_makerISt5ctypeIcEE13_C_maker_funcEiPKcj
    rwstdexcept.o(.ARM.exidx) refers to rwstdexcept.o(t._ZN4__rw16__rw_facet_makerISt5ctypeIcEE13_C_maker_funcEiPKcj.clean) for t._ZN4__rw16__rw_facet_makerISt5ctypeIcEE13_C_maker_funcEiPKcj.clean
    rwstdexcept.o(t._ZNKSt8messagesIcE8do_closeEi) refers to messages.o(i._ZNKSt18__rw_messages_base12_C_cat_closeEi) for std::__rw_messages_base::_C_cat_close(int) const
    rwstdexcept.o(.ARM.exidx) refers to rwstdexcept.o(t._ZNKSt8messagesIcE8do_closeEi) for t._ZNKSt8messagesIcE8do_closeEi
    rwstdexcept.o(i._ZNSt8messagesIcED0Ev) refers to rwstdexcept.o(i._ZNSt8messagesIcED1Ev) for std::messages<char>::~messages()
    rwstdexcept.o(i._ZNSt8messagesIcED0Ev) refers to delete.o(i._ZdlPv) for operator delete (void*)
    rwstdexcept.o(.ARM.exidx) refers to rwstdexcept.o(i._ZNSt8messagesIcED0Ev) for i._ZNSt8messagesIcED0Ev
    rwstdexcept.o(.constdata__ZTVNSt6locale5facetE) refers to char.o(.constdata__ZTINSt6locale5facetE) for typeinfo for std::locale::facet
    rwstdexcept.o(.constdata__ZTVNSt6locale5facetE) refers to char.o(i._ZNSt6locale5facetD1Ev) for std::locale::facet::~facet()
    rwstdexcept.o(.constdata__ZTVNSt6locale5facetE) refers to rwstdexcept.o(i._ZNSt6locale5facetD0Ev) for std::locale::facet::~facet__deallocating()
    rwstdexcept.o(.constdata__ZTVNSt6locale5facetE) refers to char.o(i._ZN4__rw15__rw_facet_base12_C_initfacetERKSt6locale) for __rw::__rw_facet_base::_C_initfacet(const std::locale&)
    rwstdexcept.o(.constdata__ZTVSt14__rw_exception) refers to rwstdexcept.o(.constdata__ZTISt14__rw_exception) for typeinfo for std::__rw_exception
    rwstdexcept.o(.constdata__ZTVSt14__rw_exception) refers to rwstdexcept.o(i._ZNSt14__rw_exceptionD1Ev) for std::__rw_exception::~__rw_exception()
    rwstdexcept.o(.constdata__ZTVSt14__rw_exception) refers to rwstdexcept.o(i._ZNSt14__rw_exceptionD0Ev) for std::__rw_exception::~__rw_exception__deallocating()
    rwstdexcept.o(.constdata__ZTVSt14__rw_exception) refers to rwstdexcept.o(i._ZNKSt14__rw_exception4whatEv) for std::__rw_exception::what() const
    rwstdexcept.o(.constdata__ZTISt8messagesIcE) refers to lib_rtti_impl.o(.constdata__ZTVN10__cxxabiv121__vmi_class_type_infoE) for vtable for __cxxabiv1::__vmi_class_type_info
    rwstdexcept.o(.constdata__ZTISt8messagesIcE) refers to rwstdexcept.o(.constdata__ZTSSt8messagesIcE) for typeinfo name for std::messages<char>
    rwstdexcept.o(.constdata__ZTISt8messagesIcE) refers to char.o(.constdata__ZTINSt6locale5facetE) for typeinfo for std::locale::facet
    rwstdexcept.o(.constdata__ZTISt8messagesIcE) refers to rwstdexcept.o(.constdata__ZTISt18__rw_messages_base) for typeinfo for std::__rw_messages_base
    rwstdexcept.o(.constdata__ZTISt14__rw_exception) refers to lib_rtti_impl.o(.constdata__ZTVN10__cxxabiv120__si_class_type_infoE) for vtable for __cxxabiv1::__si_class_type_info
    rwstdexcept.o(.constdata__ZTISt14__rw_exception) refers to rwstdexcept.o(.constdata__ZTSSt14__rw_exception) for typeinfo name for std::__rw_exception
    rwstdexcept.o(.constdata__ZTISt14__rw_exception) refers to exception_dtor.o(.constdata__ZTISt9exception) for typeinfo for std::exception
    rwstdexcept.o(.constdata__ZTISt18__rw_messages_base) refers to lib_rtti_impl.o(.constdata__ZTVN10__cxxabiv120__si_class_type_infoE) for vtable for __cxxabiv1::__si_class_type_info
    rwstdexcept.o(.constdata__ZTISt18__rw_messages_base) refers to rwstdexcept.o(.constdata__ZTSSt18__rw_messages_base) for typeinfo name for std::__rw_messages_base
    rwstdexcept.o(.constdata__ZTISt18__rw_messages_base) refers to rwstdexcept.o(.constdata__ZTISt13messages_base) for typeinfo for std::messages_base
    rwstdexcept.o(.constdata__ZTISt13messages_base) refers to lib_rtti_impl.o(.constdata__ZTVN10__cxxabiv117__class_type_infoE) for vtable for __cxxabiv1::__class_type_info
    rwstdexcept.o(.constdata__ZTISt13messages_base) refers to rwstdexcept.o(.constdata__ZTSSt13messages_base) for typeinfo name for std::messages_base
    rwstdexcept.o(i._ZNSt6locale5facetD0Ev) refers to delete.o(i._ZdlPv) for operator delete (void*)
    rwstdexcept.o(.ARM.exidx) refers to rwstdexcept.o(i._ZNSt6locale5facetD0Ev) for i._ZNSt6locale5facetD0Ev
    rwstdexcept.o(i._ZNSt14__rw_exceptionD1Ev) refers to array_del.o(i._ZdaPv) for operator delete[] (void*)
    rwstdexcept.o(i._ZNSt14__rw_exceptionD1Ev) refers to rwstdexcept.o(.constdata__ZTVSt14__rw_exception) for vtable for std::__rw_exception
    rwstdexcept.o(.ARM.exidx) refers to rwstdexcept.o(i._ZNSt14__rw_exceptionD1Ev) for i._ZNSt14__rw_exceptionD1Ev
    rwstdexcept.o(i._ZNSt14__rw_exceptionD0Ev) refers to rwstdexcept.o(i._ZNSt14__rw_exceptionD1Ev) for std::__rw_exception::~__rw_exception()
    rwstdexcept.o(i._ZNSt14__rw_exceptionD0Ev) refers to delete.o(i._ZdlPv) for operator delete (void*)
    rwstdexcept.o(.ARM.exidx) refers to rwstdexcept.o(i._ZNSt14__rw_exceptionD0Ev) for i._ZNSt14__rw_exceptionD0Ev
    rwstdexcept.o(.ARM.exidx) refers to rwstdexcept.o(i._ZNKSt14__rw_exception4whatEv) for i._ZNKSt14__rw_exception4whatEv
    bad_alloc_dtor.o(.constdata__ZTVSt9bad_alloc) refers to bad_alloc_dtor.o(.constdata__ZTISt9bad_alloc) for typeinfo for std::bad_alloc
    bad_alloc_dtor.o(.constdata__ZTVSt9bad_alloc) refers to bad_alloc_dtor.o(i._ZNSt9bad_allocD1Ev) for std::bad_alloc::~bad_alloc()
    bad_alloc_dtor.o(.constdata__ZTVSt9bad_alloc) refers to bad_alloc_dtor.o(i._ZNSt9bad_allocD0Ev) for std::bad_alloc::~bad_alloc__deallocating()
    bad_alloc_dtor.o(.constdata__ZTVSt9bad_alloc) refers to bad_alloc_what.o(i._ZNKSt9bad_alloc4whatEv) for std::bad_alloc::what() const
    bad_alloc_dtor.o(.constdata__ZTISt9bad_alloc) refers to lib_rtti_impl.o(.constdata__ZTVN10__cxxabiv120__si_class_type_infoE) for vtable for __cxxabiv1::__si_class_type_info
    bad_alloc_dtor.o(.constdata__ZTISt9bad_alloc) refers to bad_alloc_dtor.o(.constdata__ZTSSt9bad_alloc) for typeinfo name for std::bad_alloc
    bad_alloc_dtor.o(.constdata__ZTISt9bad_alloc) refers to exception_dtor.o(.constdata__ZTISt9exception) for typeinfo for std::exception
    type_info_dtor.o(.constdata__ZTVSt9type_info) refers to type_info_dtor.o(.constdata__ZTISt9type_info) for typeinfo for std::type_info
    type_info_dtor.o(.constdata__ZTVSt9type_info) refers to type_info_dtor.o(i._ZNSt9type_infoD1Ev) for std::type_info::~type_info()
    type_info_dtor.o(.constdata__ZTVSt9type_info) refers to type_info_dtor.o(i._ZNSt9type_infoD0Ev) for std::type_info::~type_info__deallocating()
    type_info_dtor.o(.constdata__ZTISt9type_info) refers to lib_rtti_impl.o(.constdata__ZTVN10__cxxabiv117__class_type_infoE) for vtable for __cxxabiv1::__class_type_info
    type_info_dtor.o(.constdata__ZTISt9type_info) refers to type_info_dtor.o(.constdata__ZTSSt9type_info) for typeinfo name for std::type_info
    char.o(.constdata__ZTVSt5ctypeIcE) refers to char.o(.constdata__ZTISt5ctypeIcE) for typeinfo for std::ctype<char>
    char.o(.constdata__ZTVSt5ctypeIcE) refers to char.o(i._ZNSt5ctypeIcED1Ev) for std::ctype<char>::~ctype()
    char.o(.constdata__ZTVSt5ctypeIcE) refers to char.o(i._ZNSt5ctypeIcED0Ev) for std::ctype<char>::~ctype__deallocating()
    char.o(.constdata__ZTVSt5ctypeIcE) refers to char.o(i._ZNSt5ctypeIcE12_C_initfacetERKSt6locale) for std::ctype<char>::_C_initfacet(const std::locale&)
    char.o(.constdata__ZTVSt5ctypeIcE) refers to char.o(i._ZNKSt5ctypeIcE10do_toupperEPcPKc) for std::ctype<char>::do_toupper(char*, const char*) const
    char.o(.constdata__ZTVSt5ctypeIcE) refers to char.o(i._ZNKSt5ctypeIcE10do_tolowerEPcPKc) for std::ctype<char>::do_tolower(char*, const char*) const
    char.o(.constdata__ZTVSt5ctypeIcE) refers to char.o(i._ZNKSt5ctypeIcE10do_toupperEc) for std::ctype<char>::do_toupper(char) const
    char.o(.constdata__ZTVSt5ctypeIcE) refers to char.o(i._ZNKSt5ctypeIcE10do_tolowerEc) for std::ctype<char>::do_tolower(char) const
    char.o(.constdata__ZTVSt5ctypeIcE) refers to char.o(i._ZNKSt5ctypeIcE8do_widenEc) for std::ctype<char>::do_widen(char) const
    char.o(.constdata__ZTVSt5ctypeIcE) refers to char.o(i._ZNKSt5ctypeIcE8do_widenEPKcS2_Pc) for std::ctype<char>::do_widen(const char*, const char*, char*) const
    char.o(.constdata__ZTVSt5ctypeIcE) refers to char.o(i._ZNKSt5ctypeIcE9do_narrowEcc) for std::ctype<char>::do_narrow(char, char) const
    char.o(.constdata__ZTVSt5ctypeIcE) refers to char.o(i._ZNKSt5ctypeIcE9do_narrowEPKcS2_cPc) for std::ctype<char>::do_narrow(const char*, const char*, char, char*) const
    char.o(.constdata__ZTVSt7collateIcE) refers to char.o(.constdata__ZTISt7collateIcE) for typeinfo for std::collate<char>
    char.o(.constdata__ZTVSt7collateIcE) refers to char.o(i._ZNSt7collateIcED1Ev) for std::collate<char>::~collate()
    char.o(.constdata__ZTVSt7collateIcE) refers to char.o(i._ZNSt7collateIcED0Ev) for std::collate<char>::~collate__deallocating()
    char.o(.constdata__ZTVSt7collateIcE) refers to char.o(i._ZN4__rw15__rw_facet_base12_C_initfacetERKSt6locale) for __rw::__rw_facet_base::_C_initfacet(const std::locale&)
    char.o(.constdata__ZTVSt7collateIcE) refers to char.o(t._ZNKSt7collateIcE10do_compareEPKcS2_S2_S2_) for std::collate<char>::do_compare(const char*, const char*, const char*, const char*) const
    char.o(.constdata__ZTVSt7collateIcE) refers to char.o(t._ZNKSt7collateIcE12do_transformEPKcS2_) for std::collate<char>::do_transform(const char*, const char*) const
    char.o(.constdata__ZTVSt7collateIcE) refers to char.o(t._ZNKSt7collateIcE7do_hashEPKcS2_) for std::collate<char>::do_hash(const char*, const char*) const
    char.o(.constdata__ZTVSt14collate_bynameIcE) refers to char.o(.constdata__ZTISt14collate_bynameIcE) for typeinfo for std::collate_byname<char>
    char.o(.constdata__ZTVSt14collate_bynameIcE) refers to char.o(i._ZNSt14collate_bynameIcED1Ev) for std::collate_byname<char>::~collate_byname()
    char.o(.constdata__ZTVSt14collate_bynameIcE) refers to char.o(i._ZNSt14collate_bynameIcED0Ev) for std::collate_byname<char>::~collate_byname__deallocating()
    char.o(.constdata__ZTVSt14collate_bynameIcE) refers to char.o(i._ZN4__rw15__rw_facet_base12_C_initfacetERKSt6locale) for __rw::__rw_facet_base::_C_initfacet(const std::locale&)
    char.o(.constdata__ZTVSt14collate_bynameIcE) refers to char.o(i._ZNKSt14collate_bynameIcE10do_compareEPKcS2_S2_S2_) for std::collate_byname<char>::do_compare(const char*, const char*, const char*, const char*) const
    char.o(.constdata__ZTVSt14collate_bynameIcE) refers to char.o(i._ZNKSt14collate_bynameIcE12do_transformEPKcS2_) for std::collate_byname<char>::do_transform(const char*, const char*) const
    char.o(.constdata__ZTVSt14collate_bynameIcE) refers to char.o(t._ZNKSt7collateIcE7do_hashEPKcS2_) for std::collate<char>::do_hash(const char*, const char*) const
    char.o(.constdata__ZTVSt8numpunctIcE) refers to char.o(.constdata__ZTISt8numpunctIcE) for typeinfo for std::numpunct<char>
    char.o(.constdata__ZTVSt8numpunctIcE) refers to char.o(i._ZNSt8numpunctIcED1Ev) for std::numpunct<char>::~numpunct()
    char.o(.constdata__ZTVSt8numpunctIcE) refers to char.o(i._ZNSt8numpunctIcED0Ev) for std::numpunct<char>::~numpunct__deallocating()
    char.o(.constdata__ZTVSt8numpunctIcE) refers to char.o(t._ZNSt8numpunctIcE12_C_initfacetERKSt6locale) for std::numpunct<char>::_C_initfacet(const std::locale&)
    char.o(.constdata__ZTVSt8numpunctIcE) refers to char.o(t._ZNKSt8numpunctIcE16do_decimal_pointEv) for std::numpunct<char>::do_decimal_point() const
    char.o(.constdata__ZTVSt8numpunctIcE) refers to char.o(t._ZNKSt8numpunctIcE16do_thousands_sepEv) for std::numpunct<char>::do_thousands_sep() const
    char.o(.constdata__ZTVSt8numpunctIcE) refers to char.o(t._ZNKSt8numpunctIcE11do_groupingEv) for std::numpunct<char>::do_grouping() const
    char.o(.constdata__ZTVSt8numpunctIcE) refers to char.o(t._ZNKSt8numpunctIcE11do_truenameEv) for std::numpunct<char>::do_truename() const
    char.o(.constdata__ZTVSt8numpunctIcE) refers to char.o(t._ZNKSt8numpunctIcE12do_falsenameEv) for std::numpunct<char>::do_falsename() const
    char.o(t._ZNSs9_C_getRepEjj) refers to rwstdexcept.o(i._ZN4__rw10__rw_throwEiz) for __rw::__rw_throw(int, ...)
    char.o(t._ZNSs9_C_getRepEjj) refers to rwalloc.o(i._ZN4__rw13__rw_allocateEji) for __rw::__rw_allocate(unsigned, int)
    char.o(t._ZNSs9_C_getRepEjj) refers to char.o(.constdata__ZZNSs9_C_getRepEjjEs) for std::basic_string<char, std::char_traits<char>, std::allocator<char>>::_C_getRep(unsigned, unsigned)::string
    char.o(t._ZNSs9_C_getRepEjj) refers to vendor.o(.bss__ZNSs9__nullrefE) for std::basic_string<char, std::char_traits<char>, std::allocator<char>>::__nullref
    char.o(.ARM.exidx) refers to char.o(t._ZNSs9_C_getRepEjj) for t._ZNSs9_C_getRepEjj
    char.o(.ARM.exidx) refers to unwind_pr0.o(.text) for __aeabi_unwind_cpp_pr0
    char.o(t._ZNSsC1ERKSs) refers to char.o(t._ZN4__rw12__string_refIcSt11char_traitsIcESaIcEE10_C_inc_refEv) for __rw::__string_ref<char, std::char_traits<char>, std::allocator<char>>::_C_inc_ref()
    char.o(t._ZNSsC1ERKSs) refers to char.o(t._ZNSs9_C_getRepEjj) for std::basic_string<char, std::char_traits<char>, std::allocator<char>>::_C_getRep(unsigned, unsigned)
    char.o(t._ZNSsC1ERKSs) refers to char.o(i._ZNSt11char_traitsIcE4copyEPcPKcj) for std::char_traits<char>::copy(char*, const char*, unsigned)
    char.o(.ARM.exidx) refers to char.o(t._ZNSsC1ERKSs) for t._ZNSsC1ERKSs
    char.o(.ARM.exidx) refers to unwind_pr0.o(.text) for __aeabi_unwind_cpp_pr0
    char.o(t._ZNSsC1EPKcjRKSaIcE) refers to rwstdexcept.o(i._ZN4__rw10__rw_throwEiz) for __rw::__rw_throw(int, ...)
    char.o(t._ZNSsC1EPKcjRKSaIcE) refers to char.o(t._ZSt3maxIjERKT_S2_S2_) for const T1& std::max<unsigned>(const T1&, const T1&)
    char.o(t._ZNSsC1EPKcjRKSaIcE) refers to char.o(t._ZNSs9_C_getRepEjj) for std::basic_string<char, std::char_traits<char>, std::allocator<char>>::_C_getRep(unsigned, unsigned)
    char.o(t._ZNSsC1EPKcjRKSaIcE) refers to char.o(i._ZNSt11char_traitsIcE4copyEPcPKcj) for std::char_traits<char>::copy(char*, const char*, unsigned)
    char.o(t._ZNSsC1EPKcjRKSaIcE) refers to char.o(.constdata__ZZNSsC1EPKcjRKSaIcEEs) for std::basic_string<char, std::char_traits<char>, std::allocator<char>>::basic_string(const char*, unsigned, const std::allocator<char>&)::string
    char.o(t._ZNSsC1EPKcjRKSaIcE) refers to vendor.o(.bss__ZNSs9__nullrefE) for std::basic_string<char, std::char_traits<char>, std::allocator<char>>::__nullref
    char.o(.ARM.exidx) refers to char.o(t._ZNSsC1EPKcjRKSaIcE) for t._ZNSsC1EPKcjRKSaIcE
    char.o(.ARM.exidx) refers to unwind_pr0.o(.text) for __aeabi_unwind_cpp_pr0
    char.o(t._ZNSs9_C_unlinkEv) refers to rwalloc.o(i._ZN4__rw15__rw_deallocateEPvji) for __rw::__rw_deallocate(void*, unsigned, int)
    char.o(t._ZNSs9_C_unlinkEv) refers to vendor.o(.bss__ZNSs9__nullrefE) for std::basic_string<char, std::char_traits<char>, std::allocator<char>>::__nullref
    char.o(.ARM.exidx) refers to char.o(t._ZNSs9_C_unlinkEv) for t._ZNSs9_C_unlinkEv
    char.o(.ARM.exidx) refers to unwind_pr0.o(.text) for __aeabi_unwind_cpp_pr0
    char.o(t._ZNSs7replaceEjjPKcjjj) refers to rwstdexcept.o(i._ZN4__rw10__rw_throwEiz) for __rw::__rw_throw(int, ...)
    char.o(t._ZNSs7replaceEjjPKcjjj) refers to char.o(t._ZSt3maxIjERKT_S2_S2_) for const T1& std::max<unsigned>(const T1&, const T1&)
    char.o(t._ZNSs7replaceEjjPKcjjj) refers to char.o(t._ZNSs9_C_getRepEjj) for std::basic_string<char, std::char_traits<char>, std::allocator<char>>::_C_getRep(unsigned, unsigned)
    char.o(t._ZNSs7replaceEjjPKcjjj) refers to char.o(i._ZNSt11char_traitsIcE4copyEPcPKcj) for std::char_traits<char>::copy(char*, const char*, unsigned)
    char.o(t._ZNSs7replaceEjjPKcjjj) refers to char.o(t._ZNSs9_C_unlinkEv) for std::basic_string<char, std::char_traits<char>, std::allocator<char>>::_C_unlink()
    char.o(t._ZNSs7replaceEjjPKcjjj) refers to rt_memmove_v6.o(.text) for __aeabi_memmove
    char.o(t._ZNSs7replaceEjjPKcjjj) refers to char.o(.constdata__ZZNSs7replaceEjjPKcjjjEs) for std::basic_string<char, std::char_traits<char>, std::allocator<char>>::replace(unsigned, unsigned, const char*, unsigned, unsigned, unsigned)::string
    char.o(t._ZNSs7replaceEjjPKcjjj) refers to vendor.o(.bss__ZNSs9__nullrefE) for std::basic_string<char, std::char_traits<char>, std::allocator<char>>::__nullref
    char.o(.ARM.exidx) refers to char.o(t._ZNSs7replaceEjjPKcjjj) for t._ZNSs7replaceEjjPKcjjj
    char.o(.ARM.exidx) refers to unwind_pr1.o(.text) for __aeabi_unwind_cpp_pr1
    char.o(.ARM.exidx) refers to char.o(.ARM.extab) for .extab._ZNSs7replaceEjjPKcjjj
    char.o(t._ZNSs5beginEv) refers to char.o(t._ZNSs9_C_getRepEjj) for std::basic_string<char, std::char_traits<char>, std::allocator<char>>::_C_getRep(unsigned, unsigned)
    char.o(t._ZNSs5beginEv) refers to char.o(i._ZNSt11char_traitsIcE4copyEPcPKcj) for std::char_traits<char>::copy(char*, const char*, unsigned)
    char.o(t._ZNSs5beginEv) refers to char.o(t._ZNSs9_C_unlinkEv) for std::basic_string<char, std::char_traits<char>, std::allocator<char>>::_C_unlink()
    char.o(t._ZNSs5beginEv) refers to vendor.o(.bss__ZNSs9__nullrefE) for std::basic_string<char, std::char_traits<char>, std::allocator<char>>::__nullref
    char.o(.ARM.exidx) refers to char.o(t._ZNSs5beginEv) for t._ZNSs5beginEv
    char.o(.ARM.exidx) refers to unwind_pr0.o(.text) for __aeabi_unwind_cpp_pr0
    char.o(i._ZNSt5ctypeIcED1Ev) refers to array_del.o(i._ZdaPv) for operator delete[] (void*)
    char.o(i._ZNSt5ctypeIcED1Ev) refers to char.o(.constdata__ZTVSt5ctypeIcE) for vtable for std::ctype<char>
    char.o(.ARM.exidx) refers to char.o(i._ZNSt5ctypeIcED1Ev) for i._ZNSt5ctypeIcED1Ev
    char.o(.ARM.exidx) refers to char.o(t._ZNK4__rw17__rw_collate_dataIcE13_C_coll_orderEc) for t._ZNK4__rw17__rw_collate_dataIcE13_C_coll_orderEc
    char.o(t._ZNKSt7collateIcE10do_compareEPKcS2_S2_S2_) refers to char.o(t._ZNK4__rw17__rw_collate_dataIcE13_C_coll_orderEc) for __rw::__rw_collate_data<char>::_C_coll_order(char) const
    char.o(.ARM.exidx) refers to char.o(t._ZNKSt7collateIcE10do_compareEPKcS2_S2_S2_) for t._ZNKSt7collateIcE10do_compareEPKcS2_S2_S2_
    char.o(.ARM.exidx) refers to unwind_pr1.o(.text) for __aeabi_unwind_cpp_pr1
    char.o(.ARM.exidx) refers to char.o(.ARM.extab) for .extab._ZNKSt7collateIcE10do_compareEPKcS2_S2_S2_
    char.o(t._ZNKSt7collateIcE12do_transformEPKcS2_) refers to char.o(t._ZNSsC1EPKcjRKSaIcE) for std::basic_string<char, std::char_traits<char>, std::allocator<char>>::basic_string(const char*, unsigned, const std::allocator<char>&)
    char.o(t._ZNKSt7collateIcE12do_transformEPKcS2_) refers to char.o(t._ZNSs5beginEv) for std::basic_string<char, std::char_traits<char>, std::allocator<char>>::begin()
    char.o(t._ZNKSt7collateIcE12do_transformEPKcS2_) refers to char.o(t._ZNK4__rw17__rw_collate_dataIcE13_C_coll_orderEc) for __rw::__rw_collate_data<char>::_C_coll_order(char) const
    char.o(t._ZNKSt7collateIcE12do_transformEPKcS2_.clean) refers to char.o(t._ZNSsD1Ev) for std::basic_string<char, std::char_traits<char>, std::allocator<char>>::~basic_string()
    char.o(t._ZNKSt7collateIcE12do_transformEPKcS2_.clean) refers to arm_exceptions_cleanup.o(.emb_text) for __cxa_end_cleanup
    char.o(.ARM.extab) refers to char.o(t._ZNKSt7collateIcE12do_transformEPKcS2_.clean) for t._ZNKSt7collateIcE12do_transformEPKcS2_.clean
    char.o(.ARM.exidx) refers to char.o(t._ZNKSt7collateIcE12do_transformEPKcS2_) for t._ZNKSt7collateIcE12do_transformEPKcS2_
    char.o(.ARM.exidx) refers to unwind_pr0.o(.text) for __aeabi_unwind_cpp_pr0
    char.o(.ARM.exidx) refers to char.o(.ARM.extab) for .extab._ZNKSt7collateIcE12do_transformEPKcS2_
    char.o(.ARM.exidx) refers to char.o(t._ZNKSt7collateIcE12do_transformEPKcS2_.clean) for t._ZNKSt7collateIcE12do_transformEPKcS2_.clean
    char.o(t._ZNKSt7collateIcE7do_hashEPKcS2_) refers to char.o(t._ZNSsD1Ev) for std::basic_string<char, std::char_traits<char>, std::allocator<char>>::~basic_string()
    char.o(t._ZNKSt7collateIcE7do_hashEPKcS2_.clean) refers to arm_exceptions_cleanup.o(.emb_text) for __cxa_end_cleanup
    char.o(.ARM.exidx) refers to char.o(t._ZNKSt7collateIcE7do_hashEPKcS2_) for t._ZNKSt7collateIcE7do_hashEPKcS2_
    char.o(.ARM.exidx) refers to unwind_pr0.o(.text) for __aeabi_unwind_cpp_pr0
    char.o(.ARM.exidx) refers to char.o(t._ZNKSt7collateIcE7do_hashEPKcS2_.clean) for t._ZNKSt7collateIcE7do_hashEPKcS2_.clean
    char.o(.ARM.exidx) refers to char.o(i._ZNSt7collateIcED1Ev) for i._ZNSt7collateIcED1Ev
    char.o(i._ZNSt14collate_bynameIcED1Ev) refers to char.o(t._ZNSsD1Ev) for std::basic_string<char, std::char_traits<char>, std::allocator<char>>::~basic_string()
    char.o(i._ZNSt14collate_bynameIcED1Ev) refers to char.o(i._ZNSt7collateIcED1Ev) for std::collate<char>::~collate()
    char.o(i._ZNSt14collate_bynameIcED1Ev) refers to char.o(.constdata__ZTVSt14collate_bynameIcE) for vtable for std::collate_byname<char>
    char.o(.ARM.exidx) refers to char.o(i._ZNSt14collate_bynameIcED1Ev) for i._ZNSt14collate_bynameIcED1Ev
    char.o(t._ZNSt8numpunctIcE12_C_initfacetERKSt6locale) refers to locale.o(t._ZNSsaSERKSs) for std::basic_string<char, std::char_traits<char>, std::allocator<char>>::operator =(const std::basic_string<char, std::char_traits<char>, std::allocator<char>>&)
    char.o(t._ZNSt8numpunctIcE12_C_initfacetERKSt6locale) refers to char.o(t._ZNSsD1Ev) for std::basic_string<char, std::char_traits<char>, std::allocator<char>>::~basic_string()
    char.o(t._ZNSt8numpunctIcE12_C_initfacetERKSt6locale.clean) refers to char.o(t._ZNSsD1Ev) for std::basic_string<char, std::char_traits<char>, std::allocator<char>>::~basic_string()
    char.o(t._ZNSt8numpunctIcE12_C_initfacetERKSt6locale.clean) refers to arm_exceptions_cleanup.o(.emb_text) for __cxa_end_cleanup
    char.o(.ARM.extab) refers to char.o(t._ZNSt8numpunctIcE12_C_initfacetERKSt6locale.clean) for t._ZNSt8numpunctIcE12_C_initfacetERKSt6locale.clean
    char.o(.ARM.exidx) refers to char.o(t._ZNSt8numpunctIcE12_C_initfacetERKSt6locale) for t._ZNSt8numpunctIcE12_C_initfacetERKSt6locale
    char.o(.ARM.exidx) refers to unwind_pr0.o(.text) for __aeabi_unwind_cpp_pr0
    char.o(.ARM.exidx) refers to char.o(.ARM.extab) for .extab._ZNSt8numpunctIcE12_C_initfacetERKSt6locale
    char.o(.ARM.exidx) refers to char.o(t._ZNSt8numpunctIcE12_C_initfacetERKSt6locale.clean) for t._ZNSt8numpunctIcE12_C_initfacetERKSt6locale.clean
    char.o(i._ZNSt8numpunctIcED1Ev) refers to char.o(i._ZN4__rw18__rw_numpunct_implIcED1Ev) for __rw::__rw_numpunct_impl<char>::~__rw_numpunct_impl()
    char.o(.ARM.exidx) refers to char.o(i._ZNSt8numpunctIcED1Ev) for i._ZNSt8numpunctIcED1Ev
    char.o(.ARM.exidx) refers to char.o(i._ZnwjPv) for i._ZnwjPv
    char.o(i._ZNSt11char_traitsIcE4copyEPcPKcj) refers to rt_memcpy_v6.o(.text) for __aeabi_memcpy
    char.o(.ARM.exidx) refers to char.o(i._ZNSt11char_traitsIcE4copyEPcPKcj) for i._ZNSt11char_traitsIcE4copyEPcPKcj
    char.o(.ARM.exidx) refers to char.o(t._ZNSaIcEC1Ev) for t._ZNSaIcEC1Ev
    char.o(.ARM.exidx) refers to char.o(t._ZNSaIcEC1ERKS_) for t._ZNSaIcEC1ERKS_
    char.o(t._ZN4__rw12__string_refIcSt11char_traitsIcESaIcEE10_C_inc_refEv) refers to vendor.o(.bss__ZNSs9__nullrefE) for std::basic_string<char, std::char_traits<char>, std::allocator<char>>::__nullref
    char.o(.ARM.exidx) refers to char.o(t._ZN4__rw12__string_refIcSt11char_traitsIcESaIcEE10_C_inc_refEv) for t._ZN4__rw12__string_refIcSt11char_traitsIcESaIcEE10_C_inc_refEv
    char.o(.ARM.exidx) refers to char.o(t._ZSt3maxIjERKT_S2_S2_) for t._ZSt3maxIjERKT_S2_S2_
    char.o(.ARM.exidx) refers to char.o(t._ZNSaIN4__rw12__string_refIcSt11char_traitsIcESaIcEEEEC1IcEERKSaIT_E) for t._ZNSaIN4__rw12__string_refIcSt11char_traitsIcESaIcEEEEC1IcEERKSaIT_E
    char.o(t._ZNSsD1Ev) refers to char.o(t._ZNSs9_C_unlinkEv) for std::basic_string<char, std::char_traits<char>, std::allocator<char>>::_C_unlink()
    char.o(.ARM.extab) refers to arm_callunex_noexceptions.o(.text) for __cxa_call_unexpected
    char.o(.ARM.exidx) refers to char.o(t._ZNSsD1Ev) for t._ZNSsD1Ev
    char.o(.ARM.exidx) refers to unwind_pr0.o(.text) for __aeabi_unwind_cpp_pr0
    char.o(.ARM.exidx) refers to char.o(.ARM.extab) for .extab._ZNSsD1Ev
    char.o(.ARM.exidx) refers to char.o(i._ZNSt6locale5facetD1Ev) for i._ZNSt6locale5facetD1Ev
    char.o(.ARM.exidx) refers to char.o(i._ZNKSt5ctypeIcE2isENSt10ctype_base4maskEc) for i._ZNKSt5ctypeIcE2isENSt10ctype_base4maskEc
    char.o(i._ZNSt5ctypeIcED0Ev) refers to char.o(i._ZNSt5ctypeIcED1Ev) for std::ctype<char>::~ctype()
    char.o(i._ZNSt5ctypeIcED0Ev) refers to delete.o(i._ZdlPv) for operator delete (void*)
    char.o(.ARM.exidx) refers to char.o(i._ZNSt5ctypeIcED0Ev) for i._ZNSt5ctypeIcED0Ev
    char.o(i._ZNKSt5ctypeIcE10do_toupperEPcPKc) refers to char.o(i._ZNKSt5ctypeIcE2isENSt10ctype_base4maskEc) for std::ctype<char>::is(std::ctype_base::mask, char) const
    char.o(.ARM.exidx) refers to char.o(i._ZNKSt5ctypeIcE10do_toupperEPcPKc) for i._ZNKSt5ctypeIcE10do_toupperEPcPKc
    char.o(.ARM.exidx) refers to unwind_pr0.o(.text) for __aeabi_unwind_cpp_pr0
    char.o(i._ZNKSt5ctypeIcE10do_tolowerEPcPKc) refers to char.o(i._ZNKSt5ctypeIcE2isENSt10ctype_base4maskEc) for std::ctype<char>::is(std::ctype_base::mask, char) const
    char.o(.ARM.exidx) refers to char.o(i._ZNKSt5ctypeIcE10do_tolowerEPcPKc) for i._ZNKSt5ctypeIcE10do_tolowerEPcPKc
    char.o(.ARM.exidx) refers to unwind_pr0.o(.text) for __aeabi_unwind_cpp_pr0
    char.o(i._ZNKSt5ctypeIcE10do_toupperEc) refers to char.o(i._ZNKSt5ctypeIcE2isENSt10ctype_base4maskEc) for std::ctype<char>::is(std::ctype_base::mask, char) const
    char.o(.ARM.exidx) refers to char.o(i._ZNKSt5ctypeIcE10do_toupperEc) for i._ZNKSt5ctypeIcE10do_toupperEc
    char.o(.ARM.exidx) refers to unwind_pr0.o(.text) for __aeabi_unwind_cpp_pr0
    char.o(i._ZNKSt5ctypeIcE10do_tolowerEc) refers to char.o(i._ZNKSt5ctypeIcE2isENSt10ctype_base4maskEc) for std::ctype<char>::is(std::ctype_base::mask, char) const
    char.o(.ARM.exidx) refers to char.o(i._ZNKSt5ctypeIcE10do_tolowerEc) for i._ZNKSt5ctypeIcE10do_tolowerEc
    char.o(.ARM.exidx) refers to unwind_pr0.o(.text) for __aeabi_unwind_cpp_pr0
    char.o(.ARM.exidx) refers to char.o(i._ZNKSt5ctypeIcE8do_widenEc) for i._ZNKSt5ctypeIcE8do_widenEc
    char.o(i._ZNKSt5ctypeIcE8do_widenEPKcS2_Pc) refers to rt_memcpy_v6.o(.text) for __aeabi_memcpy
    char.o(.ARM.exidx) refers to char.o(i._ZNKSt5ctypeIcE8do_widenEPKcS2_Pc) for i._ZNKSt5ctypeIcE8do_widenEPKcS2_Pc
    char.o(.ARM.exidx) refers to char.o(i._ZNKSt5ctypeIcE9do_narrowEcc) for i._ZNKSt5ctypeIcE9do_narrowEcc
    char.o(i._ZNKSt5ctypeIcE9do_narrowEPKcS2_cPc) refers to rt_memcpy_v6.o(.text) for __aeabi_memcpy
    char.o(.ARM.exidx) refers to char.o(i._ZNKSt5ctypeIcE9do_narrowEPKcS2_cPc) for i._ZNKSt5ctypeIcE9do_narrowEPKcS2_cPc
    char.o(i._ZN4__rw21__rw_use_c_lib_localeD1Ev) refers to locale.o(.text) for setlocale
    char.o(i._ZN4__rw21__rw_use_c_lib_localeD1Ev) refers to array_del.o(i._ZdaPv) for operator delete[] (void*)
    char.o(.ARM.exidx) refers to char.o(i._ZN4__rw21__rw_use_c_lib_localeD1Ev) for i._ZN4__rw21__rw_use_c_lib_localeD1Ev
    char.o(i._ZNSt7collateIcED0Ev) refers to char.o(i._ZNSt7collateIcED1Ev) for std::collate<char>::~collate()
    char.o(i._ZNSt7collateIcED0Ev) refers to delete.o(i._ZdlPv) for operator delete (void*)
    char.o(.ARM.exidx) refers to char.o(i._ZNSt7collateIcED0Ev) for i._ZNSt7collateIcED0Ev
    char.o(i._ZNSt14collate_bynameIcED0Ev) refers to char.o(i._ZNSt14collate_bynameIcED1Ev) for std::collate_byname<char>::~collate_byname()
    char.o(i._ZNSt14collate_bynameIcED0Ev) refers to delete.o(i._ZdlPv) for operator delete (void*)
    char.o(.ARM.exidx) refers to char.o(i._ZNSt14collate_bynameIcED0Ev) for i._ZNSt14collate_bynameIcED0Ev
    char.o(.ARM.exidx) refers to char.o(t._ZNKSt8numpunctIcE16do_decimal_pointEv) for t._ZNKSt8numpunctIcE16do_decimal_pointEv
    char.o(.ARM.exidx) refers to char.o(t._ZNKSt8numpunctIcE16do_thousands_sepEv) for t._ZNKSt8numpunctIcE16do_thousands_sepEv
    char.o(t._ZNKSt8numpunctIcE11do_groupingEv) refers to char.o(t._ZNSsC1ERKSs) for std::basic_string<char, std::char_traits<char>, std::allocator<char>>::basic_string(const std::basic_string<char, std::char_traits<char>, std::allocator<char>>&)
    char.o(.ARM.exidx) refers to char.o(t._ZNKSt8numpunctIcE11do_groupingEv) for t._ZNKSt8numpunctIcE11do_groupingEv
    char.o(t._ZNKSt8numpunctIcE11do_truenameEv) refers to char.o(t._ZNSsC1ERKSs) for std::basic_string<char, std::char_traits<char>, std::allocator<char>>::basic_string(const std::basic_string<char, std::char_traits<char>, std::allocator<char>>&)
    char.o(.ARM.exidx) refers to char.o(t._ZNKSt8numpunctIcE11do_truenameEv) for t._ZNKSt8numpunctIcE11do_truenameEv
    char.o(t._ZNKSt8numpunctIcE12do_falsenameEv) refers to char.o(t._ZNSsC1ERKSs) for std::basic_string<char, std::char_traits<char>, std::allocator<char>>::basic_string(const std::basic_string<char, std::char_traits<char>, std::allocator<char>>&)
    char.o(.ARM.exidx) refers to char.o(t._ZNKSt8numpunctIcE12do_falsenameEv) for t._ZNKSt8numpunctIcE12do_falsenameEv
    char.o(i._ZN4__rw18__rw_numpunct_implIcED1Ev) refers to char.o(i._ZN4__rw23__rw_numpunct_impl_dataIcED1Ev) for __rw::__rw_numpunct_impl_data<char>::~__rw_numpunct_impl_data()
    char.o(.ARM.exidx) refers to char.o(i._ZN4__rw18__rw_numpunct_implIcED1Ev) for i._ZN4__rw18__rw_numpunct_implIcED1Ev
    char.o(i._ZNSt8numpunctIcED0Ev) refers to char.o(i._ZNSt8numpunctIcED1Ev) for std::numpunct<char>::~numpunct()
    char.o(i._ZNSt8numpunctIcED0Ev) refers to delete.o(i._ZdlPv) for operator delete (void*)
    char.o(.ARM.exidx) refers to char.o(i._ZNSt8numpunctIcED0Ev) for i._ZNSt8numpunctIcED0Ev
    char.o(.ARM.exidx) refers to char.o(i._ZN4__rw15__rw_facet_base12_C_initfacetERKSt6locale) for i._ZN4__rw15__rw_facet_base12_C_initfacetERKSt6locale
    char.o(i._ZN4__rw23__rw_numpunct_impl_dataIcED1Ev) refers to char.o(t._ZNSsD1Ev) for std::basic_string<char, std::char_traits<char>, std::allocator<char>>::~basic_string()
    char.o(i._ZN4__rw23__rw_numpunct_impl_dataIcED1Ev) refers to char.o(i._ZN4__rw15__rw_punct_dataIcED1Ev) for __rw::__rw_punct_data<char>::~__rw_punct_data()
    char.o(.ARM.exidx) refers to char.o(i._ZN4__rw23__rw_numpunct_impl_dataIcED1Ev) for i._ZN4__rw23__rw_numpunct_impl_dataIcED1Ev
    char.o(i._ZN4__rw15__rw_punct_dataIcED1Ev) refers to char.o(t._ZNSsD1Ev) for std::basic_string<char, std::char_traits<char>, std::allocator<char>>::~basic_string()
    char.o(.ARM.exidx) refers to char.o(i._ZN4__rw15__rw_punct_dataIcED1Ev) for i._ZN4__rw15__rw_punct_dataIcED1Ev
    char.o(.constdata__ZTISt5ctypeIcE) refers to lib_rtti_impl.o(.constdata__ZTVN10__cxxabiv121__vmi_class_type_infoE) for vtable for __cxxabiv1::__vmi_class_type_info
    char.o(.constdata__ZTISt5ctypeIcE) refers to char.o(.constdata__ZTSSt5ctypeIcE) for typeinfo name for std::ctype<char>
    char.o(.constdata__ZTISt5ctypeIcE) refers to char.o(.constdata__ZTINSt6locale5facetE) for typeinfo for std::locale::facet
    char.o(.constdata__ZTISt5ctypeIcE) refers to char.o(.constdata__ZTISt10ctype_base) for typeinfo for std::ctype_base
    char.o(.constdata__ZTISt5ctypeIcE) refers to char.o(.constdata__ZTIN4__rw17__rw_ctype_helperIcEE) for typeinfo for __rw::__rw_ctype_helper<char>
    char.o(.constdata__ZTVSt12ctype_bynameIcE) refers to char.o(.constdata__ZTISt12ctype_bynameIcE) for typeinfo for std::ctype_byname<char>
    char.o(.constdata__ZTVSt12ctype_bynameIcE) refers to char.o(i._ZNSt12ctype_bynameIcED1Ev) for std::ctype_byname<char>::~ctype_byname()
    char.o(.constdata__ZTVSt12ctype_bynameIcE) refers to char.o(i._ZNSt12ctype_bynameIcED0Ev) for std::ctype_byname<char>::~ctype_byname__deallocating()
    char.o(.constdata__ZTVSt12ctype_bynameIcE) refers to char.o(i._ZNSt5ctypeIcE12_C_initfacetERKSt6locale) for std::ctype<char>::_C_initfacet(const std::locale&)
    char.o(.constdata__ZTVSt12ctype_bynameIcE) refers to char.o(i._ZNKSt5ctypeIcE10do_toupperEPcPKc) for std::ctype<char>::do_toupper(char*, const char*) const
    char.o(.constdata__ZTVSt12ctype_bynameIcE) refers to char.o(i._ZNKSt5ctypeIcE10do_tolowerEPcPKc) for std::ctype<char>::do_tolower(char*, const char*) const
    char.o(.constdata__ZTVSt12ctype_bynameIcE) refers to char.o(i._ZNKSt5ctypeIcE10do_toupperEc) for std::ctype<char>::do_toupper(char) const
    char.o(.constdata__ZTVSt12ctype_bynameIcE) refers to char.o(i._ZNKSt5ctypeIcE10do_tolowerEc) for std::ctype<char>::do_tolower(char) const
    char.o(.constdata__ZTVSt12ctype_bynameIcE) refers to char.o(i._ZNKSt5ctypeIcE8do_widenEc) for std::ctype<char>::do_widen(char) const
    char.o(.constdata__ZTVSt12ctype_bynameIcE) refers to char.o(i._ZNKSt5ctypeIcE8do_widenEPKcS2_Pc) for std::ctype<char>::do_widen(const char*, const char*, char*) const
    char.o(.constdata__ZTVSt12ctype_bynameIcE) refers to char.o(i._ZNKSt5ctypeIcE9do_narrowEcc) for std::ctype<char>::do_narrow(char, char) const
    char.o(.constdata__ZTVSt12ctype_bynameIcE) refers to char.o(i._ZNKSt5ctypeIcE9do_narrowEPKcS2_cPc) for std::ctype<char>::do_narrow(const char*, const char*, char, char*) const
    char.o(.constdata__ZTISt7collateIcE) refers to lib_rtti_impl.o(.constdata__ZTVN10__cxxabiv121__vmi_class_type_infoE) for vtable for __cxxabiv1::__vmi_class_type_info
    char.o(.constdata__ZTISt7collateIcE) refers to char.o(.constdata__ZTSSt7collateIcE) for typeinfo name for std::collate<char>
    char.o(.constdata__ZTISt7collateIcE) refers to char.o(.constdata__ZTINSt6locale5facetE) for typeinfo for std::locale::facet
    char.o(.constdata__ZTISt7collateIcE) refers to char.o(.constdata__ZTIN4__rw17__rw_collate_implIcEE) for typeinfo for __rw::__rw_collate_impl<char>
    char.o(.constdata__ZTISt8numpunctIcE) refers to lib_rtti_impl.o(.constdata__ZTVN10__cxxabiv121__vmi_class_type_infoE) for vtable for __cxxabiv1::__vmi_class_type_info
    char.o(.constdata__ZTISt8numpunctIcE) refers to char.o(.constdata__ZTSSt8numpunctIcE) for typeinfo name for std::numpunct<char>
    char.o(.constdata__ZTISt8numpunctIcE) refers to char.o(.constdata__ZTINSt6locale5facetE) for typeinfo for std::locale::facet
    char.o(.constdata__ZTISt8numpunctIcE) refers to char.o(.constdata__ZTIN4__rw18__rw_numpunct_implIcEE) for typeinfo for __rw::__rw_numpunct_impl<char>
    char.o(.constdata__ZTISt14collate_bynameIcE) refers to lib_rtti_impl.o(.constdata__ZTVN10__cxxabiv120__si_class_type_infoE) for vtable for __cxxabiv1::__si_class_type_info
    char.o(.constdata__ZTISt14collate_bynameIcE) refers to char.o(.constdata__ZTSSt14collate_bynameIcE) for typeinfo name for std::collate_byname<char>
    char.o(.constdata__ZTISt14collate_bynameIcE) refers to char.o(.constdata__ZTISt7collateIcE) for typeinfo for std::collate<char>
    char.o(.constdata__ZTINSt6locale5facetE) refers to lib_rtti_impl.o(.constdata__ZTVN10__cxxabiv120__si_class_type_infoE) for vtable for __cxxabiv1::__si_class_type_info
    char.o(.constdata__ZTINSt6locale5facetE) refers to char.o(.constdata__ZTSNSt6locale5facetE) for typeinfo name for std::locale::facet
    char.o(.constdata__ZTINSt6locale5facetE) refers to char.o(.constdata__ZTIN4__rw15__rw_facet_baseE) for typeinfo for __rw::__rw_facet_base
    char.o(.constdata__ZTISt12ctype_bynameIcE) refers to lib_rtti_impl.o(.constdata__ZTVN10__cxxabiv120__si_class_type_infoE) for vtable for __cxxabiv1::__si_class_type_info
    char.o(.constdata__ZTISt12ctype_bynameIcE) refers to char.o(.constdata__ZTSSt12ctype_bynameIcE) for typeinfo name for std::ctype_byname<char>
    char.o(.constdata__ZTISt12ctype_bynameIcE) refers to char.o(.constdata__ZTISt5ctypeIcE) for typeinfo for std::ctype<char>
    char.o(.constdata__ZTISt10ctype_base) refers to lib_rtti_impl.o(.constdata__ZTVN10__cxxabiv117__class_type_infoE) for vtable for __cxxabiv1::__class_type_info
    char.o(.constdata__ZTISt10ctype_base) refers to char.o(.constdata__ZTSSt10ctype_base) for typeinfo name for std::ctype_base
    char.o(.constdata__ZTIN4__rw17__rw_ctype_helperIcEE) refers to lib_rtti_impl.o(.constdata__ZTVN10__cxxabiv117__class_type_infoE) for vtable for __cxxabiv1::__class_type_info
    char.o(.constdata__ZTIN4__rw17__rw_ctype_helperIcEE) refers to char.o(.constdata__ZTSN4__rw17__rw_ctype_helperIcEE) for typeinfo name for __rw::__rw_ctype_helper<char>
    char.o(.constdata__ZTIN4__rw17__rw_collate_implIcEE) refers to lib_rtti_impl.o(.constdata__ZTVN10__cxxabiv120__si_class_type_infoE) for vtable for __cxxabiv1::__si_class_type_info
    char.o(.constdata__ZTIN4__rw17__rw_collate_implIcEE) refers to char.o(.constdata__ZTSN4__rw17__rw_collate_implIcEE) for typeinfo name for __rw::__rw_collate_impl<char>
    char.o(.constdata__ZTIN4__rw17__rw_collate_implIcEE) refers to char.o(.constdata__ZTIN4__rw17__rw_collate_dataIcEE) for typeinfo for __rw::__rw_collate_data<char>
    char.o(.constdata__ZTIN4__rw18__rw_numpunct_implIcEE) refers to lib_rtti_impl.o(.constdata__ZTVN10__cxxabiv120__si_class_type_infoE) for vtable for __cxxabiv1::__si_class_type_info
    char.o(.constdata__ZTIN4__rw18__rw_numpunct_implIcEE) refers to char.o(.constdata__ZTSN4__rw18__rw_numpunct_implIcEE) for typeinfo name for __rw::__rw_numpunct_impl<char>
    char.o(.constdata__ZTIN4__rw18__rw_numpunct_implIcEE) refers to char.o(.constdata__ZTIN4__rw23__rw_numpunct_impl_dataIcEE) for typeinfo for __rw::__rw_numpunct_impl_data<char>
    char.o(.constdata__ZTIN4__rw15__rw_facet_baseE) refers to lib_rtti_impl.o(.constdata__ZTVN10__cxxabiv120__si_class_type_infoE) for vtable for __cxxabiv1::__si_class_type_info
    char.o(.constdata__ZTIN4__rw15__rw_facet_baseE) refers to char.o(.constdata__ZTSN4__rw15__rw_facet_baseE) for typeinfo name for __rw::__rw_facet_base
    char.o(.constdata__ZTIN4__rw15__rw_facet_baseE) refers to char.o(.constdata__ZTIN4__rw17__rw_synchronizedE) for typeinfo for __rw::__rw_synchronized
    char.o(.constdata__ZTIN4__rw17__rw_collate_dataIcEE) refers to lib_rtti_impl.o(.constdata__ZTVN10__cxxabiv117__class_type_infoE) for vtable for __cxxabiv1::__class_type_info
    char.o(.constdata__ZTIN4__rw17__rw_collate_dataIcEE) refers to char.o(.constdata__ZTSN4__rw17__rw_collate_dataIcEE) for typeinfo name for __rw::__rw_collate_data<char>
    char.o(.constdata__ZTIN4__rw23__rw_numpunct_impl_dataIcEE) refers to lib_rtti_impl.o(.constdata__ZTVN10__cxxabiv121__vmi_class_type_infoE) for vtable for __cxxabiv1::__vmi_class_type_info
    char.o(.constdata__ZTIN4__rw23__rw_numpunct_impl_dataIcEE) refers to char.o(.constdata__ZTSN4__rw23__rw_numpunct_impl_dataIcEE) for typeinfo name for __rw::__rw_numpunct_impl_data<char>
    char.o(.constdata__ZTIN4__rw23__rw_numpunct_impl_dataIcEE) refers to char.o(.constdata__ZTIN4__rw23__rw_numpunct_impl_baseE) for typeinfo for __rw::__rw_numpunct_impl_base
    char.o(.constdata__ZTIN4__rw23__rw_numpunct_impl_dataIcEE) refers to char.o(.constdata__ZTIN4__rw15__rw_punct_dataIcEE) for typeinfo for __rw::__rw_punct_data<char>
    char.o(.constdata__ZTIN4__rw17__rw_synchronizedE) refers to lib_rtti_impl.o(.constdata__ZTVN10__cxxabiv117__class_type_infoE) for vtable for __cxxabiv1::__class_type_info
    char.o(.constdata__ZTIN4__rw17__rw_synchronizedE) refers to char.o(.constdata__ZTSN4__rw17__rw_synchronizedE) for typeinfo name for __rw::__rw_synchronized
    char.o(.constdata__ZTIN4__rw23__rw_numpunct_impl_baseE) refers to lib_rtti_impl.o(.constdata__ZTVN10__cxxabiv117__class_type_infoE) for vtable for __cxxabiv1::__class_type_info
    char.o(.constdata__ZTIN4__rw23__rw_numpunct_impl_baseE) refers to char.o(.constdata__ZTSN4__rw23__rw_numpunct_impl_baseE) for typeinfo name for __rw::__rw_numpunct_impl_base
    char.o(.constdata__ZTIN4__rw15__rw_punct_dataIcEE) refers to lib_rtti_impl.o(.constdata__ZTVN10__cxxabiv117__class_type_infoE) for vtable for __cxxabiv1::__class_type_info
    char.o(.constdata__ZTIN4__rw15__rw_punct_dataIcEE) refers to char.o(.constdata__ZTSN4__rw15__rw_punct_dataIcEE) for typeinfo name for __rw::__rw_punct_data<char>
    char.o(i._ZNSt12ctype_bynameIcED1Ev) refers to char.o(i._ZNSt5ctypeIcED1Ev) for std::ctype<char>::~ctype()
    char.o(.ARM.exidx) refers to char.o(i._ZNSt12ctype_bynameIcED1Ev) for i._ZNSt12ctype_bynameIcED1Ev
    char.o(i._ZNSt12ctype_bynameIcED0Ev) refers to char.o(i._ZNSt12ctype_bynameIcED1Ev) for std::ctype_byname<char>::~ctype_byname()
    char.o(i._ZNSt12ctype_bynameIcED0Ev) refers to delete.o(i._ZdlPv) for operator delete (void*)
    char.o(.ARM.exidx) refers to char.o(i._ZNSt12ctype_bynameIcED0Ev) for i._ZNSt12ctype_bynameIcED0Ev
    char.o(i.__ARM_common_noexcept_landing) refers to arm_exceptions_callterm.o(.text) for __cxa_call_terminate
    char.o(.ARM.exidx) refers to char.o(i.__ARM_common_noexcept_landing) for i.__ARM_common_noexcept_landing
    locale.o(.constdata__ZTVSt14codecvt_bynameIwcSt11__mbstate_tE) refers to locale.o(.constdata__ZTISt14codecvt_bynameIwcSt11__mbstate_tE) for typeinfo for std::codecvt_byname<wchar_t, char, std::__mbstate_t>
    locale.o(.constdata__ZTVSt14codecvt_bynameIwcSt11__mbstate_tE) refers to locale.o(i._ZNSt14codecvt_bynameIwcSt11__mbstate_tED1Ev) for std::codecvt_byname<wchar_t, char, std::__mbstate_t>::~codecvt_byname()
    locale.o(.constdata__ZTVSt14codecvt_bynameIwcSt11__mbstate_tE) refers to locale.o(i._ZNSt14codecvt_bynameIwcSt11__mbstate_tED0Ev) for std::codecvt_byname<wchar_t, char, std::__mbstate_t>::~codecvt_byname__deallocating()
    locale.o(.constdata__ZTVSt14codecvt_bynameIwcSt11__mbstate_tE) refers to char.o(i._ZN4__rw15__rw_facet_base12_C_initfacetERKSt6locale) for __rw::__rw_facet_base::_C_initfacet(const std::locale&)
    locale.o(.constdata__ZTVSt14codecvt_bynameIwcSt11__mbstate_tE) refers to locale.o(i._ZNKSt14codecvt_bynameIwcSt11__mbstate_tE6do_outERS0_PKwS4_RS4_PcS6_RS6_) for std::codecvt_byname<wchar_t, char, std::__mbstate_t>::do_out(std::__mbstate_t&, const wchar_t*, const wchar_t*, const wchar_t*&, char*, char*, char*&) const
    locale.o(.constdata__ZTVSt14codecvt_bynameIwcSt11__mbstate_tE) refers to locale.o(i._ZNKSt14codecvt_bynameIwcSt11__mbstate_tE5do_inERS0_PKcS4_RS4_PwS6_RS6_) for std::codecvt_byname<wchar_t, char, std::__mbstate_t>::do_in(std::__mbstate_t&, const char*, const char*, const char*&, wchar_t*, wchar_t*, wchar_t*&) const
    locale.o(.constdata__ZTVSt14codecvt_bynameIwcSt11__mbstate_tE) refers to locale.o(i._ZNKSt14codecvt_bynameIwcSt11__mbstate_tE10do_unshiftERS0_PcS3_RS3_) for std::codecvt_byname<wchar_t, char, std::__mbstate_t>::do_unshift(std::__mbstate_t&, char*, char*, char*&) const
    locale.o(.constdata__ZTVSt14codecvt_bynameIwcSt11__mbstate_tE) refers to locale.o(i._ZNKSt14codecvt_bynameIwcSt11__mbstate_tE16do_always_noconvEv) for std::codecvt_byname<wchar_t, char, std::__mbstate_t>::do_always_noconv() const
    locale.o(.constdata__ZTVSt14codecvt_bynameIwcSt11__mbstate_tE) refers to locale.o(i._ZNKSt14codecvt_bynameIwcSt11__mbstate_tE11do_encodingEv) for std::codecvt_byname<wchar_t, char, std::__mbstate_t>::do_encoding() const
    locale.o(.constdata__ZTVSt14codecvt_bynameIwcSt11__mbstate_tE) refers to locale.o(i._ZNKSt7codecvtIwcSt11__mbstate_tE9do_lengthERKS0_PKcS5_j) for std::codecvt<wchar_t, char, std::__mbstate_t>::do_length(const std::__mbstate_t&, const char*, const char*, unsigned) const
    locale.o(.constdata__ZTVSt14codecvt_bynameIwcSt11__mbstate_tE) refers to locale.o(i._ZNKSt14codecvt_bynameIwcSt11__mbstate_tE13do_max_lengthEv) for std::codecvt_byname<wchar_t, char, std::__mbstate_t>::do_max_length() const
    locale.o(t._ZNSs11_C_allocateEjjj) refers to char.o(t._ZSt3maxIjERKT_S2_S2_) for const T1& std::max<unsigned>(const T1&, const T1&)
    locale.o(t._ZNSs11_C_allocateEjjj) refers to char.o(t._ZNSs9_C_getRepEjj) for std::basic_string<char, std::char_traits<char>, std::allocator<char>>::_C_getRep(unsigned, unsigned)
    locale.o(.ARM.exidx) refers to locale.o(t._ZNSs11_C_allocateEjjj) for t._ZNSs11_C_allocateEjjj
    locale.o(.ARM.exidx) refers to unwind_pr0.o(.text) for __aeabi_unwind_cpp_pr0
    locale.o(t._ZNSsC1EPKcRKSaIcE) refers to strlen.o(.text) for strlen
    locale.o(t._ZNSsC1EPKcRKSaIcE) refers to locale.o(t._ZNSs11_C_allocateEjjj) for std::basic_string<char, std::char_traits<char>, std::allocator<char>>::_C_allocate(unsigned, unsigned, unsigned)
    locale.o(t._ZNSsC1EPKcRKSaIcE) refers to char.o(i._ZNSt11char_traitsIcE4copyEPcPKcj) for std::char_traits<char>::copy(char*, const char*, unsigned)
    locale.o(t._ZNSsC1EPKcRKSaIcE) refers to vendor.o(.bss__ZNSs9__nullrefE) for std::basic_string<char, std::char_traits<char>, std::allocator<char>>::__nullref
    locale.o(.ARM.exidx) refers to locale.o(t._ZNSsC1EPKcRKSaIcE) for t._ZNSsC1EPKcRKSaIcE
    locale.o(.ARM.exidx) refers to unwind_pr0.o(.text) for __aeabi_unwind_cpp_pr0
    locale.o(t._ZNSsaSERKSs) refers to char.o(t._ZN4__rw12__string_refIcSt11char_traitsIcESaIcEE10_C_inc_refEv) for __rw::__string_ref<char, std::char_traits<char>, std::allocator<char>>::_C_inc_ref()
    locale.o(t._ZNSsaSERKSs) refers to char.o(t._ZNSs9_C_unlinkEv) for std::basic_string<char, std::char_traits<char>, std::allocator<char>>::_C_unlink()
    locale.o(t._ZNSsaSERKSs) refers to locale.o(t._ZNSs7replaceEjjPKcj) for std::basic_string<char, std::char_traits<char>, std::allocator<char>>::replace(unsigned, unsigned, const char*, unsigned)
    locale.o(.ARM.exidx) refers to locale.o(t._ZNSsaSERKSs) for t._ZNSsaSERKSs
    locale.o(.ARM.exidx) refers to unwind_pr0.o(.text) for __aeabi_unwind_cpp_pr0
    locale.o(t._ZNSsaSEPKc) refers to strlen.o(.text) for strlen
    locale.o(t._ZNSsaSEPKc) refers to locale.o(t._ZNSs7replaceEjjPKcj) for std::basic_string<char, std::char_traits<char>, std::allocator<char>>::replace(unsigned, unsigned, const char*, unsigned)
    locale.o(t._ZNSsaSEPKc) refers to char.o(t._ZNSs9_C_unlinkEv) for std::basic_string<char, std::char_traits<char>, std::allocator<char>>::_C_unlink()
    locale.o(t._ZNSsaSEPKc) refers to vendor.o(.bss__ZNSs9__nullrefE) for std::basic_string<char, std::char_traits<char>, std::allocator<char>>::__nullref
    locale.o(.ARM.exidx) refers to locale.o(t._ZNSsaSEPKc) for t._ZNSsaSEPKc
    locale.o(.ARM.exidx) refers to unwind_pr0.o(.text) for __aeabi_unwind_cpp_pr0
    locale.o(i._ZN4__rw15__rw_locale_impC1EPKcjj) refers to array_new.o(i._Znaj) for operator new[] (unsigned)
    locale.o(i._ZN4__rw15__rw_locale_impC1EPKcjj) refers to strlen.o(.text) for strlen
    locale.o(i._ZN4__rw15__rw_locale_impC1EPKcjj) refers to memcpy.o(.text) for memcpy
    locale.o(i._ZN4__rw15__rw_locale_impC1EPKcjj) refers to locale.o(t._ZNSsC1ERKSaIcE) for std::basic_string<char, std::char_traits<char>, std::allocator<char>>::basic_string(const std::allocator<char>&)
    locale.o(i._ZN4__rw15__rw_locale_impC1EPKcjj) refers to aeabi_vec_new_cookie.o(i.__aeabi_vec_new_cookie) for __aeabi_vec_new_cookie
    locale.o(i._ZN4__rw15__rw_locale_impC1EPKcjj) refers to locale.o(t._ZNSsaSERKSs) for std::basic_string<char, std::char_traits<char>, std::allocator<char>>::operator =(const std::basic_string<char, std::char_traits<char>, std::allocator<char>>&)
    locale.o(i._ZN4__rw15__rw_locale_impC1EPKcjj) refers to aeabi_vec_delete_noexceptions.o(.text) for __aeabi_vec_delete
    locale.o(i._ZN4__rw15__rw_locale_impC1EPKcjj) refers to char.o(t._ZNSsD1Ev) for std::basic_string<char, std::char_traits<char>, std::allocator<char>>::~basic_string()
    locale.o(i._ZN4__rw15__rw_locale_impC1EPKcjj) refers to locale.o(i.<Func5>) for <Func5>
    locale.o(i._ZN4__rw15__rw_locale_impC1EPKcjj.clean) refers to char.o(t._ZNSsD1Ev) for std::basic_string<char, std::char_traits<char>, std::allocator<char>>::~basic_string()
    locale.o(i._ZN4__rw15__rw_locale_impC1EPKcjj.clean) refers to locale.o(t._ZN4__rw18__rw_locale_vectorIPNS_15__rw_facet_baseEED1Ev) for __rw::__rw_locale_vector<__rw::__rw_facet_base*>::~__rw_locale_vector()
    locale.o(i._ZN4__rw15__rw_locale_impC1EPKcjj.clean) refers to locale.o(t._ZN4__rw18__rw_locale_vectorISsED1Ev) for __rw::__rw_locale_vector<std::basic_string<char, std::char_traits<char>, std::allocator<char>>>::~__rw_locale_vector()
    locale.o(i._ZN4__rw15__rw_locale_impC1EPKcjj.clean) refers to arm_exceptions_cleanup.o(.emb_text) for __cxa_end_cleanup
    locale.o(.ARM.extab) refers to locale.o(i._ZN4__rw15__rw_locale_impC1EPKcjj.clean) for i._ZN4__rw15__rw_locale_impC1EPKcjj.clean
    locale.o(.ARM.exidx) refers to locale.o(i._ZN4__rw15__rw_locale_impC1EPKcjj) for i._ZN4__rw15__rw_locale_impC1EPKcjj
    locale.o(.ARM.exidx) refers to unwind_pr0.o(.text) for __aeabi_unwind_cpp_pr0
    locale.o(.ARM.exidx) refers to locale.o(.ARM.extab) for .extab._ZN4__rw15__rw_locale_impC1EPKcjj
    locale.o(.ARM.exidx) refers to locale.o(i._ZN4__rw15__rw_locale_impC1EPKcjj.clean) for i._ZN4__rw15__rw_locale_impC1EPKcjj.clean
    locale.o(i._ZNSt6locale16_C_remove_facetsEi) refers to vendor.o(i._ZN4__rw15__rw_locale_imp15_C_map_categoryEi) for __rw::__rw_locale_imp::_C_map_category(int)
    locale.o(.ARM.exidx) refers to locale.o(i._ZNSt6locale16_C_remove_facetsEi) for i._ZNSt6locale16_C_remove_facetsEi
    locale.o(.ARM.exidx) refers to unwind_pr0.o(.text) for __aeabi_unwind_cpp_pr0
    locale.o(i._ZN4__rw15__rw_locale_impC1ERKS0_PKcj) refers to aeabi_vec_new_cookie.o(i.__aeabi_vec_new_cookie) for __aeabi_vec_new_cookie
    locale.o(i._ZN4__rw15__rw_locale_impC1ERKS0_PKcj) refers to locale.o(t._ZNSsaSERKSs) for std::basic_string<char, std::char_traits<char>, std::allocator<char>>::operator =(const std::basic_string<char, std::char_traits<char>, std::allocator<char>>&)
    locale.o(i._ZN4__rw15__rw_locale_impC1ERKS0_PKcj) refers to array_new.o(i._Znaj) for operator new[] (unsigned)
    locale.o(i._ZN4__rw15__rw_locale_impC1ERKS0_PKcj) refers to strlen.o(.text) for strlen
    locale.o(i._ZN4__rw15__rw_locale_impC1ERKS0_PKcj) refers to memcpy.o(.text) for memcpy
    locale.o(i._ZN4__rw15__rw_locale_impC1ERKS0_PKcj) refers to char.o(t._ZNSsD1Ev) for std::basic_string<char, std::char_traits<char>, std::allocator<char>>::~basic_string()
    locale.o(i._ZN4__rw15__rw_locale_impC1ERKS0_PKcj) refers to locale.o(i.<Func5>) for <Func5>
    locale.o(i._ZN4__rw15__rw_locale_impC1ERKS0_PKcj.clean) refers to locale.o(t._ZN4__rw18__rw_locale_vectorIPNS_15__rw_facet_baseEED1Ev) for __rw::__rw_locale_vector<__rw::__rw_facet_base*>::~__rw_locale_vector()
    locale.o(i._ZN4__rw15__rw_locale_impC1ERKS0_PKcj.clean) refers to locale.o(t._ZN4__rw18__rw_locale_vectorISsED1Ev) for __rw::__rw_locale_vector<std::basic_string<char, std::char_traits<char>, std::allocator<char>>>::~__rw_locale_vector()
    locale.o(i._ZN4__rw15__rw_locale_impC1ERKS0_PKcj.clean) refers to arm_exceptions_cleanup.o(.emb_text) for __cxa_end_cleanup
    locale.o(.ARM.extab) refers to locale.o(i._ZN4__rw15__rw_locale_impC1ERKS0_PKcj.clean) for i._ZN4__rw15__rw_locale_impC1ERKS0_PKcj.clean
    locale.o(.ARM.exidx) refers to locale.o(i._ZN4__rw15__rw_locale_impC1ERKS0_PKcj) for i._ZN4__rw15__rw_locale_impC1ERKS0_PKcj
    locale.o(.ARM.exidx) refers to unwind_pr0.o(.text) for __aeabi_unwind_cpp_pr0
    locale.o(.ARM.exidx) refers to locale.o(.ARM.extab) for .extab._ZN4__rw15__rw_locale_impC1ERKS0_PKcj
    locale.o(.ARM.exidx) refers to locale.o(i._ZN4__rw15__rw_locale_impC1ERKS0_PKcj.clean) for i._ZN4__rw15__rw_locale_impC1ERKS0_PKcj.clean
    locale.o(i._ZNSt6localeD1Ev) refers to locale.o(i._ZN4__rw15__rw_locale_impD1Ev) for __rw::__rw_locale_imp::~__rw_locale_imp()
    locale.o(i._ZNSt6localeD1Ev) refers to delete.o(i._ZdlPv) for operator delete (void*)
    locale.o(.ARM.exidx) refers to locale.o(i._ZNSt6localeD1Ev) for i._ZNSt6localeD1Ev
    locale.o(t._ZN4__rw18__rw_locale_vectorIPNS_15__rw_facet_baseEE6resizeEjRKS2_) refers to array_new.o(i._Znaj) for operator new[] (unsigned)
    locale.o(t._ZN4__rw18__rw_locale_vectorIPNS_15__rw_facet_baseEE6resizeEjRKS2_) refers to array_del.o(i._ZdaPv) for operator delete[] (void*)
    locale.o(.ARM.exidx) refers to locale.o(t._ZN4__rw18__rw_locale_vectorIPNS_15__rw_facet_baseEE6resizeEjRKS2_) for t._ZN4__rw18__rw_locale_vectorIPNS_15__rw_facet_baseEE6resizeEjRKS2_
    locale.o(.ARM.exidx) refers to unwind_pr0.o(.text) for __aeabi_unwind_cpp_pr0
    locale.o(i._ZNSt14codecvt_bynameIwcSt11__mbstate_tED1Ev) refers to locale.o(i._ZNSt7codecvtIwcSt11__mbstate_tED1Ev) for std::codecvt<wchar_t, char, std::__mbstate_t>::~codecvt()
    locale.o(.ARM.exidx) refers to locale.o(i._ZNSt14codecvt_bynameIwcSt11__mbstate_tED1Ev) for i._ZNSt14codecvt_bynameIwcSt11__mbstate_tED1Ev
    locale.o(t._ZNSsC1ERKSaIcE) refers to vendor.o(.bss__ZNSs9__nullrefE) for std::basic_string<char, std::char_traits<char>, std::allocator<char>>::__nullref
    locale.o(.ARM.exidx) refers to locale.o(t._ZNSsC1ERKSaIcE) for t._ZNSsC1ERKSaIcE
    locale.o(t._ZNSs7replaceEjjPKcj) refers to char.o(t._ZNSs7replaceEjjPKcjjj) for std::basic_string<char, std::char_traits<char>, std::allocator<char>>::replace(unsigned, unsigned, const char*, unsigned, unsigned, unsigned)
    locale.o(.ARM.exidx) refers to locale.o(t._ZNSs7replaceEjjPKcj) for t._ZNSs7replaceEjjPKcj
    locale.o(.ARM.exidx) refers to unwind_pr0.o(.text) for __aeabi_unwind_cpp_pr0
    locale.o(t._ZN4__rw18__rw_locale_vectorIPNS_15__rw_facet_baseEED1Ev) refers to array_del.o(i._ZdaPv) for operator delete[] (void*)
    locale.o(.ARM.exidx) refers to locale.o(t._ZN4__rw18__rw_locale_vectorIPNS_15__rw_facet_baseEED1Ev) for t._ZN4__rw18__rw_locale_vectorIPNS_15__rw_facet_baseEED1Ev
    locale.o(t._ZN4__rw18__rw_locale_vectorISsED1Ev) refers to aeabi_vec_delete_noexceptions.o(.text) for __aeabi_vec_delete
    locale.o(t._ZN4__rw18__rw_locale_vectorISsED1Ev) refers to char.o(t._ZNSsD1Ev) for std::basic_string<char, std::char_traits<char>, std::allocator<char>>::~basic_string()
    locale.o(.ARM.extab) refers to arm_callunex_noexceptions.o(.text) for __cxa_call_unexpected
    locale.o(.ARM.exidx) refers to locale.o(t._ZN4__rw18__rw_locale_vectorISsED1Ev) for t._ZN4__rw18__rw_locale_vectorISsED1Ev
    locale.o(.ARM.exidx) refers to unwind_pr0.o(.text) for __aeabi_unwind_cpp_pr0
    locale.o(.ARM.exidx) refers to locale.o(.ARM.extab) for .extab._ZN4__rw18__rw_locale_vectorISsED1Ev
    locale.o(i._ZN4__rw15__rw_locale_impD1Ev) refers to array_del.o(i._ZdaPv) for operator delete[] (void*)
    locale.o(i._ZN4__rw15__rw_locale_impD1Ev) refers to locale.o(t._ZN4__rw18__rw_locale_vectorIPNS_15__rw_facet_baseEED1Ev) for __rw::__rw_locale_vector<__rw::__rw_facet_base*>::~__rw_locale_vector()
    locale.o(i._ZN4__rw15__rw_locale_impD1Ev) refers to locale.o(t._ZN4__rw18__rw_locale_vectorISsED1Ev) for __rw::__rw_locale_vector<std::basic_string<char, std::char_traits<char>, std::allocator<char>>>::~__rw_locale_vector()
    locale.o(.ARM.exidx) refers to locale.o(i._ZN4__rw15__rw_locale_impD1Ev) for i._ZN4__rw15__rw_locale_impD1Ev
    locale.o(i._ZNSt6localeC1EPN4__rw15__rw_locale_impE) refers to locale.o(i._ZNSt6locale7_C_initEv) for std::locale::_C_init()
    locale.o(i._ZNSt6localeC1EPN4__rw15__rw_locale_impE) refers to locale.o(.data) for .data
    locale.o(.ARM.exidx) refers to locale.o(i._ZNSt6localeC1EPN4__rw15__rw_locale_impE) for i._ZNSt6localeC1EPN4__rw15__rw_locale_impE
    locale.o(.ARM.exidx) refers to unwind_pr0.o(.text) for __aeabi_unwind_cpp_pr0
    locale.o(.ARM.exidx) refers to locale.o(i._ZNKSt7codecvtIwcSt11__mbstate_tE9do_lengthERKS0_PKcS5_j) for i._ZNKSt7codecvtIwcSt11__mbstate_tE9do_lengthERKS0_PKcS5_j
    locale.o(.ARM.exidx) refers to locale.o(i._ZNSt7codecvtIwcSt11__mbstate_tED1Ev) for i._ZNSt7codecvtIwcSt11__mbstate_tED1Ev
    locale.o(.ARM.exidx) refers to locale.o(i._ZNKSt14codecvt_bynameIwcSt11__mbstate_tE10do_unshiftERS0_PcS3_RS3_) for i._ZNKSt14codecvt_bynameIwcSt11__mbstate_tE10do_unshiftERS0_PcS3_RS3_
    locale.o(.ARM.exidx) refers to unwind_pr0.o(.text) for __aeabi_unwind_cpp_pr0
    locale.o(i._ZNKSt14codecvt_bynameIwcSt11__mbstate_tE11do_encodingEv) refers to mbrtowc.o(.text) for mbrtowc
    locale.o(.ARM.extab) refers to arm_callunex_noexceptions.o(.text) for __cxa_call_unexpected
    locale.o(.ARM.exidx) refers to locale.o(i._ZNKSt14codecvt_bynameIwcSt11__mbstate_tE11do_encodingEv) for i._ZNKSt14codecvt_bynameIwcSt11__mbstate_tE11do_encodingEv
    locale.o(.ARM.exidx) refers to unwind_pr0.o(.text) for __aeabi_unwind_cpp_pr0
    locale.o(.ARM.exidx) refers to locale.o(.ARM.extab) for .extab._ZNKSt14codecvt_bynameIwcSt11__mbstate_tE11do_encodingEv
    locale.o(.ARM.exidx) refers to locale.o(i._ZNKSt14codecvt_bynameIwcSt11__mbstate_tE16do_always_noconvEv) for i._ZNKSt14codecvt_bynameIwcSt11__mbstate_tE16do_always_noconvEv
    locale.o(i._ZNKSt14codecvt_bynameIwcSt11__mbstate_tE13do_max_lengthEv) refers to _mbcurmax.o(.text) for __aeabi_MB_CUR_MAX
    locale.o(.ARM.exidx) refers to locale.o(i._ZNKSt14codecvt_bynameIwcSt11__mbstate_tE13do_max_lengthEv) for i._ZNKSt14codecvt_bynameIwcSt11__mbstate_tE13do_max_lengthEv
    locale.o(i._ZNSt14codecvt_bynameIwcSt11__mbstate_tED0Ev) refers to locale.o(i._ZNSt14codecvt_bynameIwcSt11__mbstate_tED1Ev) for std::codecvt_byname<wchar_t, char, std::__mbstate_t>::~codecvt_byname()
    locale.o(i._ZNSt14codecvt_bynameIwcSt11__mbstate_tED0Ev) refers to delete.o(i._ZdlPv) for operator delete (void*)
    locale.o(.ARM.exidx) refers to locale.o(i._ZNSt14codecvt_bynameIwcSt11__mbstate_tED0Ev) for i._ZNSt14codecvt_bynameIwcSt11__mbstate_tED0Ev
    locale.o(.constdata__ZTISt14codecvt_bynameIwcSt11__mbstate_tE) refers to lib_rtti_impl.o(.constdata__ZTVN10__cxxabiv120__si_class_type_infoE) for vtable for __cxxabiv1::__si_class_type_info
    locale.o(.constdata__ZTISt14codecvt_bynameIwcSt11__mbstate_tE) refers to locale.o(.constdata__ZTSSt14codecvt_bynameIwcSt11__mbstate_tE) for typeinfo name for std::codecvt_byname<wchar_t, char, std::__mbstate_t>
    locale.o(.constdata__ZTISt14codecvt_bynameIwcSt11__mbstate_tE) refers to locale.o(.constdata__ZTISt7codecvtIwcSt11__mbstate_tE) for typeinfo for std::codecvt<wchar_t, char, std::__mbstate_t>
    locale.o(.constdata__ZTISt7codecvtIwcSt11__mbstate_tE) refers to lib_rtti_impl.o(.constdata__ZTVN10__cxxabiv121__vmi_class_type_infoE) for vtable for __cxxabiv1::__vmi_class_type_info
    locale.o(.constdata__ZTISt7codecvtIwcSt11__mbstate_tE) refers to locale.o(.constdata__ZTSSt7codecvtIwcSt11__mbstate_tE) for typeinfo name for std::codecvt<wchar_t, char, std::__mbstate_t>
    locale.o(.constdata__ZTISt7codecvtIwcSt11__mbstate_tE) refers to char.o(.constdata__ZTINSt6locale5facetE) for typeinfo for std::locale::facet
    locale.o(.constdata__ZTISt7codecvtIwcSt11__mbstate_tE) refers to locale.o(.constdata__ZTISt12codecvt_base) for typeinfo for std::codecvt_base
    locale.o(.constdata__ZTISt12codecvt_base) refers to lib_rtti_impl.o(.constdata__ZTVN10__cxxabiv117__class_type_infoE) for vtable for __cxxabiv1::__class_type_info
    locale.o(.constdata__ZTISt12codecvt_base) refers to locale.o(.constdata__ZTSSt12codecvt_base) for typeinfo name for std::codecvt_base
    messages.o(i._ZSt13__rw_get_catsv) refers to cxa_guard_acquire.o(i.__cxa_guard_acquire) for __cxa_guard_acquire
    messages.o(i._ZSt13__rw_get_catsv) refers to aeabi_atexit.o(.text) for __aeabi_atexit
    messages.o(i._ZSt13__rw_get_catsv) refers to messages.o(.data__ZZSt13__rw_get_catsvE11__open_cats) for guard variable for std::__rw_get_cats()::__open_cats
    messages.o(i._ZSt13__rw_get_catsv) refers to messages.o(t._ZN4__rw18__rw_locale_vectorISt18__rw_open_cat_dataED1Ev) for __rw::__rw_locale_vector<std::__rw_open_cat_data>::~__rw_locale_vector()
    messages.o(i._ZSt13__rw_get_catsv.clean) refers to arm_exceptions_cleanup.o(.emb_text) for __cxa_end_cleanup
    messages.o(i._ZSt13__rw_get_catsv.clean) refers to messages.o(.data__ZZSt13__rw_get_catsvE11__open_cats) for guard variable for std::__rw_get_cats()::__open_cats
    messages.o(.ARM.extab) refers to messages.o(i._ZSt13__rw_get_catsv.clean) for i._ZSt13__rw_get_catsv.clean
    messages.o(.ARM.exidx) refers to messages.o(i._ZSt13__rw_get_catsv) for i._ZSt13__rw_get_catsv
    messages.o(.ARM.exidx) refers to unwind_pr0.o(.text) for __aeabi_unwind_cpp_pr0
    messages.o(.ARM.exidx) refers to messages.o(.ARM.extab) for .extab._ZSt13__rw_get_catsv
    messages.o(.ARM.exidx) refers to messages.o(i._ZSt13__rw_get_catsv.clean) for i._ZSt13__rw_get_catsv.clean
    messages.o(t._ZN4__rw18__rw_locale_vectorISt18__rw_open_cat_dataE6resizeEj) refers to messages.o(i._ZNSt18__rw_open_cat_dataC1Ev) for std::__rw_open_cat_data::__rw_open_cat_data()
    messages.o(t._ZN4__rw18__rw_locale_vectorISt18__rw_open_cat_dataE6resizeEj) refers to aeabi_vec_new_cookie.o(i.__aeabi_vec_new_cookie) for __aeabi_vec_new_cookie
    messages.o(t._ZN4__rw18__rw_locale_vectorISt18__rw_open_cat_dataE6resizeEj) refers to messages.o(i._ZNSt18__rw_open_cat_dataaSERKS_) for std::__rw_open_cat_data::operator =(const std::__rw_open_cat_data&)
    messages.o(t._ZN4__rw18__rw_locale_vectorISt18__rw_open_cat_dataE6resizeEj) refers to aeabi_vec_delete_noexceptions.o(.text) for __aeabi_vec_delete
    messages.o(t._ZN4__rw18__rw_locale_vectorISt18__rw_open_cat_dataE6resizeEj) refers to messages.o(i._ZNSt18__rw_open_cat_dataD1Ev) for std::__rw_open_cat_data::~__rw_open_cat_data()
    messages.o(t._ZN4__rw18__rw_locale_vectorISt18__rw_open_cat_dataE6resizeEj.clean) refers to messages.o(i._ZNSt18__rw_open_cat_dataD1Ev) for std::__rw_open_cat_data::~__rw_open_cat_data()
    messages.o(t._ZN4__rw18__rw_locale_vectorISt18__rw_open_cat_dataE6resizeEj.clean) refers to arm_exceptions_cleanup.o(.emb_text) for __cxa_end_cleanup
    messages.o(.ARM.extab) refers to messages.o(t._ZN4__rw18__rw_locale_vectorISt18__rw_open_cat_dataE6resizeEj.clean) for t._ZN4__rw18__rw_locale_vectorISt18__rw_open_cat_dataE6resizeEj.clean
    messages.o(.ARM.exidx) refers to messages.o(t._ZN4__rw18__rw_locale_vectorISt18__rw_open_cat_dataE6resizeEj) for t._ZN4__rw18__rw_locale_vectorISt18__rw_open_cat_dataE6resizeEj
    messages.o(.ARM.exidx) refers to unwind_pr0.o(.text) for __aeabi_unwind_cpp_pr0
    messages.o(.ARM.exidx) refers to messages.o(.ARM.extab) for .extab._ZN4__rw18__rw_locale_vectorISt18__rw_open_cat_dataE6resizeEj
    messages.o(.ARM.exidx) refers to messages.o(t._ZN4__rw18__rw_locale_vectorISt18__rw_open_cat_dataE6resizeEj.clean) for t._ZN4__rw18__rw_locale_vectorISt18__rw_open_cat_dataE6resizeEj.clean
    messages.o(t._ZN4__rw18__rw_locale_vectorISt18__rw_open_cat_dataED1Ev) refers to aeabi_vec_delete_noexceptions.o(.text) for __aeabi_vec_delete
    messages.o(t._ZN4__rw18__rw_locale_vectorISt18__rw_open_cat_dataED1Ev) refers to messages.o(i._ZNSt18__rw_open_cat_dataD1Ev) for std::__rw_open_cat_data::~__rw_open_cat_data()
    messages.o(.ARM.extab) refers to arm_callunex_noexceptions.o(.text) for __cxa_call_unexpected
    messages.o(.ARM.extab) refers to arm_exceptions_callterm.o(.text) for __cxa_call_terminate
    messages.o(.ARM.extab) refers to char.o(i.__ARM_common_noexcept_landing) for __ARM_common_noexcept_landing
    messages.o(.ARM.exidx) refers to messages.o(t._ZN4__rw18__rw_locale_vectorISt18__rw_open_cat_dataED1Ev) for t._ZN4__rw18__rw_locale_vectorISt18__rw_open_cat_dataED1Ev
    messages.o(.ARM.exidx) refers to unwind_pr0.o(.text) for __aeabi_unwind_cpp_pr0
    messages.o(.ARM.exidx) refers to messages.o(.ARM.extab) for .extab._ZN4__rw18__rw_locale_vectorISt18__rw_open_cat_dataED1Ev
    messages.o(i._ZNSt18__rw_open_cat_dataD1Ev) refers to locale.o(i._ZNSt6localeD1Ev) for std::locale::~locale()
    messages.o(.ARM.exidx) refers to messages.o(i._ZNSt18__rw_open_cat_dataD1Ev) for i._ZNSt18__rw_open_cat_dataD1Ev
    messages.o(i._ZNSt18__rw_open_cat_dataC1Ev) refers to locale.o(i._ZNSt6locale7classicEv) for std::locale::classic()
    messages.o(i._ZNSt18__rw_open_cat_dataC1Ev) refers to messages.o(i._ZNSt6localeC1ERKS_) for std::locale::locale(const std::locale&)
    messages.o(.ARM.exidx) refers to messages.o(i._ZNSt18__rw_open_cat_dataC1Ev) for i._ZNSt18__rw_open_cat_dataC1Ev
    messages.o(.ARM.exidx) refers to unwind_pr0.o(.text) for __aeabi_unwind_cpp_pr0
    messages.o(i._ZNSt18__rw_open_cat_dataaSERKS_) refers to locale.o(i._ZNSt6localeaSERKS_) for std::locale::operator =(const std::locale&)
    messages.o(.ARM.exidx) refers to messages.o(i._ZNSt18__rw_open_cat_dataaSERKS_) for i._ZNSt18__rw_open_cat_dataaSERKS_
    messages.o(.ARM.exidx) refers to messages.o(i._ZNSt6localeC1ERKS_) for i._ZNSt6localeC1ERKS_
    exception_dtor.o(.constdata__ZTVSt9exception) refers to exception_dtor.o(.constdata__ZTISt9exception) for typeinfo for std::exception
    exception_dtor.o(.constdata__ZTVSt9exception) refers to exception_dtor.o(i._ZNSt9exceptionD1Ev) for std::exception::~exception()
    exception_dtor.o(.constdata__ZTVSt9exception) refers to exception_dtor.o(i._ZNSt9exceptionD0Ev) for std::exception::~exception__deallocating()
    exception_dtor.o(.constdata__ZTVSt9exception) refers to exception_what.o(i._ZNKSt9exception4whatEv) for std::exception::what() const
    exception_dtor.o(.constdata__ZTISt9exception) refers to lib_rtti_impl.o(.constdata__ZTVN10__cxxabiv117__class_type_infoE) for vtable for __cxxabiv1::__class_type_info
    exception_dtor.o(.constdata__ZTISt9exception) refers to exception_dtor.o(.constdata__ZTSSt9exception) for typeinfo name for std::exception
    rwcats.o(t._ZN4__rw18__rw_locale_vectorIPNS_8__rw_catEED1Ev) refers to array_del.o(i._ZdaPv) for operator delete[] (void*)
    rwcats.o(.ARM.exidx) refers to rwcats.o(t._ZN4__rw18__rw_locale_vectorIPNS_8__rw_catEED1Ev) for t._ZN4__rw18__rw_locale_vectorIPNS_8__rw_catEED1Ev


==============================================================================

Removing Unused input sections from the image.

    Removing hal_wait.o(i._Z7halWaitt), (2 bytes).
    Removing hal_wait.o(.ARM.exidx), (8 bytes).
    Removing nrk_eeprom.o(i._Z19read_eeprom_aes_keyPh), (4 bytes).
    Removing nrk_eeprom.o(i._Z19read_eeprom_channelPh), (4 bytes).
    Removing nrk_eeprom.o(i._Z20nrk_eeprom_read_bytet), (2 bytes).
    Removing nrk_eeprom.o(i._Z20write_eeprom_aes_keyPh), (4 bytes).
    Removing nrk_eeprom.o(i._Z21nrk_eeprom_write_byteth), (4 bytes).
    Removing nrk_eeprom.o(i._Z23read_eeprom_mac_addressPj), (6 bytes).
    Removing nrk_eeprom.o(i._Z26read_eeprom_load_img_pagesPh), (4 bytes).
    Removing nrk_eeprom.o(i._Z27write_eeprom_load_img_pagesPh), (4 bytes).
    Removing nrk_eeprom.o(i._Z34read_eeprom_current_image_checksumPh), (4 bytes).
    Removing nrk_eeprom.o(i._Z35write_eeprom_current_image_checksumPh), (4 bytes).
    Removing nrk_eeprom.o(.ARM.exidx), (8 bytes).
    Removing nrk_eeprom.o(.ARM.exidx), (8 bytes).
    Removing nrk_eeprom.o(.ARM.exidx), (8 bytes).
    Removing nrk_eeprom.o(.ARM.exidx), (8 bytes).
    Removing nrk_eeprom.o(.ARM.exidx), (8 bytes).
    Removing nrk_eeprom.o(.ARM.exidx), (8 bytes).
    Removing nrk_eeprom.o(.ARM.exidx), (8 bytes).
    Removing nrk_eeprom.o(.ARM.exidx), (8 bytes).
    Removing nrk_eeprom.o(.ARM.exidx), (8 bytes).
    Removing nrk_eeprom.o(.ARM.exidx), (8 bytes).
    Removing ulib.o(i._Z11nrk_kprintfPKc), (2 bytes).
    Removing ulib.o(i._Z11nrk_led_clri), (44 bytes).
    Removing ulib.o(i._Z11nrk_led_seti), (44 bytes).
    Removing ulib.o(i._Z11setup_uart2t), (56 bytes).
    Removing ulib.o(i._Z11setup_uart3j), (56 bytes).
    Removing ulib.o(i._Z12nrk_gpio_clrj), (66 bytes).
    Removing ulib.o(i._Z12nrk_gpio_geth), (68 bytes).
    Removing ulib.o(i._Z12nrk_gpio_setj), (66 bytes).
    Removing ulib.o(i._Z13GPIO_SetValuehj), (20 bytes).
    Removing ulib.o(i._Z14CLKPWR_GetPCLKj), (44 bytes).
    Removing ulib.o(i._Z14GPIO_ReadValueh), (14 bytes).
    Removing ulib.o(i._Z14nrk_get_buttonh), (2 bytes).
    Removing ulib.o(i._Z14nrk_setup_uartj), (4 bytes).
    Removing ulib.o(i._Z16nrk_gpio_pullupsh), (4 bytes).
    Removing ulib.o(i._Z17CLKPWR_GetPCLKSELj), (32 bytes).
    Removing ulib.o(i._Z17uart_set_divisorsP16LPC_UART_TypeDefj), (336 bytes).
    Removing ulib.o(i._Z18nrk_gpio_directionjh), (70 bytes).
    Removing ulib.o(i._Z19nrk_uart_data_readyh), (40 bytes).
    Removing ulib.o(i._Z21UART_ConfigStructInitP13UART_CFG_Type), (18 bytes).
    Removing ulib.o(i._Z22nrk_uart_rx_signal_getv), (6 bytes).
    Removing ulib.o(i._Z5getc2v), (16 bytes).
    Removing ulib.o(i._Z5getc3v), (16 bytes).
    Removing ulib.o(i._Z5putc2c), (16 bytes).
    Removing ulib.o(i._Z5putc3c), (16 bytes).
    Removing ulib.o(i._Z9UART_InitP16LPC_UART_TypeDefP13UART_CFG_Type), (208 bytes).
    Removing ulib.o(.ARM.exidx), (8 bytes).
    Removing ulib.o(.ARM.exidx), (8 bytes).
    Removing ulib.o(.ARM.exidx), (8 bytes).
    Removing ulib.o(.ARM.exidx), (8 bytes).
    Removing ulib.o(.ARM.exidx), (8 bytes).
    Removing ulib.o(.ARM.exidx), (8 bytes).
    Removing ulib.o(.ARM.exidx), (8 bytes).
    Removing ulib.o(.ARM.exidx), (8 bytes).
    Removing ulib.o(.ARM.exidx), (8 bytes).
    Removing ulib.o(.ARM.exidx), (8 bytes).
    Removing ulib.o(.ARM.exidx), (8 bytes).
    Removing ulib.o(.ARM.exidx), (8 bytes).
    Removing ulib.o(.ARM.exidx), (8 bytes).
    Removing ulib.o(.ARM.exidx), (8 bytes).
    Removing ulib.o(.ARM.exidx), (8 bytes).
    Removing ulib.o(.ARM.exidx), (8 bytes).
    Removing ulib.o(.ARM.exidx), (8 bytes).
    Removing ulib.o(.ARM.exidx), (8 bytes).
    Removing ulib.o(.ARM.exidx), (8 bytes).
    Removing ulib.o(.ARM.exidx), (8 bytes).
    Removing ulib.o(.ARM.exidx), (8 bytes).
    Removing ulib.o(.ARM.exidx), (8 bytes).
    Removing ulib.o(.ARM.exidx), (8 bytes).
    Removing ulib.o(.ARM.exidx), (8 bytes).
    Removing ulib.o(.ARM.exidx), (8 bytes).
    Removing ulib.o(.ARM.exidx), (8 bytes).
    Removing ulib.o(.ARM.exidx), (8 bytes).
    Removing ulib.o(.ARM.exidx), (8 bytes).
    Removing ulib.o(.ARM.exidx), (8 bytes).
    Removing ulib.o(.ARM.exidx), (8 bytes).
    Removing ulib.o(.ARM.exidx), (8 bytes).
    Removing ulib.o(.ARM.exidx), (8 bytes).
    Removing ulib.o(.ARM.exidx), (8 bytes).
    Removing ulib.o(.ARM.exidx), (8 bytes).
    Removing ulib.o(.ARM.exidx), (8 bytes).
    Removing ulib.o(.ARM.exidx), (8 bytes).
    Removing ulib.o(.ARM.exidx), (8 bytes).
    Removing ulib.o(.ARM.exidx), (8 bytes).
    Removing ulib.o(.ARM.exidx), (8 bytes).
    Removing ulib.o(.ARM.exidx), (8 bytes).
    Removing ulib.o(.ARM.exidx), (8 bytes).
    Removing nrk_cpu.o(i._Z16nrk_battery_savev), (2 bytes).
    Removing nrk_cpu.o(i._Z8nrk_idlev), (4 bytes).
    Removing nrk_cpu.o(i._Z9nrk_sleepv), (4 bytes).
    Removing nrk_cpu.o(.ARM.exidx), (8 bytes).
    Removing nrk_cpu.o(.ARM.exidx), (8 bytes).
    Removing nrk_cpu.o(.ARM.exidx), (8 bytes).
    Removing nrk_cpu.o(.ARM.exidx), (8 bytes).
    Removing nrk_cpu.o(.ARM.exidx), (8 bytes).
    Removing nrk_cpu.o(.ARM.exidx), (8 bytes).
    Removing nrk_cpu.o(.ARM.exidx), (8 bytes).
    Removing nrk_cpu.o(.ARM.exidx), (8 bytes).
    Removing nrk_cpu.o(.ARM.exidx), (8 bytes).
    Removing nrk_ext_int.o(i._Z18nrk_ext_int_enableh), (4 bytes).
    Removing nrk_ext_int.o(i._Z19nrk_ext_int_disableh), (4 bytes).
    Removing nrk_ext_int.o(i._Z21nrk_ext_int_configurehhPv), (4 bytes).
    Removing nrk_ext_int.o(.ARM.exidx), (8 bytes).
    Removing nrk_ext_int.o(.ARM.exidx), (8 bytes).
    Removing nrk_ext_int.o(.ARM.exidx), (8 bytes).
    Removing nrk_ext_int.o(.data), (4 bytes).
    Removing nrk_ext_int.o(.data), (4 bytes).
    Removing nrk_ext_int.o(.data), (4 bytes).
    Removing nrk_ext_int.o(.data), (4 bytes).
    Removing nrk_status.o(i._Z18_nrk_startup_errorv), (100 bytes).
    Removing nrk_status.o(.ARM.exidx), (8 bytes).
    Removing nrk_timer.o(i._Z17_nrk_os_timer_seth), (2 bytes).
    Removing nrk_timer.o(i._Z18_nrk_os_timer_stopv), (2 bytes).
    Removing nrk_timer.o(i._Z18nrk_timer_int_readh), (4 bytes).
    Removing nrk_timer.o(i._Z18nrk_timer_int_stoph), (6 bytes).
    Removing nrk_timer.o(i._Z19nrk_timer_int_reseth), (6 bytes).
    Removing nrk_timer.o(i._Z19nrk_timer_int_starth), (6 bytes).
    Removing nrk_timer.o(i._Z23nrk_timer_int_configurehttPv), (6 bytes).
    Removing nrk_timer.o(i._Z26_nrk_high_speed_timer_stopv), (2 bytes).
    Removing nrk_timer.o(i._Z27_nrk_high_speed_timer_startv), (2 bytes).
    Removing nrk_timer.o(.ARM.exidx), (8 bytes).
    Removing nrk_timer.o(.ARM.exidx), (8 bytes).
    Removing nrk_timer.o(.ARM.exidx), (8 bytes).
    Removing nrk_timer.o(.ARM.exidx), (8 bytes).
    Removing nrk_timer.o(.ARM.exidx), (8 bytes).
    Removing nrk_timer.o(.ARM.exidx), (8 bytes).
    Removing nrk_timer.o(.ARM.exidx), (8 bytes).
    Removing nrk_timer.o(.ARM.exidx), (8 bytes).
    Removing nrk_timer.o(.ARM.exidx), (8 bytes).
    Removing nrk_timer.o(.ARM.exidx), (8 bytes).
    Removing nrk_timer.o(.ARM.exidx), (8 bytes).
    Removing nrk_timer.o(.ARM.exidx), (8 bytes).
    Removing nrk_timer.o(.ARM.exidx), (8 bytes).
    Removing nrk_timer.o(.ARM.exidx), (8 bytes).
    Removing nrk_timer.o(.ARM.exidx), (8 bytes).
    Removing nrk_timer.o(.ARM.exidx), (8 bytes).
    Removing nrk_timer.o(.ARM.exidx), (8 bytes).
    Removing nrk_timer.o(.ARM.exidx), (8 bytes).
    Removing nrk_timer.o(.ARM.exidx), (8 bytes).
    Removing nrk_timer.o(.ARM.exidx), (8 bytes).
    Removing nrk_timer.o(.ARM.exidx), (8 bytes).
    Removing nrk_timer.o(.ARM.exidx), (8 bytes).
    Removing nrk_watchdog.o(i._Z18nrk_watchdog_checkv), (28 bytes).
    Removing nrk_watchdog.o(i._Z19nrk_watchdog_enablev), (56 bytes).
    Removing nrk_watchdog.o(i._Z20nrk_watchdog_disablev), (2 bytes).
    Removing nrk_watchdog.o(.ARM.exidx), (8 bytes).
    Removing nrk_watchdog.o(.ARM.exidx), (8 bytes).
    Removing nrk_watchdog.o(.ARM.exidx), (8 bytes).
    Removing nrk.o(i._Z11nrk_versionv), (4 bytes).
    Removing nrk.o(i._Z8nrk_haltv), (4 bytes).
    Removing nrk.o(.ARM.exidx), (8 bytes).
    Removing nrk.o(.ARM.exidx), (8 bytes).
    Removing nrk.o(.ARM.exidx), (8 bytes).
    Removing nrk.o(.ARM.exidx), (8 bytes).
    Removing nrk.o(.ARM.exidx), (8 bytes).
    Removing nrk.o(.ARM.exidx), (8 bytes).
    Removing nrk.o(.ARM.exidx), (8 bytes).
    Removing nrk.o(.ARM.exidx), (8 bytes).
    Removing nrk.o(.data), (1 bytes).
    Removing nrk.o(.data), (6 bytes).
    Removing nrk_driver.o(i._Z14nrk_get_statushh), (52 bytes).
    Removing nrk_driver.o(i._Z14nrk_set_statushhh), (52 bytes).
    Removing nrk_driver.o(i._Z19nrk_register_driverPFhhhPhhEh), (40 bytes).
    Removing nrk_driver.o(i._Z8nrk_openhh), (100 bytes).
    Removing nrk_driver.o(i._Z8nrk_readhPhh), (52 bytes).
    Removing nrk_driver.o(i._Z9nrk_closeh), (52 bytes).
    Removing nrk_driver.o(i._Z9nrk_writehPhh), (52 bytes).
    Removing nrk_driver.o(.ARM.exidx), (8 bytes).
    Removing nrk_driver.o(.ARM.exidx), (8 bytes).
    Removing nrk_driver.o(.ARM.exidx), (8 bytes).
    Removing nrk_driver.o(.ARM.exidx), (8 bytes).
    Removing nrk_driver.o(.ARM.exidx), (8 bytes).
    Removing nrk_driver.o(.ARM.exidx), (8 bytes).
    Removing nrk_driver.o(.ARM.exidx), (8 bytes).
    Removing nrk_driver.o(.data), (12 bytes).
    Removing nrk_error.o(i._Z10blink_dashv), (34 bytes).
    Removing nrk_error.o(i._Z13nrk_errno_getv), (12 bytes).
    Removing nrk_error.o(i._Z13nrk_error_getPhS_), (24 bytes).
    Removing nrk_error.o(i._Z15nrk_error_printv), (800 bytes).
    Removing nrk_error.o(i._Z22blink_morse_code_errorh), (216 bytes).
    Removing nrk_error.o(i._Z5pausev), (40 bytes).
    Removing nrk_error.o(i._Z9blink_dotv), (26 bytes).
    Removing nrk_error.o(.ARM.exidx), (8 bytes).
    Removing nrk_error.o(.ARM.exidx), (8 bytes).
    Removing nrk_error.o(.ARM.exidx), (8 bytes).
    Removing nrk_error.o(.ARM.exidx), (8 bytes).
    Removing nrk_error.o(.ARM.exidx), (8 bytes).
    Removing nrk_error.o(.ARM.exidx), (8 bytes).
    Removing nrk_error.o(.ARM.exidx), (8 bytes).
    Removing nrk_error.o(.ARM.exidx), (8 bytes).
    Removing nrk_error.o(.ARM.exidx), (8 bytes).
    Removing nrk_error.o(.ARM.exidx), (8 bytes).
    Removing nrk_events.o(i._Z12nrk_sem_pendP14semaphore_type), (108 bytes).
    Removing nrk_events.o(i._Z12nrk_sem_postP14semaphore_type), (140 bytes).
    Removing nrk_events.o(i._Z13nrk_sem_queryP14semaphore_type), (48 bytes).
    Removing nrk_events.o(i._Z14nrk_sem_createhh), (64 bytes).
    Removing nrk_events.o(i._Z14nrk_sem_deleteP14semaphore_type), (64 bytes).
    Removing nrk_events.o(i._Z17nrk_signal_deletea), (120 bytes).
    Removing nrk_events.o(i._Z21nrk_signal_unregistera), (40 bytes).
    Removing nrk_events.o(i._Z22nrk_get_resource_indexP14semaphore_type), (36 bytes).
    Removing nrk_events.o(i._Z30nrk_signal_get_registered_maskv), (12 bytes).
    Removing nrk_events.o(.ARM.exidx), (8 bytes).
    Removing nrk_events.o(.ARM.exidx), (8 bytes).
    Removing nrk_events.o(.ARM.exidx), (8 bytes).
    Removing nrk_events.o(.ARM.exidx), (8 bytes).
    Removing nrk_events.o(.ARM.exidx), (8 bytes).
    Removing nrk_events.o(.ARM.exidx), (8 bytes).
    Removing nrk_events.o(.ARM.exidx), (8 bytes).
    Removing nrk_events.o(.ARM.exidx), (8 bytes).
    Removing nrk_events.o(.ARM.exidx), (8 bytes).
    Removing nrk_events.o(.ARM.exidx), (8 bytes).
    Removing nrk_events.o(.ARM.exidx), (8 bytes).
    Removing nrk_events.o(.ARM.exidx), (8 bytes).
    Removing nrk_events.o(.ARM.exidx), (8 bytes).
    Removing nrk_idle_task.o(.ARM.exidx), (8 bytes).
    Removing nrk_scheduler.o(.ARM.exidx), (8 bytes).
    Removing nrk_scheduler.o(.data), (1 bytes).
    Removing nrk_stack_check.o(i._Z15dump_stack_infov), (248 bytes).
    Removing nrk_stack_check.o(i._Z19nrk_stack_check_pida), (4 bytes).
    Removing nrk_stack_check.o(.ARM.exidx), (8 bytes).
    Removing nrk_stack_check.o(.ARM.exidx), (8 bytes).
    Removing nrk_stack_check.o(.ARM.exidx), (8 bytes).
    Removing nrk_task.o(i._Z11nrk_get_pidv), (12 bytes).
    Removing nrk_task.o(i._Z14nrk_wait_tickst), (72 bytes).
    Removing nrk_task.o(i._Z14nrk_wait_until10nrk_time_t), (50 bytes).
    Removing nrk_task.o(i._Z16nrk_print_readyQv), (20 bytes).
    Removing nrk_task.o(i._Z18nrk_terminate_taskv), (32 bytes).
    Removing nrk_task.o(i._Z19nrk_set_next_wakeup10nrk_time_t), (48 bytes).
    Removing nrk_task.o(.ARM.exidx), (8 bytes).
    Removing nrk_task.o(.ARM.exidx), (8 bytes).
    Removing nrk_task.o(.ARM.exidx), (8 bytes).
    Removing nrk_task.o(.ARM.exidx), (8 bytes).
    Removing nrk_task.o(.ARM.exidx), (8 bytes).
    Removing nrk_task.o(.ARM.exidx), (8 bytes).
    Removing nrk_task.o(.ARM.exidx), (8 bytes).
    Removing nrk_task.o(.ARM.exidx), (8 bytes).
    Removing nrk_task.o(.ARM.exidx), (8 bytes).
    Removing nrk_task.o(.ARM.exidx), (8 bytes).
    Removing nrk_task.o(.ARM.exidx), (8 bytes).
    Removing nrk_task.o(.ARM.exidx), (8 bytes).
    Removing nrk_task.o(.ARM.exidx), (8 bytes).
    Removing nrk_task.o(.ARM.exidx), (8 bytes).
    Removing nrk_task.o(.ARM.exidx), (8 bytes).
    Removing nrk_time.o(i._Z12nrk_time_addP10nrk_time_tS_S_), (20 bytes).
    Removing nrk_time.o(i._Z12nrk_time_getP10nrk_time_t), (68 bytes).
    Removing nrk_time.o(i._Z12nrk_time_setjj), (12 bytes).
    Removing nrk_time.o(i._Z12nrk_time_subP10nrk_time_tS_S_), (64 bytes).
    Removing nrk_time.o(i._Z18_nrk_ticks_to_timej), (32 bytes).
    Removing nrk_time.o(i._Z22nrk_time_compact_nanosP10nrk_time_t), (28 bytes).
    Removing nrk_time.o(i._Z23_nrk_time_to_ticks_longP10nrk_time_t), (56 bytes).
    Removing nrk_time.o(.ARM.exidx), (8 bytes).
    Removing nrk_time.o(.ARM.exidx), (8 bytes).
    Removing nrk_time.o(.ARM.exidx), (8 bytes).
    Removing nrk_time.o(.ARM.exidx), (8 bytes).
    Removing nrk_time.o(.ARM.exidx), (8 bytes).
    Removing nrk_time.o(.ARM.exidx), (8 bytes).
    Removing nrk_time.o(.ARM.exidx), (8 bytes).
    Removing nrk_time.o(.ARM.exidx), (8 bytes).
    Removing adc_driver.o(i._Z11get_adc_valv), (52 bytes).
    Removing adc_driver.o(i._Z12set_adc_chanh), (84 bytes).
    Removing adc_driver.o(i._Z15dev_manager_adchhPhh), (100 bytes).
    Removing adc_driver.o(i._Z5delayv), (2 bytes).
    Removing adc_driver.o(i._Z8init_adcv), (256 bytes).
    Removing adc_driver.o(.ARM.exidx), (8 bytes).
    Removing adc_driver.o(.ARM.exidx), (8 bytes).
    Removing adc_driver.o(.ARM.exidx), (8 bytes).
    Removing adc_driver.o(.ARM.exidx), (8 bytes).
    Removing adc_driver.o(.ARM.exidx), (8 bytes).
    Removing adc_driver.o(.data), (8 bytes).
    Removing ff_basic_sensor.o(i._Z22dev_manager_ff_sensorshhPhh), (332 bytes).
    Removing ff_basic_sensor.o(.ARM.exidx), (8 bytes).
    Removing ff_basic_sensor.o(.data), (2 bytes).
    Removing mrf24j40.o(i._Z13mrf_data_modev), (52 bytes).
    Removing mrf24j40.o(i._Z13mrf_test_modev), (52 bytes).
    Removing mrf24j40.o(i._Z8mrf_wakev), (30 bytes).
    Removing mrf24j40.o(i._Z9mrf_sleepv), (22 bytes).
    Removing mrf24j40.o(.ARM.exidx), (8 bytes).
    Removing mrf24j40.o(.ARM.exidx), (8 bytes).
    Removing mrf24j40.o(.ARM.exidx), (8 bytes).
    Removing mrf24j40.o(.ARM.exidx), (8 bytes).
    Removing mrf24j40.o(.ARM.exidx), (8 bytes).
    Removing mrf24j40.o(.ARM.exidx), (8 bytes).
    Removing mrf24j40.o(.ARM.exidx), (8 bytes).
    Removing mrf24j40.o(.ARM.exidx), (8 bytes).
    Removing mrf24j40.o(.ARM.exidx), (8 bytes).
    Removing mrf24j40.o(.ARM.exidx), (8 bytes).
    Removing mrf24j40.o(.ARM.exidx), (8 bytes).
    Removing mrf24j40.o(.ARM.exidx), (8 bytes).
    Removing mrf24j40.o(.ARM.exidx), (8 bytes).
    Removing mrf24j40.o(.ARM.exidx), (8 bytes).
    Removing mrf24j40.o(.ARM.exidx), (8 bytes).
    Removing mrf24j40.o(.ARM.exidx), (8 bytes).
    Removing mrf24j40.o(.ARM.exidx), (8 bytes).
    Removing mrf24j40.o(.ARM.exidx), (8 bytes).
    Removing mrf24j40.o(.ARM.exidx), (8 bytes).
    Removing mrf24j40.o(.data), (1 bytes).
    Removing mrf24j40.o(.data), (1 bytes).
    Removing basic_rf.o(i._Z11rf_power_upv), (30 bytes).
    Removing basic_rf.o(i._Z11rf_tx_powerh), (16 bytes).
    Removing basic_rf.o(i._Z13rf_power_downv), (22 bytes).
    Removing basic_rf.o(i._Z14rf_rx_callbackP10RF_RX_INFO), (12 bytes).
    Removing basic_rf.o(i._Z14rf_set_channelh), (44 bytes).
    Removing basic_rf.o(i._Z15rf_set_cca_modeh), (30 bytes).
    Removing basic_rf.o(i._Z16rf_flush_rx_fifov), (8 bytes).
    Removing basic_rf.o(i._Z16rf_rx_set_serialv), (2 bytes).
    Removing basic_rf.o(i._Z16rf_tx_set_serialv), (2 bytes).
    Removing basic_rf.o(i._Z17rf_rx_check_fifopv), (12 bytes).
    Removing basic_rf.o(i._Z17rf_tx_tdma_packetP10RF_TX_INFOtt), (4 bytes).
    Removing basic_rf.o(i._Z18rf_security_enablev), (2 bytes).
    Removing basic_rf.o(i._Z19rf_security_disablev), (2 bytes).
    Removing basic_rf.o(i._Z19rf_security_set_keyPh), (2 bytes).
    Removing basic_rf.o(i._Z20rf_polling_rx_packetv), (4 bytes).
    Removing basic_rf.o(i._Z22rf_set_preamble_lengthh), (2 bytes).
    Removing basic_rf.o(i._Z27rf_security_last_pkt_statusv), (4 bytes).
    Removing basic_rf.o(i._Z27rf_security_set_ctr_counterPh), (2 bytes).
    Removing basic_rf.o(i._Z9rf_set_rxP10RF_RX_INFOh), (56 bytes).
    Removing basic_rf.o(.ARM.exidx), (8 bytes).
    Removing basic_rf.o(.ARM.exidx), (8 bytes).
    Removing basic_rf.o(.ARM.exidx), (8 bytes).
    Removing basic_rf.o(.ARM.exidx), (8 bytes).
    Removing basic_rf.o(.ARM.exidx), (8 bytes).
    Removing basic_rf.o(.ARM.exidx), (8 bytes).
    Removing basic_rf.o(.ARM.exidx), (8 bytes).
    Removing basic_rf.o(.ARM.exidx), (8 bytes).
    Removing basic_rf.o(.ARM.exidx), (8 bytes).
    Removing basic_rf.o(.ARM.exidx), (8 bytes).
    Removing basic_rf.o(.ARM.exidx), (8 bytes).
    Removing basic_rf.o(.ARM.exidx), (8 bytes).
    Removing basic_rf.o(.ARM.exidx), (8 bytes).
    Removing basic_rf.o(.ARM.exidx), (8 bytes).
    Removing basic_rf.o(.ARM.exidx), (8 bytes).
    Removing basic_rf.o(.ARM.exidx), (8 bytes).
    Removing basic_rf.o(.ARM.exidx), (8 bytes).
    Removing basic_rf.o(.ARM.exidx), (8 bytes).
    Removing basic_rf.o(.ARM.exidx), (8 bytes).
    Removing basic_rf.o(.ARM.exidx), (8 bytes).
    Removing basic_rf.o(.ARM.exidx), (8 bytes).
    Removing basic_rf.o(.ARM.exidx), (8 bytes).
    Removing basic_rf.o(.ARM.exidx), (8 bytes).
    Removing basic_rf.o(.ARM.exidx), (8 bytes).
    Removing basic_rf.o(.ARM.exidx), (8 bytes).
    Removing basic_rf.o(.ARM.exidx), (8 bytes).
    Removing basic_rf.o(.ARM.exidx), (8 bytes).
    Removing basic_rf.o(.ARM.exidx), (8 bytes).
    Removing basic_rf.o(.ARM.exidx), (8 bytes).
    Removing basic_rf.o(.ARM.exidx), (8 bytes).
    Removing basic_rf.o(.ARM.exidx), (8 bytes).
    Removing basic_rf.o(.ARM.exidx), (8 bytes).
    Removing basic_rf.o(.ARM.exidx), (8 bytes).
    Removing basic_rf.o(.ARM.exidx), (8 bytes).
    Removing basic_rf.o(.ARM.exidx), (8 bytes).
    Removing basic_rf.o(.ARM.exidx), (8 bytes).
    Removing basic_rf.o(.ARM.exidx), (8 bytes).
    Removing basic_rf.o(.ARM.exidx), (8 bytes).
    Removing basic_rf.o(.ARM.exidx), (8 bytes).
    Removing bmac.o(i._Z11bmac_enablev), (28 bytes).
    Removing bmac.o(i._Z12bmac_disablev), (16 bytes).
    Removing bmac.o(i._Z16bmac_set_channelh), (44 bytes).
    Removing bmac.o(i._Z17bmac_rx_pkt_readyv), (20 bytes).
    Removing bmac.o(i._Z17bmac_set_rf_powerh), (20 bytes).
    Removing bmac.o(i._Z19bmac_set_cca_activeh), (12 bytes).
    Removing bmac.o(i._Z19bmac_tx_reserve_getv), (4 bytes).
    Removing bmac.o(i._Z19bmac_tx_reserve_setP10nrk_time_tt), (6 bytes).
    Removing bmac.o(i._Z20bmac_auto_ack_enablev), (10 bytes).
    Removing bmac.o(i._Z22bmac_encryption_enablev), (10 bytes).
    Removing bmac.o(i._Z22bmac_get_rx_pkt_signalv), (24 bytes).
    Removing bmac.o(i._Z23bmac_encryption_disablev), (10 bytes).
    Removing bmac.o(i._Z23bmac_encryption_set_keyPhh), (20 bytes).
    Removing bmac.o(i._Z23bmac_tx_pkt_nonblockingPch), (48 bytes).
    Removing bmac.o(i._Z24bmac_addr_decode_disablev), (10 bytes).
    Removing bmac.o(i._Z24bmac_rx_pkt_is_encryptedv), (10 bytes).
    Removing bmac.o(i._Z25bmac_rx_failure_count_getv), (12 bytes).
    Removing bmac.o(i._Z27bmac_rx_failure_count_resetv), (16 bytes).
    Removing bmac.o(i._Z31bmac_encryption_set_ctr_counterPhh), (20 bytes).
    Removing bmac.o(.ARM.exidx), (8 bytes).
    Removing bmac.o(.ARM.exidx), (8 bytes).
    Removing bmac.o(.ARM.exidx), (8 bytes).
    Removing bmac.o(.ARM.exidx), (8 bytes).
    Removing bmac.o(.ARM.exidx), (8 bytes).
    Removing bmac.o(.ARM.exidx), (8 bytes).
    Removing bmac.o(.ARM.exidx), (8 bytes).
    Removing bmac.o(.ARM.exidx), (8 bytes).
    Removing bmac.o(.ARM.exidx), (8 bytes).
    Removing bmac.o(.ARM.exidx), (8 bytes).
    Removing bmac.o(.ARM.exidx), (8 bytes).
    Removing bmac.o(.ARM.exidx), (8 bytes).
    Removing bmac.o(.ARM.exidx), (8 bytes).
    Removing bmac.o(.ARM.exidx), (8 bytes).
    Removing bmac.o(.ARM.exidx), (8 bytes).
    Removing bmac.o(.ARM.exidx), (8 bytes).
    Removing bmac.o(.ARM.exidx), (8 bytes).
    Removing bmac.o(.ARM.exidx), (8 bytes).
    Removing bmac.o(.ARM.exidx), (8 bytes).
    Removing bmac.o(.ARM.exidx), (8 bytes).
    Removing bmac.o(.ARM.exidx), (8 bytes).
    Removing bmac.o(.ARM.exidx), (8 bytes).
    Removing bmac.o(.ARM.exidx), (8 bytes).
    Removing bmac.o(.ARM.exidx), (8 bytes).
    Removing bmac.o(.ARM.exidx), (8 bytes).
    Removing bmac.o(.ARM.exidx), (8 bytes).
    Removing bmac.o(.ARM.exidx), (8 bytes).
    Removing bmac.o(.ARM.exidx), (8 bytes).
    Removing bmac.o(.ARM.exidx), (8 bytes).
    Removing bmac.o(.ARM.exidx), (8 bytes).
    Removing bmac.o(.ARM.exidx), (8 bytes).
    Removing bmac.o(.ARM.exidx), (8 bytes).
    Removing bmac.o(.ARM.exidx), (8 bytes).
    Removing bmac.o(.ARM.exidx), (8 bytes).
    Removing bmac.o(.ARM.exidx), (8 bytes).
    Removing bmac.o(.ARM.exidx), (8 bytes).
    Removing bmac.o(.ARM.exidx), (8 bytes).
    Removing bmac.o(.ARM.exidx), (8 bytes).
    Removing bmac.o(.ARM.exidx), (8 bytes).
    Removing main.o(.ARM.exidx), (8 bytes).
    Removing main.o(.ARM.exidx), (8 bytes).
    Removing main.o(.ARM.exidx), (8 bytes).
    Removing main.o(.ARM.exidx), (8 bytes).
    Removing main.o(.ARM.exidx), (8 bytes).
    Removing main.o(.ARM.exidx), (8 bytes).
    Removing main.o(.bss), (16 bytes).
    Removing main.o(.bss), (12 bytes).
    Removing system_LPC17xx.o(i.SystemCoreClockUpdate), (256 bytes).
    Removing core_cm3.o(.emb_text), (32 bytes).
    Removing cmsis_nvic.o(i.NVIC_GetVector), (16 bytes).
    Removing cmsis_nvic.o(i.NVIC_SetVector), (56 bytes).
    Removing wait_api.c.lpc1768.arm.o(i.wait), (48 bytes).
    Removing Serial.cpp.lpc1768.arm.o(i._ZN4mbed6Serial13get_rpc_classEv), (8 bytes).
    Removing Serial.cpp.lpc1768.arm.o(i._ZN4mbed6Serial15get_rpc_methodsEv), (8 bytes).
    Removing Serial.cpp.lpc1768.arm.o(i._ZN4mbed6Serial15setup_interruptEv), (196 bytes).
    Removing Serial.cpp.lpc1768.arm.o(i._ZN4mbed6Serial16remove_interruptEv), (112 bytes).
    Removing Serial.cpp.lpc1768.arm.o(i._ZN4mbed6Serial4baudEi), (6 bytes).
    Removing Serial.cpp.lpc1768.arm.o(i._ZN4mbed6Serial5_getcEv), (6 bytes).
    Removing Serial.cpp.lpc1768.arm.o(i._ZN4mbed6Serial6attachEPFvvE), (36 bytes).
    Removing Serial.cpp.lpc1768.arm.o(i._ZN4mbed6Serial6formatEiNS0_6ParityEi), (6 bytes).
    Removing Serial.cpp.lpc1768.arm.o(i._ZN4mbed6Serial8readableEv), (6 bytes).
    Removing Serial.cpp.lpc1768.arm.o(i._ZN4mbed6Serial9writeableEv), (6 bytes).
    Removing Serial.cpp.lpc1768.arm.o(i._ZN4mbed9uart0_irqEv), (12 bytes).
    Removing Serial.cpp.lpc1768.arm.o(i._ZN4mbed9uart1_irqEv), (12 bytes).
    Removing Serial.cpp.lpc1768.arm.o(i._ZN4mbed9uart2_irqEv), (12 bytes).
    Removing Serial.cpp.lpc1768.arm.o(i._ZN4mbed9uart3_irqEv), (12 bytes).
    Removing Serial.cpp.lpc1768.arm.o(.ARM.exidx), (8 bytes).
    Removing Serial.cpp.lpc1768.arm.o(.ARM.exidx), (8 bytes).
    Removing Serial.cpp.lpc1768.arm.o(.ARM.exidx), (8 bytes).
    Removing Serial.cpp.lpc1768.arm.o(.ARM.exidx), (8 bytes).
    Removing Serial.cpp.lpc1768.arm.o(.ARM.exidx), (8 bytes).
    Removing Serial.cpp.lpc1768.arm.o(.ARM.exidx), (8 bytes).
    Removing Serial.cpp.lpc1768.arm.o(.ARM.exidx), (8 bytes).
    Removing Serial.cpp.lpc1768.arm.o(.ARM.exidx), (8 bytes).
    Removing Serial.cpp.lpc1768.arm.o(.ARM.exidx), (8 bytes).
    Removing Serial.cpp.lpc1768.arm.o(.ARM.exidx), (8 bytes).
    Removing Serial.cpp.lpc1768.arm.o(.ARM.exidx), (8 bytes).
    Removing Serial.cpp.lpc1768.arm.o(.ARM.exidx), (8 bytes).
    Removing Serial.cpp.lpc1768.arm.o(.ARM.exidx), (8 bytes).
    Removing Serial.cpp.lpc1768.arm.o(.ARM.exidx), (8 bytes).
    Removing Serial.cpp.lpc1768.arm.o(.ARM.exidx), (8 bytes).
    Removing Serial.cpp.lpc1768.arm.o(.ARM.exidx), (8 bytes).
    Removing Serial.cpp.lpc1768.arm.o(.bss), (16 bytes).
    Removing Serial.cpp.lpc1768.arm.o(.constdata), (56 bytes).
    Removing Serial.cpp.lpc1768.arm.o(.constdata), (16 bytes).
    Removing Serial.cpp.lpc1768.arm.o(.conststring), (31 bytes).
    Removing Serial.cpp.lpc1768.arm.o(.conststring), (4 bytes).
    Removing Serial.cpp.lpc1768.arm.o(.data), (12 bytes).
    Removing Stream.cpp.lpc1768.arm.o(i._ZN4mbed6Stream15get_rpc_methodsEv), (8 bytes).
    Removing Stream.cpp.lpc1768.arm.o(i._ZN4mbed6Stream4flenEv), (4 bytes).
    Removing Stream.cpp.lpc1768.arm.o(i._ZN4mbed6Stream4readEPvj), (42 bytes).
    Removing Stream.cpp.lpc1768.arm.o(i._ZN4mbed6Stream5closeEv), (4 bytes).
    Removing Stream.cpp.lpc1768.arm.o(i._ZN4mbed6Stream5fsyncEv), (4 bytes).
    Removing Stream.cpp.lpc1768.arm.o(i._ZN4mbed6Stream5lseekEli), (4 bytes).
    Removing Stream.cpp.lpc1768.arm.o(i._ZN4mbed6Stream5scanfEPKcz), (30 bytes).
    Removing Stream.cpp.lpc1768.arm.o(i._ZN4mbed6Stream5writeEPKvj), (42 bytes).
    Removing Stream.cpp.lpc1768.arm.o(i._ZN4mbed6Stream6isattyEv), (4 bytes).
    Removing Stream.cpp.lpc1768.arm.o(i._ZThn16_N4mbed6Stream4readEPvj), (44 bytes).
    Removing Stream.cpp.lpc1768.arm.o(i._ZThn16_N4mbed6Stream5fsyncEv), (4 bytes).
    Removing Stream.cpp.lpc1768.arm.o(.ARM.exidx), (8 bytes).
    Removing Stream.cpp.lpc1768.arm.o(.ARM.exidx), (8 bytes).
    Removing Stream.cpp.lpc1768.arm.o(.ARM.exidx), (8 bytes).
    Removing Stream.cpp.lpc1768.arm.o(.ARM.exidx), (8 bytes).
    Removing Stream.cpp.lpc1768.arm.o(.ARM.exidx), (8 bytes).
    Removing Stream.cpp.lpc1768.arm.o(.ARM.exidx), (8 bytes).
    Removing Stream.cpp.lpc1768.arm.o(.ARM.exidx), (8 bytes).
    Removing Stream.cpp.lpc1768.arm.o(.ARM.exidx), (8 bytes).
    Removing Stream.cpp.lpc1768.arm.o(.ARM.exidx), (8 bytes).
    Removing Stream.cpp.lpc1768.arm.o(.ARM.exidx), (8 bytes).
    Removing Stream.cpp.lpc1768.arm.o(.ARM.exidx), (8 bytes).
    Removing Stream.cpp.lpc1768.arm.o(.ARM.exidx), (8 bytes).
    Removing Stream.cpp.lpc1768.arm.o(.ARM.exidx), (8 bytes).
    Removing Stream.cpp.lpc1768.arm.o(.ARM.exidx), (8 bytes).
    Removing Stream.cpp.lpc1768.arm.o(.ARM.exidx), (8 bytes).
    Removing Stream.cpp.lpc1768.arm.o(.ARM.exidx), (8 bytes).
    Removing Stream.cpp.lpc1768.arm.o(.ARM.exidx), (8 bytes).
    Removing Stream.cpp.lpc1768.arm.o(.ARM.exidx), (8 bytes).
    Removing Stream.cpp.lpc1768.arm.o(.ARM.exidx), (8 bytes).
    Removing Stream.cpp.lpc1768.arm.o(.ARM.exidx), (8 bytes).
    Removing Stream.cpp.lpc1768.arm.o(.constdata), (56 bytes).
    Removing Stream.cpp.lpc1768.arm.o(.conststring), (15 bytes).
    Removing serial_api.c.lpc1768.arm.o(i.serial_clear), (6 bytes).
    Removing serial_api.c.lpc1768.arm.o(i.serial_free), (2 bytes).
    Removing serial_api.c.lpc1768.arm.o(i.serial_getc), (12 bytes).
    Removing serial_api.c.lpc1768.arm.o(i.serial_interrupt), (2 bytes).
    Removing serial_api.c.lpc1768.arm.o(i.serial_readable), (8 bytes).
    Removing serial_api.c.lpc1768.arm.o(i.serial_writable), (8 bytes).
    Removing FunctionPointer.cpp.lpc1768.arm.o(i._ZN4mbed15FunctionPointer4callEv), (26 bytes).
    Removing FunctionPointer.cpp.lpc1768.arm.o(i._ZN4mbed15FunctionPointer6attachEPFvvE), (8 bytes).
    Removing FunctionPointer.cpp.lpc1768.arm.o(.ARM.exidx), (8 bytes).
    Removing FunctionPointer.cpp.lpc1768.arm.o(.ARM.exidx), (8 bytes).
    Removing FunctionPointer.cpp.lpc1768.arm.o(.ARM.exidx), (8 bytes).
    Removing Base.cpp.lpc1768.arm.o(i._ZN4mbed4Base11delete_selfEv), (30 bytes).
    Removing Base.cpp.lpc1768.arm.o(i._ZN4mbed4Base15get_rpc_methodsEv), (8 bytes).
    Removing Base.cpp.lpc1768.arm.o(i._ZN4mbed4Base15register_objectEPKc), (28 bytes).
    Removing Base.cpp.lpc1768.arm.o(i._ZN4mbed4Base3rpcEPKcS2_Pc), (152 bytes).
    Removing Base.cpp.lpc1768.arm.o(i._ZN4mbed4Base3rpcEPKcS2_S2_Pc), (336 bytes).
    Removing Base.cpp.lpc1768.arm.o(i._ZN4mbed4Base4nameEv), (4 bytes).
    Removing Base.cpp.lpc1768.arm.o(i._ZN4mbed4Base7opendirEv), (24 bytes).
    Removing Base.cpp.lpc1768.arm.o(i._ZN4mbed4Base8new_nameEPS0_), (32 bytes).
    Removing Base.cpp.lpc1768.arm.o(.ARM.exidx), (8 bytes).
    Removing Base.cpp.lpc1768.arm.o(.ARM.exidx), (8 bytes).
    Removing Base.cpp.lpc1768.arm.o(.ARM.exidx), (8 bytes).
    Removing Base.cpp.lpc1768.arm.o(.ARM.exidx), (8 bytes).
    Removing Base.cpp.lpc1768.arm.o(.ARM.exidx), (8 bytes).
    Removing Base.cpp.lpc1768.arm.o(.ARM.exidx), (8 bytes).
    Removing Base.cpp.lpc1768.arm.o(.ARM.exidx), (8 bytes).
    Removing Base.cpp.lpc1768.arm.o(.ARM.exidx), (8 bytes).
    Removing Base.cpp.lpc1768.arm.o(.ARM.exidx), (8 bytes).
    Removing Base.cpp.lpc1768.arm.o(.ARM.exidx), (8 bytes).
    Removing Base.cpp.lpc1768.arm.o(.ARM.exidx), (8 bytes).
    Removing Base.cpp.lpc1768.arm.o(.ARM.exidx), (8 bytes).
    Removing Base.cpp.lpc1768.arm.o(.ARM.exidx), (8 bytes).
    Removing Base.cpp.lpc1768.arm.o(.ARM.exidx), (8 bytes).
    Removing Base.cpp.lpc1768.arm.o(.constdata), (24 bytes).
    Removing Base.cpp.lpc1768.arm.o(.conststring), (7 bytes).
    Removing stdio.cpp.lpc1768.arm.o(i._sys_command_string), (4 bytes).
    Removing stdio.cpp.lpc1768.arm.o(i._sys_ensure), (40 bytes).
    Removing stdio.cpp.lpc1768.arm.o(i._sys_read), (64 bytes).
    Removing stdio.cpp.lpc1768.arm.o(i.closedir), (6 bytes).
    Removing stdio.cpp.lpc1768.arm.o(i.mkdir), (84 bytes).
    Removing stdio.cpp.lpc1768.arm.o(i.opendir), (84 bytes).
    Removing stdio.cpp.lpc1768.arm.o(i.readdir), (6 bytes).
    Removing stdio.cpp.lpc1768.arm.o(i.remove), (80 bytes).
    Removing stdio.cpp.lpc1768.arm.o(i.rename), (6 bytes).
    Removing stdio.cpp.lpc1768.arm.o(i.rewinddir), (6 bytes).
    Removing stdio.cpp.lpc1768.arm.o(i.seekdir), (6 bytes).
    Removing stdio.cpp.lpc1768.arm.o(i.telldir), (6 bytes).
    Removing stdio.cpp.lpc1768.arm.o(i.tmpfile), (4 bytes).
    Removing stdio.cpp.lpc1768.arm.o(i.tmpnam), (4 bytes).
    Removing stdio.cpp.lpc1768.arm.o(.ARM.exidx), (8 bytes).
    Removing stdio.cpp.lpc1768.arm.o(.ARM.exidx), (8 bytes).
    Removing stdio.cpp.lpc1768.arm.o(.ARM.exidx), (8 bytes).
    Removing stdio.cpp.lpc1768.arm.o(.ARM.exidx), (8 bytes).
    Removing stdio.cpp.lpc1768.arm.o(.ARM.exidx), (8 bytes).
    Removing stdio.cpp.lpc1768.arm.o(.ARM.exidx), (8 bytes).
    Removing stdio.cpp.lpc1768.arm.o(.ARM.exidx), (8 bytes).
    Removing stdio.cpp.lpc1768.arm.o(.ARM.exidx), (8 bytes).
    Removing stdio.cpp.lpc1768.arm.o(.ARM.exidx), (8 bytes).
    Removing stdio.cpp.lpc1768.arm.o(.ARM.exidx), (8 bytes).
    Removing stdio.cpp.lpc1768.arm.o(.ARM.exidx), (8 bytes).
    Removing stdio.cpp.lpc1768.arm.o(.ARM.exidx), (8 bytes).
    Removing stdio.cpp.lpc1768.arm.o(.ARM.exidx), (8 bytes).
    Removing stdio.cpp.lpc1768.arm.o(.ARM.exidx), (8 bytes).
    Removing stdio.cpp.lpc1768.arm.o(.ARM.exidx), (8 bytes).
    Removing stdio.cpp.lpc1768.arm.o(.ARM.exidx), (8 bytes).
    Removing stdio.cpp.lpc1768.arm.o(.ARM.exidx), (8 bytes).
    Removing stdio.cpp.lpc1768.arm.o(.ARM.exidx), (8 bytes).
    Removing stdio.cpp.lpc1768.arm.o(.ARM.exidx), (8 bytes).
    Removing stdio.cpp.lpc1768.arm.o(.ARM.exidx), (8 bytes).
    Removing stdio.cpp.lpc1768.arm.o(.ARM.exidx), (8 bytes).
    Removing stdio.cpp.lpc1768.arm.o(.ARM.exidx), (8 bytes).
    Removing timer_api.c.lpc1768.arm.o(i.timer_free), (2 bytes).
    Removing timer_api.c.lpc1768.arm.o(i.timer_stop), (10 bytes).
    Removing timer_api.c.lpc1768.arm.o(i.timer_write), (18 bytes).
    Removing utils_api.c.lpc1768.arm.o(i.mbed_mac_address), (72 bytes).
    Removing utils_api.c.lpc1768.arm.o(i.mbed_reset), (52 bytes).
    Removing utils_api.c.lpc1768.arm.o(i.mbed_uid), (4 bytes).
    Removing semihost_api.c.lpc1768.arm.o(i.semihost_close), (12 bytes).
    Removing semihost_api.c.lpc1768.arm.o(i.semihost_ensure), (12 bytes).
    Removing semihost_api.c.lpc1768.arm.o(i.semihost_flen), (12 bytes).
    Removing semihost_api.c.lpc1768.arm.o(i.semihost_istty), (12 bytes).
    Removing semihost_api.c.lpc1768.arm.o(i.semihost_open), (24 bytes).
    Removing semihost_api.c.lpc1768.arm.o(i.semihost_read), (18 bytes).
    Removing semihost_api.c.lpc1768.arm.o(i.semihost_remove), (22 bytes).
    Removing semihost_api.c.lpc1768.arm.o(i.semihost_rename), (34 bytes).
    Removing semihost_api.c.lpc1768.arm.o(i.semihost_reset), (10 bytes).
    Removing semihost_api.c.lpc1768.arm.o(i.semihost_seek), (16 bytes).
    Removing semihost_api.c.lpc1768.arm.o(i.semihost_uid), (20 bytes).
    Removing semihost_api.c.lpc1768.arm.o(i.semihost_write), (18 bytes).
    Removing gpio_api.c.lpc1768.arm.o(i.gpio_input), (48 bytes).
    Removing gpio_api.c.lpc1768.arm.o(i.gpio_mode), (4 bytes).
    Removing gpio_api.c.lpc1768.arm.o(i.gpio_read), (24 bytes).
    Removing rwalloc.o(i._ZN4__rw13__rw_allocateEji), (32 bytes).
    Removing rwalloc.o(.ARM.exidx), (8 bytes).
    Removing rwalloc.o(.ARM.exidx), (8 bytes).
    Removing rwalloc.o(.ARM.extab), (20 bytes).
    Removing rwstdexcept.o(i._ZN37_INTERNAL_15_rwstdexcept_cpp_8697b68a4__rw13__rw_vfmatstrEPcjPKcSt9__va_list), (88 bytes).
    Removing rwstdexcept.o(i._ZN37_INTERNAL_15_rwstdexcept_cpp_8697b68a4__rw13__rw_vfmatstrEPcjiSt9__va_list), (332 bytes).
    Removing rwstdexcept.o(i._ZN37_INTERNAL_15_rwstdexcept_cpp_8697b68a4__rw13__rw_vfmatstrEPcjiSt9__va_list.clean), (52 bytes).
    Removing rwstdexcept.o(i._ZN4__rw10__rw_throwEiz), (92 bytes).
    Removing rwstdexcept.o(i._ZN4__rw16__rw_assert_failEPKcS1_iS1_), (112 bytes).
    Removing rwstdexcept.o(i._ZNSt14__rw_exception10_C_vformatEPKcSt9__va_list), (94 bytes).
    Removing rwstdexcept.o(i._ZNSt14__rw_exception10_C_vformatEiSt9__va_list), (132 bytes).
    Removing rwstdexcept.o(i._ZNSt14__rw_exception9_C_assignEPKcj), (74 bytes).
    Removing rwstdexcept.o(i._ZNSt14__rw_exceptionC1ERKSs), (40 bytes).
    Removing rwstdexcept.o(.ARM.exidx), (8 bytes).
    Removing rwstdexcept.o(.ARM.exidx), (8 bytes).
    Removing rwstdexcept.o(.ARM.exidx), (8 bytes).
    Removing rwstdexcept.o(.ARM.exidx), (8 bytes).
    Removing rwstdexcept.o(.ARM.exidx), (8 bytes).
    Removing rwstdexcept.o(.ARM.exidx), (8 bytes).
    Removing rwstdexcept.o(.ARM.exidx), (8 bytes).
    Removing rwstdexcept.o(.ARM.exidx), (8 bytes).
    Removing rwstdexcept.o(.ARM.exidx), (8 bytes).
    Removing rwstdexcept.o(.ARM.extab), (72 bytes).
    Removing rwstdexcept.o(.ARM.extab), (28 bytes).
    Removing rwstdexcept.o(.ARM.extab), (28 bytes).
    Removing rwstdexcept.o(.ARM.extab), (28 bytes).
    Removing rwstdexcept.o(.bss), (24 bytes).
    Removing rwstdexcept.o(.constdata), (92 bytes).
    Removing rwstdexcept.o(.conststring), (627 bytes).
    Removing rwstdexcept.o(.data), (23 bytes).
    Removing rwstdexcept.o(.data), (1 bytes).
    Removing char.o(i._ZNKSt14collate_bynameIcE10do_compareEPKcS2_S2_S2_), (154 bytes).
    Removing char.o(i._ZNKSt14collate_bynameIcE10do_compareEPKcS2_S2_S2_.clean), (10 bytes).
    Removing char.o(i._ZNKSt14collate_bynameIcE12do_transformEPKcS2_), (116 bytes).
    Removing char.o(i._ZNKSt14collate_bynameIcE12do_transformEPKcS2_.clean), (16 bytes).
    Removing char.o(i._ZNSt12ctype_bynameIcE17_C_get_mask_tableEPKc), (204 bytes).
    Removing char.o(i._ZNSt12ctype_bynameIcE17_C_get_mask_tableEPKc.clean), (4 bytes).
    Removing char.o(i._ZNSt12ctype_bynameIcEC1EPKcj), (288 bytes).
    Removing char.o(i._ZNSt12ctype_bynameIcEC1EPKcj.clean), (16 bytes).
    Removing char.o(i._ZNSt5ctypeIcE12_C_initfacetERKSt6locale), (250 bytes).
    Removing char.o(i._ZNSt5ctypeIcE12_C_initfacetERKSt6locale.clean), (18 bytes).
    Removing char.o(i._ZNSt5ctypeIcEC1EPKNSt10ctype_base4maskEbj), (280 bytes).
    Removing char.o(i._ZNSt5ctypeIcEC1EPKNSt10ctype_base4maskEbj.clean), (10 bytes).
    Removing char.o(.ARM.exidx), (8 bytes).
    Removing char.o(.ARM.exidx), (8 bytes).
    Removing char.o(.ARM.exidx), (8 bytes).
    Removing char.o(.ARM.exidx), (8 bytes).
    Removing char.o(.ARM.exidx), (8 bytes).
    Removing char.o(.ARM.exidx), (8 bytes).
    Removing char.o(.ARM.exidx), (8 bytes).
    Removing char.o(.ARM.exidx), (8 bytes).
    Removing char.o(.ARM.exidx), (8 bytes).
    Removing char.o(.ARM.exidx), (8 bytes).
    Removing char.o(.ARM.exidx), (8 bytes).
    Removing char.o(.ARM.exidx), (8 bytes).
    Removing char.o(.ARM.exidx), (8 bytes).
    Removing char.o(.ARM.extab), (24 bytes).
    Removing char.o(.ARM.extab), (16 bytes).
    Removing char.o(.ARM.extab), (24 bytes).
    Removing char.o(.ARM.extab), (16 bytes).
    Removing char.o(.ARM.extab), (24 bytes).
    Removing char.o(.constdata), (4 bytes).
    Removing char.o(.constdata), (512 bytes).
    Removing locale.o(i.<Func5>), (20 bytes).
    Removing locale.o(i._ZN4__rw21__rw_use_c_lib_localeC1EPKci), (58 bytes).
    Removing locale.o(i._ZN4__rw23__rw_numpunct_impl_base18_C_get_named_init_EPKc), (148 bytes).
    Removing locale.o(i._ZN4__rw23__rw_numpunct_impl_base18_C_get_named_init_EPKc.clean), (10 bytes).
    Removing locale.o(i._ZNKSt14codecvt_bynameIwcSt11__mbstate_tE5do_inERS0_PKcS4_RS4_PwS6_RS6_), (84 bytes).
    Removing locale.o(i._ZNKSt14codecvt_bynameIwcSt11__mbstate_tE6do_outERS0_PKwS4_RS4_PcS6_RS6_), (98 bytes).
    Removing locale.o(i._ZNKSt6locale13_C_make_facetERKNS_2idEbiPFPN4__rw15__rw_facet_baseEiPKcjE), (264 bytes).
    Removing locale.o(i._ZNKSt6locale13_C_make_facetERKNS_2idEbiPFPN4__rw15__rw_facet_baseEiPKcjE.clean), (10 bytes).
    Removing locale.o(i._ZNKSt6locale16_C_install_facetEPN4__rw15__rw_facet_baseERKNS_2idE), (116 bytes).
    Removing locale.o(i._ZNKSt6locale4nameEv), (48 bytes).
    Removing locale.o(i._ZNSt6locale6globalERKS_), (112 bytes).
    Removing locale.o(i._ZNSt6locale6globalERKS_.clean), (10 bytes).
    Removing locale.o(i._ZNSt6locale7_C_initEv), (132 bytes).
    Removing locale.o(i._ZNSt6locale7_C_initEv.clean), (20 bytes).
    Removing locale.o(i._ZNSt6locale7classicEv), (68 bytes).
    Removing locale.o(i._ZNSt6locale7classicEv.clean), (16 bytes).
    Removing locale.o(i._ZNSt6localeC1EPKc), (164 bytes).
    Removing locale.o(i._ZNSt6localeC1EPKc.clean), (10 bytes).
    Removing locale.o(i._ZNSt6localeC1ERKS_PKci), (200 bytes).
    Removing locale.o(i._ZNSt6localeC1ERKS_PKci.clean), (18 bytes).
    Removing locale.o(i._ZNSt6localeC1ERKS_S1_i), (206 bytes).
    Removing locale.o(i._ZNSt6localeC1ERKS_S1_i.clean), (10 bytes).
    Removing locale.o(i._ZNSt6localeaSERKS_), (50 bytes).
    Removing locale.o(.ARM.exidx), (8 bytes).
    Removing locale.o(.ARM.exidx), (8 bytes).
    Removing locale.o(.ARM.exidx), (8 bytes).
    Removing locale.o(.ARM.exidx), (8 bytes).
    Removing locale.o(.ARM.exidx), (8 bytes).
    Removing locale.o(.ARM.exidx), (8 bytes).
    Removing locale.o(.ARM.exidx), (8 bytes).
    Removing locale.o(.ARM.exidx), (8 bytes).
    Removing locale.o(.ARM.exidx), (8 bytes).
    Removing locale.o(.ARM.exidx), (8 bytes).
    Removing locale.o(.ARM.exidx), (8 bytes).
    Removing locale.o(.ARM.exidx), (8 bytes).
    Removing locale.o(.ARM.exidx), (8 bytes).
    Removing locale.o(.ARM.exidx), (8 bytes).
    Removing locale.o(.ARM.exidx), (8 bytes).
    Removing locale.o(.ARM.exidx), (8 bytes).
    Removing locale.o(.ARM.exidx), (8 bytes).
    Removing locale.o(.ARM.exidx), (8 bytes).
    Removing locale.o(.ARM.exidx), (8 bytes).
    Removing locale.o(.ARM.exidx), (8 bytes).
    Removing locale.o(.ARM.exidx), (8 bytes).
    Removing locale.o(.ARM.exidx), (8 bytes).
    Removing locale.o(.ARM.exidx), (8 bytes).
    Removing locale.o(.ARM.exidx), (8 bytes).
    Removing locale.o(.ARM.extab), (36 bytes).
    Removing locale.o(.ARM.extab), (16 bytes).
    Removing locale.o(.ARM.extab), (24 bytes).
    Removing locale.o(.ARM.extab), (16 bytes).
    Removing locale.o(.ARM.extab), (16 bytes).
    Removing locale.o(.ARM.extab), (16 bytes).
    Removing locale.o(.ARM.extab), (16 bytes).
    Removing locale.o(.ARM.extab), (16 bytes).
    Removing locale.o(.constdata), (4 bytes).
    Removing locale.o(.constdata), (4 bytes).
    Removing locale.o(.constdata), (4 bytes).
    Removing locale.o(.constdata), (4 bytes).
    Removing locale.o(.constdata), (4 bytes).
    Removing locale.o(.constdata), (4 bytes).
    Removing locale.o(.constdata), (4 bytes).
    Removing locale.o(.constdata), (4 bytes).
    Removing locale.o(.constdata), (7 bytes).
    Removing locale.o(.constdata), (22 bytes).
    Removing locale.o(.constdata), (22 bytes).
    Removing messages.o(i._ZNKSt18__rw_messages_base11_C_cat_openERKSsRKSt6locale), (114 bytes).
    Removing messages.o(i._ZNKSt18__rw_messages_base11_C_cat_openERKSsRKSt6locale.clean), (10 bytes).
    Removing messages.o(i._ZNKSt18__rw_messages_base12_C_cat_closeEi), (64 bytes).
    Removing messages.o(i._ZNKSt18__rw_messages_base13_C_get_localeEi), (32 bytes).
    Removing messages.o(i._ZNKSt18__rw_messages_base14_C_get_messageEiii), (52 bytes).
    Removing messages.o(i._ZNSt18__rw_messages_base18_C_get_locale_nameEPKc), (88 bytes).
    Removing messages.o(i._ZNSt18__rw_messages_base18_C_get_locale_nameEPKc.clean), (10 bytes).
    Removing messages.o(.ARM.exidx), (8 bytes).
    Removing messages.o(.ARM.exidx), (8 bytes).
    Removing messages.o(.ARM.exidx), (8 bytes).
    Removing messages.o(.ARM.exidx), (8 bytes).
    Removing messages.o(.ARM.exidx), (8 bytes).
    Removing messages.o(.ARM.exidx), (8 bytes).
    Removing messages.o(.ARM.exidx), (8 bytes).
    Removing messages.o(.ARM.extab), (16 bytes).
    Removing messages.o(.ARM.extab), (16 bytes).
    Removing rwthrowproc_noex.o(.data), (4 bytes).
    Removing rwcats.o(i._Z7catgetsPN4__rw8__rw_catEiiPKc), (32 bytes).
    Removing rwcats.o(i._Z7catopenPKci), (34 bytes).
    Removing rwcats.o(i._Z7catopenPKci.clean), (4 bytes).
    Removing rwcats.o(i._Z8catclosePN4__rw8__rw_catE), (80 bytes).
    Removing rwcats.o(i._ZN4__rw9__catfindEPNS_8__rw_catE), (48 bytes).
    Removing rwcats.o(.ARM.exidx), (8 bytes).
    Removing rwcats.o(.ARM.exidx), (8 bytes).
    Removing rwcats.o(.ARM.exidx), (8 bytes).
    Removing rwcats.o(.ARM.exidx), (8 bytes).
    Removing rwcats.o(.ARM.exidx), (8 bytes).
    Removing rwcats.o(.ARM.exidx), (8 bytes).
    Removing rwcats.o(.ARM.extab), (20 bytes).
    Removing rwcats.o(.ARM.extab), (20 bytes).
    Removing rwthrowproc_impl_noex.o(i._ZN4__rw25__rw_throw_exception_noexEiPc), (152 bytes).
    Removing rwthrowproc_impl_noex.o(.ARM.exidx), (8 bytes).
    Removing vendor.o(i._ZN4__rw15__rw_locale_imp13_C_parse_nameERNS_18__rw_locale_vectorISsEEPKc), (208 bytes).
    Removing vendor.o(i._ZN4__rw15__rw_locale_imp13_C_parse_nameERNS_18__rw_locale_vectorISsEEPKc.clean), (10 bytes).
    Removing vendor.o(i._ZN4__rw15__rw_locale_imp15_C_map_categoryEi), (60 bytes).
    Removing vendor.o(i._ZN4__rw22__rw_digit_reader_base10_C_reallocERPcS1_Rj), (84 bytes).
    Removing vendor.o(i._ZN4__rw22__rw_digit_reader_base10_C_reallocERPcS1_Rj.clean), (8 bytes).
    Removing vendor.o(i._ZN4__rw22__rw_digit_reader_base14_C_parse_floatEPKcS2_Pv), (364 bytes).
    Removing vendor.o(i._ZN4__rw22__rw_digit_reader_base16_C_parse_decimalEPKcS2_), (88 bytes).
    Removing vendor.o(i._ZN4__rw22__rw_digit_reader_base8_C_parseEPKcPv), (124 bytes).
    Removing vendor.o(i._ZN4__rw22__rw_digit_reader_base8_C_parseEPKcm), (208 bytes).
    Removing vendor.o(i._ZN4__rw22__rw_digit_reader_base8_C_parseEPKcy), (176 bytes).
    Removing vendor.o(i._ZN4__rw22__rw_digit_writer_base11_C_digitizeEPKv), (124 bytes).
    Removing vendor.o(i._ZN4__rw22__rw_digit_writer_base11_C_digitizeEd), (244 bytes).
    Removing vendor.o(i._ZN4__rw22__rw_digit_writer_base11_C_digitizeEe), (244 bytes).
    Removing vendor.o(i._ZN4__rw22__rw_digit_writer_base11_C_digitizeEmbPKc), (70 bytes).
    Removing vendor.o(i._ZN4__rw22__rw_digit_writer_base11_C_digitizeEyb), (88 bytes).
    Removing vendor.o(i._ZN4__rw22__rw_digit_writer_base12_C_to_binaryEm), (68 bytes).
    Removing vendor.o(i._ZN4__rw22__rw_digit_writer_base12_C_to_binaryEy), (120 bytes).
    Removing vendor.o(i._ZN4__rw22__rw_digit_writer_base14_C_calc_groupsEiPKc), (74 bytes).
    Removing vendor.o(i._ZN4__rw22__rw_digit_writer_base14_C_get_patternEPcPKcb), (108 bytes).
    Removing vendor.o(i._ZN4__rw22__rw_digit_writer_base16_C_get_f_patternEPcc), (130 bytes).
    Removing vendor.o(.ARM.exidx), (8 bytes).
    Removing vendor.o(.ARM.exidx), (8 bytes).
    Removing vendor.o(.ARM.exidx), (8 bytes).
    Removing vendor.o(.ARM.exidx), (8 bytes).
    Removing vendor.o(.ARM.exidx), (8 bytes).
    Removing vendor.o(.ARM.exidx), (8 bytes).
    Removing vendor.o(.ARM.exidx), (8 bytes).
    Removing vendor.o(.ARM.exidx), (8 bytes).
    Removing vendor.o(.ARM.exidx), (8 bytes).
    Removing vendor.o(.ARM.exidx), (8 bytes).
    Removing vendor.o(.ARM.exidx), (8 bytes).
    Removing vendor.o(.ARM.exidx), (8 bytes).
    Removing vendor.o(.ARM.exidx), (8 bytes).
    Removing vendor.o(.ARM.exidx), (8 bytes).
    Removing vendor.o(.ARM.exidx), (8 bytes).
    Removing vendor.o(.ARM.exidx), (8 bytes).
    Removing vendor.o(.ARM.exidx), (8 bytes).
    Removing vendor.o(.ARM.exidx), (8 bytes).
    Removing vendor.o(.ARM.exidx), (8 bytes).
    Removing vendor.o(.ARM.exidx), (8 bytes).
    Removing vendor.o(.ARM.extab), (16 bytes).
    Removing vendor.o(.ARM.extab), (28 bytes).
    Removing vendor.o(.data), (8 bytes).
    Removing nrk_task.o(.ARM.exidx), (8 bytes).
    Removing main.o(.ARM.exidx), (8 bytes).
    Removing main.o(.ARM.exidx), (8 bytes).
    Removing Serial.cpp.lpc1768.arm.o(.constdata___ARM__ZN4mbed10parse_pinsEPKc_anon0), (104 bytes).
    Removing Serial.cpp.lpc1768.arm.o(.constdata___ARM__ZN4mbed12write_resultIiEEvT_Pc_anon0), (3 bytes).
    Removing Serial.cpp.lpc1768.arm.o(.ARM.exidx), (8 bytes).
    Removing Serial.cpp.lpc1768.arm.o(t._ZN4mbed17rpc_method_callerINS_6SerialEiXadL_ZNS1_4baudEiEEEEvPNS_4BaseEPKcPc), (120 bytes).
    Removing Serial.cpp.lpc1768.arm.o(.ARM.exidx), (8 bytes).
    Removing Serial.cpp.lpc1768.arm.o(t._ZN4mbed17rpc_method_callerIiNS_6SerialEXadL_ZNS1_8readableEvEEEEvPNS_4BaseEPKcPc), (56 bytes).
    Removing Serial.cpp.lpc1768.arm.o(.ARM.exidx), (8 bytes).
    Removing Serial.cpp.lpc1768.arm.o(t._ZN4mbed17rpc_method_callerIiNS_6SerialEXadL_ZNS1_9writeableEvEEEEvPNS_4BaseEPKcPc), (56 bytes).
    Removing Serial.cpp.lpc1768.arm.o(.ARM.exidx), (8 bytes).
    Removing Serial.cpp.lpc1768.arm.o(t._ZN4mbed9rpc_superINS_6StreamEEEPKNS_10rpc_methodEPNS_4BaseE), (4 bytes).
    Removing Serial.cpp.lpc1768.arm.o(.ARM.exidx), (8 bytes).
    Removing Serial.cpp.lpc1768.arm.o(t._ZN4mbed19rpc_function_callerIPKc7PinNameS3_S2_XadL_ZNS_4Base9constructINS_6SerialES3_S3_S2_EES2_T0_T1_T2_EEEEvS2_Pc), (528 bytes).
    Removing Serial.cpp.lpc1768.arm.o(.ARM.exidx), (8 bytes).
    Removing Serial.cpp.lpc1768.arm.o(.ARM.exidx), (8 bytes).
    Removing Serial.cpp.lpc1768.arm.o(i._ZN4mbed10parse_charEPKcPS1_), (162 bytes).
    Removing Serial.cpp.lpc1768.arm.o(.ARM.exidx), (8 bytes).
    Removing Serial.cpp.lpc1768.arm.o(i._ZN4mbed9parse_argI7PinNameEET_PKcPS4_), (240 bytes).
    Removing Serial.cpp.lpc1768.arm.o(.ARM.exidx), (8 bytes).
    Removing Stream.cpp.lpc1768.arm.o(t._ZN4mbed17rpc_method_callerIiNS_6StreamEiXadL_ZNS1_4putcEiEEEEvPNS_4BaseEPKcPc), (132 bytes).
    Removing Stream.cpp.lpc1768.arm.o(.ARM.exidx), (8 bytes).
    Removing Stream.cpp.lpc1768.arm.o(t._ZN4mbed17rpc_method_callerIiNS_6StreamEXadL_ZNS1_4getcEvEEEEvPNS_4BaseEPKcPc), (56 bytes).
    Removing Stream.cpp.lpc1768.arm.o(.ARM.exidx), (8 bytes).
    Removing Stream.cpp.lpc1768.arm.o(t._ZN4mbed17rpc_method_callerIiNS_6StreamEPKcXadL_ZNS1_4putsES3_EEEEvPNS_4BaseES3_Pc), (380 bytes).
    Removing Stream.cpp.lpc1768.arm.o(.ARM.exidx), (8 bytes).
    Removing Stream.cpp.lpc1768.arm.o(t._ZN4mbed9rpc_superINS_4BaseEEEPKNS_10rpc_methodEPS1_), (4 bytes).
    Removing Stream.cpp.lpc1768.arm.o(.ARM.exidx), (8 bytes).
    Removing Stream.cpp.lpc1768.arm.o(i._ZN4mbed6Stream4putcEi), (24 bytes).
    Removing Stream.cpp.lpc1768.arm.o(.ARM.exidx), (8 bytes).
    Removing Stream.cpp.lpc1768.arm.o(i._ZN4mbed6Stream4putsEPKc), (24 bytes).
    Removing Stream.cpp.lpc1768.arm.o(.ARM.exidx), (8 bytes).
    Removing Stream.cpp.lpc1768.arm.o(i._ZN4mbed6Stream4getcEv), (20 bytes).
    Removing Stream.cpp.lpc1768.arm.o(.ARM.exidx), (8 bytes).
    Removing Base.cpp.lpc1768.arm.o(t._ZN4mbed17rpc_method_callerINS_4BaseEXadL_ZNS1_11delete_selfEvEEEEvPS1_PKcPc), (40 bytes).
    Removing Base.cpp.lpc1768.arm.o(.ARM.exidx), (8 bytes).
    Removing Base.cpp.lpc1768.arm.o(.constdata__ZTVN4mbed13BaseDirHandleE), (28 bytes).
    Removing Base.cpp.lpc1768.arm.o(.constdata__ZTIN4mbed13BaseDirHandleE), (12 bytes).
    Removing Base.cpp.lpc1768.arm.o(.constdata__ZTIN4mbed9DirHandleE), (8 bytes).
    Removing Base.cpp.lpc1768.arm.o(.constdata__ZTSN4mbed13BaseDirHandleE), (23 bytes).
    Removing Base.cpp.lpc1768.arm.o(.constdata__ZTSN4mbed9DirHandleE), (18 bytes).
    Removing Base.cpp.lpc1768.arm.o(i._ZN4mbed13BaseDirHandle8closedirEv), (10 bytes).
    Removing Base.cpp.lpc1768.arm.o(.ARM.exidx), (8 bytes).
    Removing Base.cpp.lpc1768.arm.o(i._ZN4mbed13BaseDirHandle7readdirEv), (100 bytes).
    Removing Base.cpp.lpc1768.arm.o(.ARM.exidx), (8 bytes).
    Removing Base.cpp.lpc1768.arm.o(i._ZN4mbed13BaseDirHandle7telldirEv), (4 bytes).
    Removing Base.cpp.lpc1768.arm.o(.ARM.exidx), (8 bytes).
    Removing Base.cpp.lpc1768.arm.o(i._ZN4mbed13BaseDirHandle7seekdirEl), (4 bytes).
    Removing Base.cpp.lpc1768.arm.o(.ARM.exidx), (8 bytes).
    Removing Base.cpp.lpc1768.arm.o(i._ZN4mbed13BaseDirHandle9rewinddirEv), (6 bytes).
    Removing Base.cpp.lpc1768.arm.o(.ARM.exidx), (8 bytes).
    Removing stdio.cpp.lpc1768.arm.o(.ARM.exidx), (8 bytes).
    Removing rwstdexcept.o(.constdata__ZTVSt8messagesIcE), (32 bytes).
    Removing rwstdexcept.o(.constdata__ZZNSt8messagesIcEC1EjEs), (2 bytes).
    Removing rwstdexcept.o(t._ZNKSt8messagesIcE6do_getEiiiRKSs), (144 bytes).
    Removing rwstdexcept.o(t._ZNKSt8messagesIcE6do_getEiiiRKSs.clean), (10 bytes).
    Removing rwstdexcept.o(.ARM.extab), (16 bytes).
    Removing rwstdexcept.o(.ARM.exidx), (8 bytes).
    Removing rwstdexcept.o(.ARM.exidx), (8 bytes).
    Removing rwstdexcept.o(i._ZNSt8messagesIcED1Ev), (16 bytes).
    Removing rwstdexcept.o(.ARM.exidx), (8 bytes).
    Removing rwstdexcept.o(i._ZdlPvS_), (2 bytes).
    Removing rwstdexcept.o(.ARM.exidx), (8 bytes).
    Removing rwstdexcept.o(i._ZNSt6localeC1Ev), (32 bytes).
    Removing rwstdexcept.o(.ARM.extab), (16 bytes).
    Removing rwstdexcept.o(.ARM.exidx), (8 bytes).
    Removing rwstdexcept.o(i._ZNSt18__rw_messages_baseD1Ev), (8 bytes).
    Removing rwstdexcept.o(.ARM.exidx), (8 bytes).
    Removing rwstdexcept.o(i._ZNSt14__rw_exceptionC1Ev), (20 bytes).
    Removing rwstdexcept.o(.ARM.exidx), (8 bytes).
    Removing rwstdexcept.o(t._ZNKSt8messagesIcE7do_openERKSsRKSt6locale), (6 bytes).
    Removing rwstdexcept.o(.ARM.exidx), (8 bytes).
    Removing rwstdexcept.o(t._ZN4__rw16__rw_facet_makerISt5ctypeIcEE13_C_maker_funcEiPKcj), (70 bytes).
    Removing rwstdexcept.o(t._ZN4__rw16__rw_facet_makerISt5ctypeIcEE13_C_maker_funcEiPKcj.clean), (16 bytes).
    Removing rwstdexcept.o(.ARM.extab), (32 bytes).
    Removing rwstdexcept.o(.ARM.exidx), (8 bytes).
    Removing rwstdexcept.o(.ARM.exidx), (8 bytes).
    Removing rwstdexcept.o(t._ZNKSt8messagesIcE8do_closeEi), (6 bytes).
    Removing rwstdexcept.o(.ARM.exidx), (8 bytes).
    Removing rwstdexcept.o(i._ZNSt8messagesIcED0Ev), (14 bytes).
    Removing rwstdexcept.o(.ARM.exidx), (8 bytes).
    Removing rwstdexcept.o(.constdata__ZTVNSt6locale5facetE), (20 bytes).
    Removing rwstdexcept.o(.constdata__ZTVSt14__rw_exception), (20 bytes).
    Removing rwstdexcept.o(.constdata__ZTISt8messagesIcE), (32 bytes).
    Removing rwstdexcept.o(.constdata__ZTISt14__rw_exception), (12 bytes).
    Removing rwstdexcept.o(.constdata__ZTISt18__rw_messages_base), (12 bytes).
    Removing rwstdexcept.o(.constdata__ZTSSt8messagesIcE), (15 bytes).
    Removing rwstdexcept.o(.constdata__ZTSSt14__rw_exception), (19 bytes).
    Removing rwstdexcept.o(.constdata__ZTISt13messages_base), (8 bytes).
    Removing rwstdexcept.o(.constdata__ZTSSt18__rw_messages_base), (23 bytes).
    Removing rwstdexcept.o(.constdata__ZTSSt13messages_base), (18 bytes).
    Removing rwstdexcept.o(i._ZNSt6locale5facetD0Ev), (14 bytes).
    Removing rwstdexcept.o(.ARM.exidx), (8 bytes).
    Removing rwstdexcept.o(i._ZNSt14__rw_exceptionD1Ev), (28 bytes).
    Removing rwstdexcept.o(.ARM.exidx), (8 bytes).
    Removing rwstdexcept.o(i._ZNSt14__rw_exceptionD0Ev), (14 bytes).
    Removing rwstdexcept.o(.ARM.exidx), (8 bytes).
    Removing rwstdexcept.o(i._ZNKSt14__rw_exception4whatEv), (4 bytes).
    Removing rwstdexcept.o(.ARM.exidx), (8 bytes).
    Removing char.o(.constdata__ZTVSt5ctypeIcE), (52 bytes).
    Removing char.o(.constdata__ZTVSt7collateIcE), (32 bytes).
    Removing char.o(.constdata__ZTVSt14collate_bynameIcE), (32 bytes).
    Removing char.o(.constdata__ZTVSt8numpunctIcE), (40 bytes).
    Removing char.o(.constdata__ZZNSsC1EPKcjRKSaIcEEs), (1 bytes).
    Removing char.o(.constdata__ZZNSs7replaceEjjPKcjjjEs), (1 bytes).
    Removing char.o(.constdata__ZZNSs9_C_getRepEjjEs), (1 bytes).
    Removing char.o(t._ZNSs9_C_getRepEjj), (116 bytes).
    Removing char.o(.ARM.exidx), (8 bytes).
    Removing char.o(t._ZNSsC1ERKSs), (62 bytes).
    Removing char.o(.ARM.exidx), (8 bytes).
    Removing char.o(t._ZNSsC1EPKcjRKSaIcE), (92 bytes).
    Removing char.o(.ARM.exidx), (8 bytes).
    Removing char.o(t._ZNSs9_C_unlinkEv), (72 bytes).
    Removing char.o(.ARM.exidx), (8 bytes).
    Removing char.o(t._ZNSs7replaceEjjPKcjjj), (360 bytes).
    Removing char.o(.ARM.extab), (12 bytes).
    Removing char.o(.ARM.exidx), (8 bytes).
    Removing char.o(t._ZNSs5beginEv), (88 bytes).
    Removing char.o(.ARM.exidx), (8 bytes).
    Removing char.o(i._ZNSt5ctypeIcED1Ev), (44 bytes).
    Removing char.o(.ARM.exidx), (8 bytes).
    Removing char.o(t._ZNK4__rw17__rw_collate_dataIcE13_C_coll_orderEc), (52 bytes).
    Removing char.o(.ARM.exidx), (8 bytes).
    Removing char.o(t._ZNKSt7collateIcE10do_compareEPKcS2_S2_S2_), (98 bytes).
    Removing char.o(.ARM.extab), (12 bytes).
    Removing char.o(.ARM.exidx), (8 bytes).
    Removing char.o(t._ZNKSt7collateIcE12do_transformEPKcS2_), (64 bytes).
    Removing char.o(t._ZNKSt7collateIcE12do_transformEPKcS2_.clean), (10 bytes).
    Removing char.o(.ARM.extab), (16 bytes).
    Removing char.o(.ARM.exidx), (8 bytes).
    Removing char.o(.ARM.exidx), (8 bytes).
    Removing char.o(t._ZNKSt7collateIcE7do_hashEPKcS2_), (66 bytes).
    Removing char.o(t._ZNKSt7collateIcE7do_hashEPKcS2_.clean), (4 bytes).
    Removing char.o(.ARM.exidx), (8 bytes).
    Removing char.o(.ARM.exidx), (8 bytes).
    Removing char.o(i._ZNSt7collateIcED1Ev), (8 bytes).
    Removing char.o(.ARM.exidx), (8 bytes).
    Removing char.o(i._ZNSt14collate_bynameIcED1Ev), (24 bytes).
    Removing char.o(.ARM.exidx), (8 bytes).
    Removing char.o(t._ZNSt8numpunctIcE12_C_initfacetERKSt6locale), (130 bytes).
    Removing char.o(t._ZNSt8numpunctIcE12_C_initfacetERKSt6locale.clean), (14 bytes).
    Removing char.o(.ARM.extab), (32 bytes).
    Removing char.o(.ARM.exidx), (8 bytes).
    Removing char.o(.ARM.exidx), (8 bytes).
    Removing char.o(i._ZNSt8numpunctIcED1Ev), (16 bytes).
    Removing char.o(.ARM.exidx), (8 bytes).
    Removing char.o(i._ZnwjPv), (4 bytes).
    Removing char.o(.ARM.exidx), (8 bytes).
    Removing char.o(i._ZNSt11char_traitsIcE4copyEPcPKcj), (12 bytes).
    Removing char.o(.ARM.exidx), (8 bytes).
    Removing char.o(t._ZNSaIcEC1Ev), (2 bytes).
    Removing char.o(.ARM.exidx), (8 bytes).
    Removing char.o(t._ZNSaIcEC1ERKS_), (2 bytes).
    Removing char.o(.ARM.exidx), (8 bytes).
    Removing char.o(t._ZN4__rw12__string_refIcSt11char_traitsIcESaIcEE10_C_inc_refEv), (20 bytes).
    Removing char.o(.ARM.exidx), (8 bytes).
    Removing char.o(t._ZSt3maxIjERKT_S2_S2_), (12 bytes).
    Removing char.o(.ARM.exidx), (8 bytes).
    Removing char.o(t._ZNSaIN4__rw12__string_refIcSt11char_traitsIcESaIcEEEEC1IcEERKSaIT_E), (2 bytes).
    Removing char.o(.ARM.exidx), (8 bytes).
    Removing char.o(t._ZNSsD1Ev), (12 bytes).
    Removing char.o(.ARM.extab), (16 bytes).
    Removing char.o(.ARM.exidx), (8 bytes).
    Removing char.o(i._ZNSt6locale5facetD1Ev), (2 bytes).
    Removing char.o(.ARM.exidx), (8 bytes).
    Removing char.o(i._ZNKSt5ctypeIcE2isENSt10ctype_base4maskEc), (14 bytes).
    Removing char.o(.ARM.exidx), (8 bytes).
    Removing char.o(i._ZNSt5ctypeIcED0Ev), (14 bytes).
    Removing char.o(.ARM.exidx), (8 bytes).
    Removing char.o(i._ZNKSt5ctypeIcE10do_toupperEPcPKc), (44 bytes).
    Removing char.o(.ARM.exidx), (8 bytes).
    Removing char.o(i._ZNKSt5ctypeIcE10do_tolowerEPcPKc), (44 bytes).
    Removing char.o(.ARM.exidx), (8 bytes).
    Removing char.o(i._ZNKSt5ctypeIcE10do_toupperEc), (30 bytes).
    Removing char.o(.ARM.exidx), (8 bytes).
    Removing char.o(i._ZNKSt5ctypeIcE10do_tolowerEc), (30 bytes).
    Removing char.o(.ARM.exidx), (8 bytes).
    Removing char.o(i._ZNKSt5ctypeIcE8do_widenEc), (4 bytes).
    Removing char.o(.ARM.exidx), (8 bytes).
    Removing char.o(i._ZNKSt5ctypeIcE8do_widenEPKcS2_Pc), (16 bytes).
    Removing char.o(.ARM.exidx), (8 bytes).
    Removing char.o(i._ZNKSt5ctypeIcE9do_narrowEcc), (4 bytes).
    Removing char.o(.ARM.exidx), (8 bytes).
    Removing char.o(i._ZNKSt5ctypeIcE9do_narrowEPKcS2_cPc), (16 bytes).
    Removing char.o(.ARM.exidx), (8 bytes).
    Removing char.o(i._ZN4__rw21__rw_use_c_lib_localeD1Ev), (24 bytes).
    Removing char.o(.ARM.exidx), (8 bytes).
    Removing char.o(i._ZNSt7collateIcED0Ev), (14 bytes).
    Removing char.o(.ARM.exidx), (8 bytes).
    Removing char.o(i._ZNSt14collate_bynameIcED0Ev), (14 bytes).
    Removing char.o(.ARM.exidx), (8 bytes).
    Removing char.o(t._ZNKSt8numpunctIcE16do_decimal_pointEv), (4 bytes).
    Removing char.o(.ARM.exidx), (8 bytes).
    Removing char.o(t._ZNKSt8numpunctIcE16do_thousands_sepEv), (4 bytes).
    Removing char.o(.ARM.exidx), (8 bytes).
    Removing char.o(t._ZNKSt8numpunctIcE11do_groupingEv), (6 bytes).
    Removing char.o(.ARM.exidx), (8 bytes).
    Removing char.o(t._ZNKSt8numpunctIcE11do_truenameEv), (6 bytes).
    Removing char.o(.ARM.exidx), (8 bytes).
    Removing char.o(t._ZNKSt8numpunctIcE12do_falsenameEv), (6 bytes).
    Removing char.o(.ARM.exidx), (8 bytes).
    Removing char.o(i._ZN4__rw18__rw_numpunct_implIcED1Ev), (8 bytes).
    Removing char.o(.ARM.exidx), (8 bytes).
    Removing char.o(i._ZNSt8numpunctIcED0Ev), (14 bytes).
    Removing char.o(.ARM.exidx), (8 bytes).
    Removing char.o(i._ZN4__rw15__rw_facet_base12_C_initfacetERKSt6locale), (2 bytes).
    Removing char.o(.ARM.exidx), (8 bytes).
    Removing char.o(i._ZN4__rw23__rw_numpunct_impl_dataIcED1Ev), (22 bytes).
    Removing char.o(.ARM.exidx), (8 bytes).
    Removing char.o(i._ZN4__rw15__rw_punct_dataIcED1Ev), (12 bytes).
    Removing char.o(.ARM.exidx), (8 bytes).
    Removing char.o(.constdata__ZTISt5ctypeIcE), (40 bytes).
    Removing char.o(.constdata__ZTVSt12ctype_bynameIcE), (52 bytes).
    Removing char.o(.constdata__ZTISt7collateIcE), (32 bytes).
    Removing char.o(.constdata__ZTISt8numpunctIcE), (32 bytes).
    Removing char.o(.constdata__ZTISt14collate_bynameIcE), (12 bytes).
    Removing char.o(.constdata__ZTINSt6locale5facetE), (12 bytes).
    Removing char.o(.constdata__ZTISt12ctype_bynameIcE), (12 bytes).
    Removing char.o(.constdata__ZTISt10ctype_base), (8 bytes).
    Removing char.o(.constdata__ZTIN4__rw17__rw_ctype_helperIcEE), (8 bytes).
    Removing char.o(.constdata__ZTSSt5ctypeIcE), (12 bytes).
    Removing char.o(.constdata__ZTIN4__rw17__rw_collate_implIcEE), (12 bytes).
    Removing char.o(.constdata__ZTSSt7collateIcE), (14 bytes).
    Removing char.o(.constdata__ZTSSt14collate_bynameIcE), (22 bytes).
    Removing char.o(.constdata__ZTIN4__rw18__rw_numpunct_implIcEE), (12 bytes).
    Removing char.o(.constdata__ZTSSt8numpunctIcE), (15 bytes).
    Removing char.o(.constdata__ZTIN4__rw15__rw_facet_baseE), (12 bytes).
    Removing char.o(.constdata__ZTSNSt6locale5facetE), (18 bytes).
    Removing char.o(.constdata__ZTSSt10ctype_base), (15 bytes).
    Removing char.o(.constdata__ZTSN4__rw17__rw_ctype_helperIcEE), (30 bytes).
    Removing char.o(.constdata__ZTSSt12ctype_bynameIcE), (20 bytes).
    Removing char.o(.constdata__ZTIN4__rw17__rw_collate_dataIcEE), (8 bytes).
    Removing char.o(.constdata__ZTSN4__rw17__rw_collate_implIcEE), (30 bytes).
    Removing char.o(.constdata__ZTIN4__rw23__rw_numpunct_impl_dataIcEE), (32 bytes).
    Removing char.o(.constdata__ZTSN4__rw18__rw_numpunct_implIcEE), (31 bytes).
    Removing char.o(.constdata__ZTIN4__rw17__rw_synchronizedE), (8 bytes).
    Removing char.o(.constdata__ZTSN4__rw15__rw_facet_baseE), (25 bytes).
    Removing char.o(.constdata__ZTSN4__rw17__rw_collate_dataIcEE), (30 bytes).
    Removing char.o(.constdata__ZTIN4__rw23__rw_numpunct_impl_baseE), (8 bytes).
    Removing char.o(.constdata__ZTIN4__rw15__rw_punct_dataIcEE), (8 bytes).
    Removing char.o(.constdata__ZTSN4__rw23__rw_numpunct_impl_dataIcEE), (36 bytes).
    Removing char.o(.constdata__ZTSN4__rw17__rw_synchronizedE), (27 bytes).
    Removing char.o(.constdata__ZTSN4__rw23__rw_numpunct_impl_baseE), (33 bytes).
    Removing char.o(.constdata__ZTSN4__rw15__rw_punct_dataIcEE), (28 bytes).
    Removing char.o(i._ZNSt12ctype_bynameIcED1Ev), (8 bytes).
    Removing char.o(.ARM.exidx), (8 bytes).
    Removing char.o(i._ZNSt12ctype_bynameIcED0Ev), (14 bytes).
    Removing char.o(.ARM.exidx), (8 bytes).
    Removing char.o(i.__ARM_common_noexcept_landing), (4 bytes).
    Removing char.o(.ARM.exidx), (8 bytes).
    Removing locale.o(.constdata__ZZNK4__rw15__rw_locale_imp16_C_category_nameEiEs), (1 bytes).
    Removing locale.o(.constdata__ZTVSt14codecvt_bynameIwcSt11__mbstate_tE), (48 bytes).
    Removing locale.o(t._ZNSs11_C_allocateEjjj), (50 bytes).
    Removing locale.o(.ARM.exidx), (8 bytes).
    Removing locale.o(t._ZNSsC1EPKcRKSaIcE), (56 bytes).
    Removing locale.o(.ARM.exidx), (8 bytes).
    Removing locale.o(t._ZNSsaSERKSs), (62 bytes).
    Removing locale.o(.ARM.exidx), (8 bytes).
    Removing locale.o(t._ZNSsaSEPKc), (76 bytes).
    Removing locale.o(.ARM.exidx), (8 bytes).
    Removing locale.o(i._ZN4__rw15__rw_locale_impC1EPKcjj), (236 bytes).
    Removing locale.o(i._ZN4__rw15__rw_locale_impC1EPKcjj.clean), (28 bytes).
    Removing locale.o(.ARM.extab), (32 bytes).
    Removing locale.o(.ARM.exidx), (8 bytes).
    Removing locale.o(.ARM.exidx), (8 bytes).
    Removing locale.o(i._ZNSt6locale16_C_remove_facetsEi), (78 bytes).
    Removing locale.o(.ARM.exidx), (8 bytes).
    Removing locale.o(i._ZN4__rw15__rw_locale_impC1ERKS0_PKcj), (216 bytes).
    Removing locale.o(i._ZN4__rw15__rw_locale_impC1ERKS0_PKcj.clean), (22 bytes).
    Removing locale.o(.ARM.extab), (24 bytes).
    Removing locale.o(.ARM.exidx), (8 bytes).
    Removing locale.o(.ARM.exidx), (8 bytes).
    Removing locale.o(i._ZNSt6localeD1Ev), (32 bytes).
    Removing locale.o(.ARM.exidx), (8 bytes).
    Removing locale.o(t._ZN4__rw18__rw_locale_vectorIPNS_15__rw_facet_baseEE6resizeEjRKS2_), (86 bytes).
    Removing locale.o(.ARM.exidx), (8 bytes).
    Removing locale.o(i._ZNSt14codecvt_bynameIwcSt11__mbstate_tED1Ev), (8 bytes).
    Removing locale.o(.ARM.exidx), (8 bytes).
    Removing locale.o(t._ZNSsC1ERKSaIcE), (16 bytes).
    Removing locale.o(.ARM.exidx), (8 bytes).
    Removing locale.o(t._ZNSs7replaceEjjPKcj), (24 bytes).
    Removing locale.o(.ARM.exidx), (8 bytes).
    Removing locale.o(t._ZN4__rw18__rw_locale_vectorIPNS_15__rw_facet_baseEED1Ev), (14 bytes).
    Removing locale.o(.ARM.exidx), (8 bytes).
    Removing locale.o(t._ZN4__rw18__rw_locale_vectorISsED1Ev), (20 bytes).
    Removing locale.o(.ARM.extab), (16 bytes).
    Removing locale.o(.ARM.exidx), (8 bytes).
    Removing locale.o(i._ZN4__rw15__rw_locale_impD1Ev), (26 bytes).
    Removing locale.o(.ARM.exidx), (8 bytes).
    Removing locale.o(i._ZNSt6localeC1EPN4__rw15__rw_locale_impE), (32 bytes).
    Removing locale.o(.ARM.exidx), (8 bytes).
    Removing locale.o(i._ZNKSt7codecvtIwcSt11__mbstate_tE9do_lengthERKS0_PKcS5_j), (12 bytes).
    Removing locale.o(.ARM.exidx), (8 bytes).
    Removing locale.o(i._ZNSt7codecvtIwcSt11__mbstate_tED1Ev), (8 bytes).
    Removing locale.o(.ARM.exidx), (8 bytes).
    Removing locale.o(i._ZNKSt14codecvt_bynameIwcSt11__mbstate_tE10do_unshiftERS0_PcS3_RS3_), (42 bytes).
    Removing locale.o(.ARM.exidx), (8 bytes).
    Removing locale.o(i._ZNKSt14codecvt_bynameIwcSt11__mbstate_tE11do_encodingEv), (26 bytes).
    Removing locale.o(.ARM.extab), (16 bytes).
    Removing locale.o(.ARM.exidx), (8 bytes).
    Removing locale.o(i._ZNKSt14codecvt_bynameIwcSt11__mbstate_tE16do_always_noconvEv), (4 bytes).
    Removing locale.o(.ARM.exidx), (8 bytes).
    Removing locale.o(i._ZNKSt14codecvt_bynameIwcSt11__mbstate_tE13do_max_lengthEv), (8 bytes).
    Removing locale.o(.ARM.exidx), (8 bytes).
    Removing locale.o(i._ZNSt14codecvt_bynameIwcSt11__mbstate_tED0Ev), (14 bytes).
    Removing locale.o(.ARM.exidx), (8 bytes).
    Removing locale.o(.constdata__ZTISt14codecvt_bynameIwcSt11__mbstate_tE), (12 bytes).
    Removing locale.o(.data__ZZNKSt6locale2id7_C_initEvE9_C_id_gen), (4 bytes).
    Removing locale.o(.constdata__ZTISt7codecvtIwcSt11__mbstate_tE), (32 bytes).
    Removing locale.o(.constdata__ZTSSt14codecvt_bynameIwcSt11__mbstate_tE), (38 bytes).
    Removing locale.o(.constdata__ZTISt12codecvt_base), (8 bytes).
    Removing locale.o(.constdata__ZTSSt7codecvtIwcSt11__mbstate_tE), (30 bytes).
    Removing locale.o(.constdata__ZTSSt12codecvt_base), (17 bytes).
    Removing messages.o(i._ZSt13__rw_get_catsv), (60 bytes).
    Removing messages.o(i._ZSt13__rw_get_catsv.clean), (16 bytes).
    Removing messages.o(.ARM.extab), (16 bytes).
    Removing messages.o(.ARM.exidx), (8 bytes).
    Removing messages.o(.ARM.exidx), (8 bytes).
    Removing messages.o(t._ZN4__rw18__rw_locale_vectorISt18__rw_open_cat_dataE6resizeEj), (136 bytes).
    Removing messages.o(t._ZN4__rw18__rw_locale_vectorISt18__rw_open_cat_dataE6resizeEj.clean), (10 bytes).
    Removing messages.o(.ARM.extab), (16 bytes).
    Removing messages.o(.ARM.exidx), (8 bytes).
    Removing messages.o(.ARM.exidx), (8 bytes).
    Removing messages.o(t._ZN4__rw18__rw_locale_vectorISt18__rw_open_cat_dataED1Ev), (20 bytes).
    Removing messages.o(.ARM.extab), (20 bytes).
    Removing messages.o(.ARM.exidx), (8 bytes).
    Removing messages.o(i._ZNSt18__rw_open_cat_dataD1Ev), (12 bytes).
    Removing messages.o(.ARM.exidx), (8 bytes).
    Removing messages.o(i._ZNSt18__rw_open_cat_dataC1Ev), (26 bytes).
    Removing messages.o(.ARM.exidx), (8 bytes).
    Removing messages.o(i._ZNSt18__rw_open_cat_dataaSERKS_), (18 bytes).
    Removing messages.o(.ARM.exidx), (8 bytes).
    Removing messages.o(i._ZNSt6localeC1ERKS_), (12 bytes).
    Removing messages.o(.ARM.exidx), (8 bytes).
    Removing messages.o(.data__ZZSt13__rw_get_catsvE11__open_cats), (12 bytes).
    Removing rwcats.o(.ARM.exidx), (8 bytes).
    Removing vendor.o(.bss__ZNSs9__nullrefE), (16 bytes).

1130 unused section(s) (total 30335 bytes) removed from the image.

==============================================================================

Image Symbol Table

    Local Symbols

    Symbol Name                              Value     Ov Type        Size  Object(Section)

    RESET                                    0x00000000   Section      196  startup_LPC17xx.o(RESET)
    ../../../clib/unwind_pr.c                0x00000000   Number         0  unwind_pr0.o ABSOLUTE
    ../../../clib/unwind_pr.c                0x00000000   Number         0  unwind_prcommon.o ABSOLUTE
    ../../../clib/unwind_pr.c                0x00000000   Number         0  unwind_pr1.o ABSOLUTE
    ../../../clib/unwinder.c                 0x00000000   Number         0  unwind_activity.o ABSOLUTE
    ../../../clib/unwinder.c                 0x00000000   Number         0  unwind_activity.o ABSOLUTE
    ../../../clib/unwinder.c                 0x00000000   Number         0  unwinder.o ABSOLUTE
    ../../../clib/unwinder.c                 0x00000000   Number         0  unwinder.o ABSOLUTE
    ../../../edgfe/lib_src/arm_exceptions.c  0x00000000   Number         0  arm_exceptions_foreign.o ABSOLUTE
    ../../../edgfe/lib_src/arm_exceptions.c  0x00000000   Number         0  arm_exceptions_support.o ABSOLUTE
    ../../../edgfe/lib_src/arm_exceptions.c  0x00000000   Number         0  arm_exceptions_free.o ABSOLUTE
    ../../../edgfe/lib_src/arm_exceptions.c  0x00000000   Number         0  arm_exceptions_terminate.o ABSOLUTE
    ../../../edgfe/lib_src/arm_exceptions.c  0x00000000   Number         0  arm_exceptions_alloc.o ABSOLUTE
    ../../../edgfe/lib_src/arm_exceptions.c  0x00000000   Number         0  arm_exceptions_globs.o ABSOLUTE
    ../../../edgfe/lib_src/arm_exceptions.c  0x00000000   Number         0  arm_exceptions_cleanup.o ABSOLUTE
    ../../../edgfe/lib_src/arm_exceptions.c  0x00000000   Number         0  arm_exceptions_cleanup.o ABSOLUTE
    ../../../edgfe/lib_src/arm_exceptions.c  0x00000000   Number         0  arm_exceptions_callterm.o ABSOLUTE
    ../../../edgfe/lib_src/arm_exceptions.c  0x00000000   Number         0  arm_exceptions_mem.o ABSOLUTE
    ../../../edgfe/lib_src/arm_noexceptions.c 0x00000000   Number         0  arm_begincatch_noexceptions.o ABSOLUTE
    ../../../edgfe/lib_src/arm_noexceptions.c 0x00000000   Number         0  arm_bad_typeid_noexceptions.o ABSOLUTE
    ../../../edgfe/lib_src/arm_noexceptions.c 0x00000000   Number         0  arm_endcatch_noexceptions.o ABSOLUTE
    ../../../edgfe/lib_src/arm_noexceptions.c 0x00000000   Number         0  arm_newhandler_noexceptions.o ABSOLUTE
    ../../../edgfe/lib_src/arm_noexceptions.c 0x00000000   Number         0  arm_callunex_noexceptions.o ABSOLUTE
    ../../../edgfe/lib_src/arm_noexceptions.c 0x00000000   Number         0  arm_rethrow_noexceptions.o ABSOLUTE
    ../../../edgfe/lib_src/array_del.c       0x00000000   Number         0  array_del.o ABSOLUTE
    ../../../edgfe/lib_src/array_new.c       0x00000000   Number         0  array_new.o ABSOLUTE
    ../../../edgfe/lib_src/bad_alloc.c       0x00000000   Number         0  bad_alloc_what.o ABSOLUTE
    ../../../edgfe/lib_src/bad_alloc.c       0x00000000   Number         0  bad_alloc_dtor.o ABSOLUTE
    ../../../edgfe/lib_src/delete.c          0x00000000   Number         0  delete.o ABSOLUTE
    ../../../edgfe/lib_src/exception.c       0x00000000   Number         0  exception_dtor.o ABSOLUTE
    ../../../edgfe/lib_src/exception.c       0x00000000   Number         0  exception_ctor.o ABSOLUTE
    ../../../edgfe/lib_src/exception.c       0x00000000   Number         0  exception_what.o ABSOLUTE
    ../../../edgfe/lib_src/guard.c           0x00000000   Number         0  cxa_guard_release.o ABSOLUTE
    ../../../edgfe/lib_src/guard.c           0x00000000   Number         0  cxa_guard_abort.o ABSOLUTE
    ../../../edgfe/lib_src/guard.c           0x00000000   Number         0  cxa_guard_acquire.o ABSOLUTE
    ../../../edgfe/lib_src/new.c             0x00000000   Number         0  new.o ABSOLUTE
    ../../../edgfe/lib_src/pure_virt.c       0x00000000   Number         0  pure_virt.o ABSOLUTE
    ../../../edgfe/lib_src/rtti.c            0x00000000   Number         0  rtti.o ABSOLUTE
    ../../../edgfe/lib_src/typeinfo.c        0x00000000   Number         0  type_info_name.o ABSOLUTE
    ../../../edgfe/lib_src/typeinfo.c        0x00000000   Number         0  type_info_eq.o ABSOLUTE
    ../../../edgfe/lib_src/typeinfo.c        0x00000000   Number         0  lib_rtti_impl.o ABSOLUTE
    ../../../edgfe/lib_src/typeinfo.c        0x00000000   Number         0  type_info_dtor.o ABSOLUTE
    ../../../edgfe/lib_src/vec_newdel.c      0x00000000   Number         0  ARM_vec_cleanup_noexceptions.o ABSOLUTE
    ../../../edgfe/lib_src/vec_newdel.c      0x00000000   Number         0  cxa_throw_bad_array_new_length.o ABSOLUTE
    ../../../edgfe/lib_src/vec_newdel.c      0x00000000   Number         0  array_new_general.o ABSOLUTE
    ../../../edgfe/lib_src/vec_newdel.c      0x00000000   Number         0  cxa_vec_new.o ABSOLUTE
    ../../array_helpers.cpp                  0x00000000   Number         0  aeabi_vec_dtor_noexceptions.o ABSOLUTE
    ../../array_helpers.cpp                  0x00000000   Number         0  aeabi_vec_new_cookie.o ABSOLUTE
    ../../array_helpers.cpp                  0x00000000   Number         0  aeabi_vec_delete_noexceptions.o ABSOLUTE
    ../../array_helpers.cpp                  0x00000000   Number         0  aeabi_vec_dtor_cookie.o ABSOLUTE
    ../../stdlib/source/char.cpp             0x00000000   Number         0  char.o ABSOLUTE
    ../../stdlib/source/locale.cpp           0x00000000   Number         0  locale.o ABSOLUTE
    ../../stdlib/source/messages.cpp         0x00000000   Number         0  messages.o ABSOLUTE
    ../../stdlib/source/rwalloc.cpp          0x00000000   Number         0  rwalloc.o ABSOLUTE
    ../../stdlib/source/rwcats.cpp           0x00000000   Number         0  rwcats.o ABSOLUTE
    ../../stdlib/source/rwstdexcept.cpp      0x00000000   Number         0  rwstdexcept.o ABSOLUTE
    ../../stdlib/source/rwthrowproc_impl_noex.cpp 0x00000000   Number         0  rwthrowproc_impl_noex.o ABSOLUTE
    ../../stdlib/source/rwthrowproc_noex.cpp 0x00000000   Number         0  rwthrowproc_noex.o ABSOLUTE
    ../../stdlib/source/vendor.cpp           0x00000000   Number         0  vendor.o ABSOLUTE
    ../clib/angel/boardlib.s                 0x00000000   Number         0  boardinit3.o ABSOLUTE
    ../clib/angel/boardlib.s                 0x00000000   Number         0  boardinit2.o ABSOLUTE
    ../clib/angel/boardlib.s                 0x00000000   Number         0  boardinit1.o ABSOLUTE
    ../clib/angel/dczerorl.s                 0x00000000   Number         0  __dczerorl.o ABSOLUTE
    ../clib/angel/handlers.s                 0x00000000   Number         0  __scatter_zi.o ABSOLUTE
    ../clib/angel/kernel.s                   0x00000000   Number         0  __rtentry2.o ABSOLUTE
    ../clib/angel/kernel.s                   0x00000000   Number         0  __rtentry.o ABSOLUTE
    ../clib/angel/kernel.s                   0x00000000   Number         0  __rtentry4.o ABSOLUTE
    ../clib/angel/rt.s                       0x00000000   Number         0  rt_eh_globals_addr_intlibspace.o ABSOLUTE
    ../clib/angel/rt.s                       0x00000000   Number         0  rt_errno_addr.o ABSOLUTE
    ../clib/angel/rt.s                       0x00000000   Number         0  rt_div0.o ABSOLUTE
    ../clib/angel/rt.s                       0x00000000   Number         0  rt_locale_intlibspace.o ABSOLUTE
    ../clib/angel/rt.s                       0x00000000   Number         0  rt_ctype_table.o ABSOLUTE
    ../clib/angel/rt.s                       0x00000000   Number         0  rt_ddtor_pointer_addr.o ABSOLUTE
    ../clib/angel/rt.s                       0x00000000   Number         0  rt_new_handler_addr_intlibspace.o ABSOLUTE
    ../clib/angel/rt.s                       0x00000000   Number         0  rt_eh_globals_addr.o ABSOLUTE
    ../clib/angel/rt.s                       0x00000000   Number         0  rt_errno_addr_intlibspace.o ABSOLUTE
    ../clib/angel/rt.s                       0x00000000   Number         0  rt_raise.o ABSOLUTE
    ../clib/angel/rt.s                       0x00000000   Number         0  aeabi_ldiv0.o ABSOLUTE
    ../clib/angel/rt.s                       0x00000000   Number         0  aeabi_ldiv0_sigfpe.o ABSOLUTE
    ../clib/angel/rt.s                       0x00000000   Number         0  rt_ddtor_pointer_addr_intlibspace.o ABSOLUTE
    ../clib/angel/rt.s                       0x00000000   Number         0  rt_new_handler_addr.o ABSOLUTE
    ../clib/angel/rt.s                       0x00000000   Number         0  rt_heap_descriptor.o ABSOLUTE
    ../clib/angel/rt.s                       0x00000000   Number         0  rt_heap_descriptor_intlibspace.o ABSOLUTE
    ../clib/angel/rt.s                       0x00000000   Number         0  rt_locale.o ABSOLUTE
    ../clib/angel/scatter.s                  0x00000000   Number         0  __scatter.o ABSOLUTE
    ../clib/angel/startup.s                  0x00000000   Number         0  __main.o ABSOLUTE
    ../clib/angel/sys.s                      0x00000000   Number         0  indicate_semi.o ABSOLUTE
    ../clib/angel/sys.s                      0x00000000   Number         0  mutex_dummy.o ABSOLUTE
    ../clib/angel/sys.s                      0x00000000   Number         0  libspace.o ABSOLUTE
    ../clib/angel/sys.s                      0x00000000   Number         0  use_no_semi.o ABSOLUTE
    ../clib/angel/sysapp.c                   0x00000000   Number         0  getenv.o ABSOLUTE
    ../clib/angel/sysapp.c                   0x00000000   Number         0  sys_exit.o ABSOLUTE
    ../clib/angel/sysapp.c                   0x00000000   Number         0  sys_wrch.o ABSOLUTE
    ../clib/arm_runtime.c                    0x00000000   Number         0  init_aeabi.o ABSOLUTE
    ../clib/arm_runtime.c                    0x00000000   Number         0  init_aeabi.o ABSOLUTE
    ../clib/armsys.c                         0x00000000   Number         0  _get_argv_nomalloc.o ABSOLUTE
    ../clib/armsys.c                         0x00000000   Number         0  argv_veneer.o ABSOLUTE
    ../clib/armsys.c                         0x00000000   Number         0  no_argv.o ABSOLUTE
    ../clib/armsys.c                         0x00000000   Number         0  argv_veneer.o ABSOLUTE
    ../clib/armsys.c                         0x00000000   Number         0  _get_argv.o ABSOLUTE
    ../clib/assert.c                         0x00000000   Number         0  assert_stdio.o ABSOLUTE
    ../clib/assert.c                         0x00000000   Number         0  assert.o ABSOLUTE
    ../clib/assert.c                         0x00000000   Number         0  assert_puts.o ABSOLUTE
    ../clib/bigflt.c                         0x00000000   Number         0  bigflt0.o ABSOLUTE
    ../clib/btod.s                           0x00000000   Number         0  btod.o ABSOLUTE
    ../clib/compat.c                         0x00000000   Number         0  aeabi_ctype_def.o ABSOLUTE
